Archive member included to satisfy reference by file (symbol)

/usr/bin/../lib/gcc/arm-none-eabi/12.2.1/../../../../arm-none-eabi/lib/thumb/v7e-m+fp/hard/libstdc++_nano.a(del_ops.o)
                              Debug/Drivers/GPIO/IOPin.o (operator delete(void*, unsigned int))
/usr/bin/../lib/gcc/arm-none-eabi/12.2.1/../../../../arm-none-eabi/lib/thumb/v7e-m+fp/hard/libstdc++_nano.a(eh_arm.o)
                              Debug/Drivers/GPIO/IOPin.o (__cxa_end_cleanup)
/usr/bin/../lib/gcc/arm-none-eabi/12.2.1/../../../../arm-none-eabi/lib/thumb/v7e-m+fp/hard/libstdc++_nano.a(eh_exception.o)
                              /usr/bin/../lib/gcc/arm-none-eabi/12.2.1/../../../../arm-none-eabi/lib/thumb/v7e-m+fp/hard/libstdc++_nano.a(eh_arm.o) (typeinfo for __cxxabiv1::__forced_unwind)
/usr/bin/../lib/gcc/arm-none-eabi/12.2.1/../../../../arm-none-eabi/lib/thumb/v7e-m+fp/hard/libstdc++_nano.a(eh_globals.o)
                              /usr/bin/../lib/gcc/arm-none-eabi/12.2.1/../../../../arm-none-eabi/lib/thumb/v7e-m+fp/hard/libstdc++_nano.a(eh_arm.o) (__cxa_get_globals)
/usr/bin/../lib/gcc/arm-none-eabi/12.2.1/../../../../arm-none-eabi/lib/thumb/v7e-m+fp/hard/libstdc++_nano.a(eh_personality.o)
                              Debug/Drivers/GPIO/IOPin.o (__gxx_personality_v0)
/usr/bin/../lib/gcc/arm-none-eabi/12.2.1/../../../../arm-none-eabi/lib/thumb/v7e-m+fp/hard/libstdc++_nano.a(eh_terminate.o)
                              /usr/bin/../lib/gcc/arm-none-eabi/12.2.1/../../../../arm-none-eabi/lib/thumb/v7e-m+fp/hard/libstdc++_nano.a(eh_arm.o) (std::terminate())
/usr/bin/../lib/gcc/arm-none-eabi/12.2.1/../../../../arm-none-eabi/lib/thumb/v7e-m+fp/hard/libstdc++_nano.a(eh_unex_handler.o)
                              /usr/bin/../lib/gcc/arm-none-eabi/12.2.1/../../../../arm-none-eabi/lib/thumb/v7e-m+fp/hard/libstdc++_nano.a(eh_terminate.o) (__cxxabiv1::__unexpected_handler)
/usr/bin/../lib/gcc/arm-none-eabi/12.2.1/../../../../arm-none-eabi/lib/thumb/v7e-m+fp/hard/libstdc++_nano.a(new_op.o)
                              Debug/Drivers/GPIO/IOPin.o (operator new(unsigned int))
/usr/bin/../lib/gcc/arm-none-eabi/12.2.1/../../../../arm-none-eabi/lib/thumb/v7e-m+fp/hard/libstdc++_nano.a(si_class_type_info.o)
                              /usr/bin/../lib/gcc/arm-none-eabi/12.2.1/../../../../arm-none-eabi/lib/thumb/v7e-m+fp/hard/libstdc++_nano.a(eh_exception.o) (vtable for __cxxabiv1::__si_class_type_info)
/usr/bin/../lib/gcc/arm-none-eabi/12.2.1/../../../../arm-none-eabi/lib/thumb/v7e-m+fp/hard/libstdc++_nano.a(tinfo.o)
                              /usr/bin/../lib/gcc/arm-none-eabi/12.2.1/../../../../arm-none-eabi/lib/thumb/v7e-m+fp/hard/libstdc++_nano.a(si_class_type_info.o) (std::type_info::__is_pointer_p() const)
/usr/bin/../lib/gcc/arm-none-eabi/12.2.1/../../../../arm-none-eabi/lib/thumb/v7e-m+fp/hard/libstdc++_nano.a(atexit_arm.o)
                              /usr/bin/../lib/gcc/arm-none-eabi/12.2.1/../../../../arm-none-eabi/lib/thumb/v7e-m+fp/hard/libstdc++_nano.a(eh_globals.o) (__aeabi_atexit)
/usr/bin/../lib/gcc/arm-none-eabi/12.2.1/../../../../arm-none-eabi/lib/thumb/v7e-m+fp/hard/libstdc++_nano.a(class_type_info.o)
                              /usr/bin/../lib/gcc/arm-none-eabi/12.2.1/../../../../arm-none-eabi/lib/thumb/v7e-m+fp/hard/libstdc++_nano.a(si_class_type_info.o) (__cxxabiv1::__class_type_info::__do_upcast(__cxxabiv1::__class_type_info const*, void**) const)
/usr/bin/../lib/gcc/arm-none-eabi/12.2.1/../../../../arm-none-eabi/lib/thumb/v7e-m+fp/hard/libstdc++_nano.a(del_op.o)
                              /usr/bin/../lib/gcc/arm-none-eabi/12.2.1/../../../../arm-none-eabi/lib/thumb/v7e-m+fp/hard/libstdc++_nano.a(del_ops.o) (operator delete(void*))
/usr/bin/../lib/gcc/arm-none-eabi/12.2.1/../../../../arm-none-eabi/lib/thumb/v7e-m+fp/hard/libstdc++_nano.a(eh_call.o)
                              /usr/bin/../lib/gcc/arm-none-eabi/12.2.1/../../../../arm-none-eabi/lib/thumb/v7e-m+fp/hard/libstdc++_nano.a(eh_personality.o) (__cxa_call_terminate)
/usr/bin/../lib/gcc/arm-none-eabi/12.2.1/../../../../arm-none-eabi/lib/thumb/v7e-m+fp/hard/libstdc++_nano.a(eh_catch.o)
                              /usr/bin/../lib/gcc/arm-none-eabi/12.2.1/../../../../arm-none-eabi/lib/thumb/v7e-m+fp/hard/libstdc++_nano.a(eh_call.o) (__cxa_begin_catch)
/usr/bin/../lib/gcc/arm-none-eabi/12.2.1/../../../../arm-none-eabi/lib/thumb/v7e-m+fp/hard/libstdc++_nano.a(eh_term_handler.o)
                              /usr/bin/../lib/gcc/arm-none-eabi/12.2.1/../../../../arm-none-eabi/lib/thumb/v7e-m+fp/hard/libstdc++_nano.a(eh_terminate.o) (__cxxabiv1::__terminate_handler)
/usr/bin/../lib/gcc/arm-none-eabi/12.2.1/../../../../arm-none-eabi/lib/thumb/v7e-m+fp/hard/libstdc++_nano.a(new_handler.o)
                              /usr/bin/../lib/gcc/arm-none-eabi/12.2.1/../../../../arm-none-eabi/lib/thumb/v7e-m+fp/hard/libstdc++_nano.a(new_op.o) (std::get_new_handler())
/usr/bin/../lib/gcc/arm-none-eabi/12.2.1/../../../../arm-none-eabi/lib/thumb/v7e-m+fp/hard/libc_nano.a(libc_a-exit.o)
                              /usr/bin/../lib/gcc/arm-none-eabi/12.2.1/../../../../arm-none-eabi/lib/thumb/v7e-m+fp/hard/crt0.o (exit)
/usr/bin/../lib/gcc/arm-none-eabi/12.2.1/../../../../arm-none-eabi/lib/thumb/v7e-m+fp/hard/libc_nano.a(libc_a-init.o)
                              /usr/bin/../lib/gcc/arm-none-eabi/12.2.1/../../../../arm-none-eabi/lib/thumb/v7e-m+fp/hard/crt0.o (__libc_init_array)
/usr/bin/../lib/gcc/arm-none-eabi/12.2.1/../../../../arm-none-eabi/lib/thumb/v7e-m+fp/hard/libc_nano.a(libc_a-strcmp.o)
                              /usr/bin/../lib/gcc/arm-none-eabi/12.2.1/../../../../arm-none-eabi/lib/thumb/v7e-m+fp/hard/libstdc++_nano.a(tinfo.o) (strcmp)
/usr/bin/../lib/gcc/arm-none-eabi/12.2.1/../../../../arm-none-eabi/lib/thumb/v7e-m+fp/hard/libc_nano.a(libc_a-malloc.o)
                              /usr/bin/../lib/gcc/arm-none-eabi/12.2.1/../../../../arm-none-eabi/lib/thumb/v7e-m+fp/hard/libstdc++_nano.a(new_op.o) (malloc)
/usr/bin/../lib/gcc/arm-none-eabi/12.2.1/../../../../arm-none-eabi/lib/thumb/v7e-m+fp/hard/libc_nano.a(libc_a-mallocr.o)
                              /usr/bin/../lib/gcc/arm-none-eabi/12.2.1/../../../../arm-none-eabi/lib/thumb/v7e-m+fp/hard/libc_nano.a(libc_a-malloc.o) (_malloc_r)
/usr/bin/../lib/gcc/arm-none-eabi/12.2.1/../../../../arm-none-eabi/lib/thumb/v7e-m+fp/hard/libc_nano.a(libc_a-abort.o)
                              /usr/bin/../lib/gcc/arm-none-eabi/12.2.1/../../../../arm-none-eabi/lib/thumb/v7e-m+fp/hard/libstdc++_nano.a(eh_personality.o) (abort)
/usr/bin/../lib/gcc/arm-none-eabi/12.2.1/../../../../arm-none-eabi/lib/thumb/v7e-m+fp/hard/libc_nano.a(libc_a-cxa_atexit.o)
                              /usr/bin/../lib/gcc/arm-none-eabi/12.2.1/../../../../arm-none-eabi/lib/thumb/v7e-m+fp/hard/libstdc++_nano.a(atexit_arm.o) (__cxa_atexit)
/usr/bin/../lib/gcc/arm-none-eabi/12.2.1/../../../../arm-none-eabi/lib/thumb/v7e-m+fp/hard/libc_nano.a(libc_a-findfp.o)
                              /usr/bin/../lib/gcc/arm-none-eabi/12.2.1/../../../../arm-none-eabi/lib/thumb/v7e-m+fp/hard/libc_nano.a(libc_a-exit.o) (__stdio_exit_handler)
/usr/bin/../lib/gcc/arm-none-eabi/12.2.1/../../../../arm-none-eabi/lib/thumb/v7e-m+fp/hard/libc_nano.a(libc_a-stdio.o)
                              /usr/bin/../lib/gcc/arm-none-eabi/12.2.1/../../../../arm-none-eabi/lib/thumb/v7e-m+fp/hard/libc_nano.a(libc_a-findfp.o) (__sread)
/usr/bin/../lib/gcc/arm-none-eabi/12.2.1/../../../../arm-none-eabi/lib/thumb/v7e-m+fp/hard/libc_nano.a(libc_a-mlock.o)
                              /usr/bin/../lib/gcc/arm-none-eabi/12.2.1/../../../../arm-none-eabi/lib/thumb/v7e-m+fp/hard/libc_nano.a(libc_a-mallocr.o) (__malloc_lock)
/usr/bin/../lib/gcc/arm-none-eabi/12.2.1/../../../../arm-none-eabi/lib/thumb/v7e-m+fp/hard/libc_nano.a(libc_a-on_exit_args.o)
                              /usr/bin/../lib/gcc/arm-none-eabi/12.2.1/../../../../arm-none-eabi/lib/thumb/v7e-m+fp/hard/libc_nano.a(libc_a-cxa_atexit.o) (__on_exit_args)
/usr/bin/../lib/gcc/arm-none-eabi/12.2.1/../../../../arm-none-eabi/lib/thumb/v7e-m+fp/hard/libc_nano.a(libc_a-sbrkr.o)
                              /usr/bin/../lib/gcc/arm-none-eabi/12.2.1/../../../../arm-none-eabi/lib/thumb/v7e-m+fp/hard/libc_nano.a(libc_a-mallocr.o) (_sbrk_r)
/usr/bin/../lib/gcc/arm-none-eabi/12.2.1/../../../../arm-none-eabi/lib/thumb/v7e-m+fp/hard/libc_nano.a(libc_a-writer.o)
                              /usr/bin/../lib/gcc/arm-none-eabi/12.2.1/../../../../arm-none-eabi/lib/thumb/v7e-m+fp/hard/libc_nano.a(libc_a-stdio.o) (_write_r)
/usr/bin/../lib/gcc/arm-none-eabi/12.2.1/../../../../arm-none-eabi/lib/thumb/v7e-m+fp/hard/libc_nano.a(libc_a-errno.o)
                              Debug/Src/syscalls.o (__errno)
/usr/bin/../lib/gcc/arm-none-eabi/12.2.1/../../../../arm-none-eabi/lib/thumb/v7e-m+fp/hard/libc_nano.a(libc_a-fwalk.o)
                              /usr/bin/../lib/gcc/arm-none-eabi/12.2.1/../../../../arm-none-eabi/lib/thumb/v7e-m+fp/hard/libc_nano.a(libc_a-findfp.o) (_fwalk_sglue)
/usr/bin/../lib/gcc/arm-none-eabi/12.2.1/../../../../arm-none-eabi/lib/thumb/v7e-m+fp/hard/libc_nano.a(libc_a-memset.o)
                              /usr/bin/../lib/gcc/arm-none-eabi/12.2.1/../../../../arm-none-eabi/lib/thumb/v7e-m+fp/hard/crt0.o (memset)
/usr/bin/../lib/gcc/arm-none-eabi/12.2.1/../../../../arm-none-eabi/lib/thumb/v7e-m+fp/hard/libc_nano.a(libc_a-freer.o)
                              /usr/bin/../lib/gcc/arm-none-eabi/12.2.1/../../../../arm-none-eabi/lib/thumb/v7e-m+fp/hard/libc_nano.a(libc_a-malloc.o) (_free_r)
/usr/bin/../lib/gcc/arm-none-eabi/12.2.1/../../../../arm-none-eabi/lib/thumb/v7e-m+fp/hard/libc_nano.a(libc_a-lock.o)
                              /usr/bin/../lib/gcc/arm-none-eabi/12.2.1/../../../../arm-none-eabi/lib/thumb/v7e-m+fp/hard/libc_nano.a(libc_a-findfp.o) (__retarget_lock_init_recursive)
/usr/bin/../lib/gcc/arm-none-eabi/12.2.1/../../../../arm-none-eabi/lib/thumb/v7e-m+fp/hard/libc_nano.a(libc_a-closer.o)
                              /usr/bin/../lib/gcc/arm-none-eabi/12.2.1/../../../../arm-none-eabi/lib/thumb/v7e-m+fp/hard/libc_nano.a(libc_a-stdio.o) (_close_r)
/usr/bin/../lib/gcc/arm-none-eabi/12.2.1/../../../../arm-none-eabi/lib/thumb/v7e-m+fp/hard/libc_nano.a(libc_a-reent.o)
                              /usr/bin/../lib/gcc/arm-none-eabi/12.2.1/../../../../arm-none-eabi/lib/thumb/v7e-m+fp/hard/libc_nano.a(libc_a-sbrkr.o) (errno)
/usr/bin/../lib/gcc/arm-none-eabi/12.2.1/../../../../arm-none-eabi/lib/thumb/v7e-m+fp/hard/libc_nano.a(libc_a-impure.o)
                              /usr/bin/../lib/gcc/arm-none-eabi/12.2.1/../../../../arm-none-eabi/lib/thumb/v7e-m+fp/hard/libc_nano.a(libc_a-malloc.o) (_impure_ptr)
/usr/bin/../lib/gcc/arm-none-eabi/12.2.1/../../../../arm-none-eabi/lib/thumb/v7e-m+fp/hard/libc_nano.a(libc_a-fflush.o)
                              /usr/bin/../lib/gcc/arm-none-eabi/12.2.1/../../../../arm-none-eabi/lib/thumb/v7e-m+fp/hard/libc_nano.a(libc_a-findfp.o) (_fflush_r)
/usr/bin/../lib/gcc/arm-none-eabi/12.2.1/../../../../arm-none-eabi/lib/thumb/v7e-m+fp/hard/libc_nano.a(libc_a-signal.o)
                              /usr/bin/../lib/gcc/arm-none-eabi/12.2.1/../../../../arm-none-eabi/lib/thumb/v7e-m+fp/hard/libc_nano.a(libc_a-abort.o) (raise)
/usr/bin/../lib/gcc/arm-none-eabi/12.2.1/../../../../arm-none-eabi/lib/thumb/v7e-m+fp/hard/libc_nano.a(libc_a-lseekr.o)
                              /usr/bin/../lib/gcc/arm-none-eabi/12.2.1/../../../../arm-none-eabi/lib/thumb/v7e-m+fp/hard/libc_nano.a(libc_a-stdio.o) (_lseek_r)
/usr/bin/../lib/gcc/arm-none-eabi/12.2.1/../../../../arm-none-eabi/lib/thumb/v7e-m+fp/hard/libc_nano.a(libc_a-readr.o)
                              /usr/bin/../lib/gcc/arm-none-eabi/12.2.1/../../../../arm-none-eabi/lib/thumb/v7e-m+fp/hard/libc_nano.a(libc_a-stdio.o) (_read_r)
/usr/bin/../lib/gcc/arm-none-eabi/12.2.1/../../../../arm-none-eabi/lib/thumb/v7e-m+fp/hard/libc_nano.a(libc_a-signalr.o)
                              /usr/bin/../lib/gcc/arm-none-eabi/12.2.1/../../../../arm-none-eabi/lib/thumb/v7e-m+fp/hard/libc_nano.a(libc_a-signal.o) (_kill_r)
/usr/bin/../lib/gcc/arm-none-eabi/12.2.1/thumb/v7e-m+fp/hard/libgcc.a(unwind-arm.o)
                              Debug/Drivers/GPIO/IOPin.o (__aeabi_unwind_cpp_pr0)
/usr/bin/../lib/gcc/arm-none-eabi/12.2.1/thumb/v7e-m+fp/hard/libgcc.a(libunwind.o)
                              /usr/bin/../lib/gcc/arm-none-eabi/12.2.1/thumb/v7e-m+fp/hard/libgcc.a(unwind-arm.o) (restore_core_regs)
/usr/bin/../lib/gcc/arm-none-eabi/12.2.1/thumb/v7e-m+fp/hard/libgcc.a(pr-support.o)
                              /usr/bin/../lib/gcc/arm-none-eabi/12.2.1/thumb/v7e-m+fp/hard/libgcc.a(unwind-arm.o) (__gnu_unwind_execute)
/usr/bin/../lib/gcc/arm-none-eabi/12.2.1/../../../../arm-none-eabi/lib/thumb/v7e-m+fp/hard/libc_nano.a(libc_a-memcpy-stub.o)
                              /usr/bin/../lib/gcc/arm-none-eabi/12.2.1/thumb/v7e-m+fp/hard/libgcc.a(unwind-arm.o) (memcpy)

Discarded input sections

 .group         0x00000000        0xc Debug/Drivers/USART/USART.o
 .group         0x00000000        0xc Debug/Drivers/RCC/RCC.o
 .debug_macro   0x00000000      0xc70 Debug/Drivers/RCC/RCC.o
 .group         0x00000000        0xc Debug/Drivers/RCC/PeripheralClocks.o
 .debug_macro   0x00000000      0xc70 Debug/Drivers/RCC/PeripheralClocks.o
 .group         0x00000000       0x14 Debug/Drivers/GPIO/IOPin.o
 .group         0x00000000       0x14 Debug/Drivers/GPIO/IOPin.o
 .group         0x00000000       0x14 Debug/Drivers/GPIO/IOPin.o
 .group         0x00000000       0x14 Debug/Drivers/GPIO/IOPin.o
 .group         0x00000000       0x18 Debug/Drivers/GPIO/IOPin.o
 .group         0x00000000       0x2c Debug/Drivers/GPIO/IOPin.o
 .group         0x00000000       0x18 Debug/Drivers/GPIO/IOPin.o
 .group         0x00000000       0x2c Debug/Drivers/GPIO/IOPin.o
 .group         0x00000000       0x14 Debug/Drivers/GPIO/IOPin.o
 .group         0x00000000       0x14 Debug/Drivers/GPIO/IOPin.o
 .group         0x00000000       0x14 Debug/Drivers/GPIO/IOPin.o
 .group         0x00000000       0x14 Debug/Drivers/GPIO/IOPin.o
 .group         0x00000000       0x18 Debug/Drivers/GPIO/IOPin.o
 .group         0x00000000       0x2c Debug/Drivers/GPIO/IOPin.o
 .group         0x00000000       0x1c Debug/Drivers/GPIO/IOPin.o
 .group         0x00000000       0x2c Debug/Drivers/GPIO/IOPin.o
 .group         0x00000000       0x1c Debug/Drivers/GPIO/IOPin.o
 .group         0x00000000       0x18 Debug/Drivers/GPIO/IOPin.o
 .group         0x00000000       0x18 Debug/Drivers/GPIO/IOPin.o
 .group         0x00000000       0x2c Debug/Drivers/GPIO/IOPin.o
 .group         0x00000000       0x18 Debug/Drivers/GPIO/IOPin.o
 .group         0x00000000       0x18 Debug/Drivers/GPIO/IOPin.o
 .group         0x00000000       0x2c Debug/Drivers/GPIO/IOPin.o
 .group         0x00000000       0x18 Debug/Drivers/GPIO/IOPin.o
 .group         0x00000000       0x18 Debug/Drivers/GPIO/IOPin.o
 .group         0x00000000       0x18 Debug/Drivers/GPIO/IOPin.o
 .group         0x00000000       0x18 Debug/Drivers/GPIO/IOPin.o
 .group         0x00000000       0x1c Debug/Drivers/GPIO/IOPin.o
 .group         0x00000000       0x18 Debug/Drivers/GPIO/IOPin.o
 .group         0x00000000       0x1c Debug/Drivers/GPIO/IOPin.o
 .group         0x00000000       0x18 Debug/Drivers/GPIO/IOPin.o
 .group         0x00000000       0x18 Debug/Drivers/GPIO/IOPin.o
 .group         0x00000000       0x18 Debug/Drivers/GPIO/IOPin.o
 .group         0x00000000       0x1c Debug/Drivers/GPIO/IOPin.o
 .group         0x00000000       0x18 Debug/Drivers/GPIO/IOPin.o
 .group         0x00000000       0x18 Debug/Drivers/GPIO/IOPin.o
 .group         0x00000000       0x18 Debug/Drivers/GPIO/IOPin.o
 .group         0x00000000       0x18 Debug/Drivers/GPIO/IOPin.o
 .group         0x00000000       0x14 Debug/Drivers/GPIO/IOPin.o
 .group         0x00000000       0x18 Debug/Drivers/GPIO/IOPin.o
 .group         0x00000000       0x18 Debug/Drivers/GPIO/IOPin.o
 .group         0x00000000       0x18 Debug/Drivers/GPIO/IOPin.o
 .group         0x00000000       0x14 Debug/Drivers/GPIO/IOPin.o
 .group         0x00000000       0x14 Debug/Drivers/GPIO/IOPin.o
 .group         0x00000000       0x18 Debug/Drivers/GPIO/IOPin.o
 .group         0x00000000       0x18 Debug/Drivers/GPIO/IOPin.o
 .group         0x00000000       0x18 Debug/Drivers/GPIO/IOPin.o
 .group         0x00000000       0x14 Debug/Drivers/GPIO/IOPin.o
 .group         0x00000000       0x18 Debug/Drivers/GPIO/IOPin.o
 .group         0x00000000       0x14 Debug/Drivers/GPIO/IOPin.o
 .group         0x00000000       0x14 Debug/Drivers/GPIO/IOPin.o
 .group         0x00000000       0x14 Debug/Drivers/GPIO/IOPin.o
 .group         0x00000000       0x18 Debug/Drivers/GPIO/IOPin.o
 .group         0x00000000       0x18 Debug/Drivers/GPIO/IOPin.o
 .group         0x00000000       0x14 Debug/Drivers/GPIO/IOPin.o
 .group         0x00000000       0x14 Debug/Drivers/GPIO/IOPin.o
 .group         0x00000000       0x18 Debug/Drivers/GPIO/IOPin.o
 .group         0x00000000       0x18 Debug/Drivers/GPIO/IOPin.o
 .group         0x00000000       0x14 Debug/Drivers/GPIO/IOPin.o
 .group         0x00000000       0x18 Debug/Drivers/GPIO/IOPin.o
 .group         0x00000000       0x14 Debug/Drivers/GPIO/IOPin.o
 .group         0x00000000       0x14 Debug/Drivers/GPIO/IOPin.o
 .group         0x00000000       0x14 Debug/Drivers/GPIO/IOPin.o
 .group         0x00000000       0x18 Debug/Drivers/GPIO/IOPin.o
 .group         0x00000000       0x18 Debug/Drivers/GPIO/IOPin.o
 .group         0x00000000       0x14 Debug/Drivers/GPIO/IOPin.o
 .group         0x00000000       0x14 Debug/Drivers/GPIO/IOPin.o
 .group         0x00000000       0x18 Debug/Drivers/GPIO/IOPin.o
 .group         0x00000000       0x14 Debug/Drivers/GPIO/IOPin.o
 .group         0x00000000       0x18 Debug/Drivers/GPIO/IOPin.o
 .group         0x00000000       0x14 Debug/Drivers/GPIO/IOPin.o
 .group         0x00000000       0x14 Debug/Drivers/GPIO/IOPin.o
 .group         0x00000000       0x14 Debug/Drivers/GPIO/IOPin.o
 .group         0x00000000       0x18 Debug/Drivers/GPIO/IOPin.o
 .group         0x00000000       0x18 Debug/Drivers/GPIO/IOPin.o
 .group         0x00000000       0x14 Debug/Drivers/GPIO/IOPin.o
 .group         0x00000000       0x14 Debug/Drivers/GPIO/IOPin.o
 .group         0x00000000       0x14 Debug/Drivers/GPIO/IOPin.o
 .group         0x00000000        0xc Debug/Drivers/GPIO/IOPin.o
 .group         0x00000000        0xc Debug/Drivers/GPIO/IOPin.o
 .group         0x00000000        0xc Debug/Drivers/GPIO/IOPin.o
 .group         0x00000000        0xc Debug/Drivers/GPIO/IOPin.o
 .group         0x00000000        0xc Debug/Drivers/GPIO/IOPin.o
 .group         0x00000000        0xc Debug/Drivers/GPIO/IOPin.o
 .group         0x00000000        0x8 Debug/Drivers/GPIO/IOPin.o
 .group         0x00000000        0x8 Debug/Drivers/GPIO/IOPin.o
 .group         0x00000000        0x8 Debug/Drivers/GPIO/IOPin.o
 .group         0x00000000       0x14 Debug/Drivers/GPIO/IOPin.o
 .group         0x00000000       0x14 Debug/Drivers/GPIO/IOPin.o
 .group         0x00000000        0xc Debug/Drivers/GPIO/IOPin.o
 .group         0x00000000        0xc Debug/Drivers/GPIO/IOPin.o
 .group         0x00000000        0xc Debug/Drivers/GPIO/IOPin.o
 .group         0x00000000        0xc Debug/Drivers/GPIO/IOPin.o
 .group         0x00000000        0xc Debug/Drivers/GPIO/IOPin.o
 .group         0x00000000        0xc Debug/Drivers/GPIO/IOPin.o
 .group         0x00000000        0xc Debug/Drivers/GPIO/IOPin.o
 .group         0x00000000        0xc Debug/Drivers/GPIO/IOPin.o
 .group         0x00000000        0xc Debug/Drivers/GPIO/IOPin.o
 .group         0x00000000        0xc Debug/Drivers/GPIO/IOPin.o
 .group         0x00000000        0xc Debug/Drivers/GPIO/IOPin.o
 .group         0x00000000        0xc Debug/Drivers/GPIO/IOPin.o
 .group         0x00000000        0xc Debug/Drivers/GPIO/IOPin.o
 .group         0x00000000        0xc Debug/Drivers/GPIO/IOPin.o
 .group         0x00000000        0xc Debug/Drivers/GPIO/IOPin.o
 .group         0x00000000        0xc Debug/Drivers/GPIO/IOPin.o
 .group         0x00000000        0xc Debug/Drivers/GPIO/IOPin.o
 .group         0x00000000        0xc Debug/Drivers/GPIO/IOPin.o
 .group         0x00000000        0xc Debug/Drivers/GPIO/IOPin.o
 .group         0x00000000        0xc Debug/Drivers/GPIO/IOPin.o
 .group         0x00000000        0xc Debug/Drivers/GPIO/IOPin.o
 .group         0x00000000        0xc Debug/Drivers/GPIO/IOPin.o
 .group         0x00000000        0xc Debug/Drivers/GPIO/IOPin.o
 .group         0x00000000        0xc Debug/Drivers/GPIO/IOPin.o
 .group         0x00000000        0xc Debug/Drivers/GPIO/IOPin.o
 .group         0x00000000        0xc Debug/Drivers/GPIO/IOPin.o
 .group         0x00000000        0xc Debug/Drivers/GPIO/IOPin.o
 .group         0x00000000        0xc Debug/Drivers/GPIO/IOPin.o
 .group         0x00000000        0xc Debug/Drivers/GPIO/IOPin.o
 .group         0x00000000        0xc Debug/Drivers/GPIO/IOPin.o
 .group         0x00000000        0xc Debug/Drivers/GPIO/IOPin.o
 .group         0x00000000        0xc Debug/Drivers/GPIO/IOPin.o
 .group         0x00000000        0xc Debug/Drivers/GPIO/IOPin.o
 .group         0x00000000        0xc Debug/Drivers/GPIO/IOPin.o
 .group         0x00000000        0xc Debug/Drivers/GPIO/IOPin.o
 .group         0x00000000        0xc Debug/Drivers/GPIO/IOPin.o
 .group         0x00000000        0xc Debug/Drivers/GPIO/IOPin.o
 .group         0x00000000        0xc Debug/Drivers/GPIO/IOPin.o
 .group         0x00000000        0xc Debug/Drivers/GPIO/IOPin.o
 .group         0x00000000        0xc Debug/Drivers/GPIO/IOPin.o
 .group         0x00000000        0xc Debug/Drivers/GPIO/IOPin.o
 .group         0x00000000        0xc Debug/Drivers/GPIO/IOPin.o
 .group         0x00000000        0xc Debug/Drivers/GPIO/IOPin.o
 .group         0x00000000        0xc Debug/Drivers/GPIO/IOPin.o
 .group         0x00000000        0xc Debug/Drivers/GPIO/IOPin.o
 .group         0x00000000        0xc Debug/Drivers/GPIO/IOPin.o
 .group         0x00000000        0xc Debug/Drivers/GPIO/IOPin.o
 .group         0x00000000        0xc Debug/Drivers/GPIO/IOPin.o
 .group         0x00000000        0xc Debug/Drivers/GPIO/IOPin.o
 .group         0x00000000        0xc Debug/Drivers/GPIO/IOPin.o
 .group         0x00000000        0xc Debug/Drivers/GPIO/IOPin.o
 .group         0x00000000        0xc Debug/Drivers/GPIO/IOPin.o
 .group         0x00000000        0xc Debug/Drivers/GPIO/IOPin.o
 .group         0x00000000        0xc Debug/Drivers/GPIO/IOPin.o
 .group         0x00000000        0xc Debug/Drivers/GPIO/IOPin.o
 .group         0x00000000        0xc Debug/Drivers/GPIO/IOPin.o
 .group         0x00000000        0xc Debug/Drivers/GPIO/IOPin.o
 .group         0x00000000        0xc Debug/Drivers/GPIO/IOPin.o
 .group         0x00000000        0xc Debug/Drivers/GPIO/IOPin.o
 .group         0x00000000        0xc Debug/Drivers/GPIO/IOPin.o
 .group         0x00000000        0xc Debug/Drivers/GPIO/IOPin.o
 .group         0x00000000        0xc Debug/Drivers/GPIO/IOPin.o
 .group         0x00000000        0xc Debug/Drivers/GPIO/IOPin.o
 .group         0x00000000        0xc Debug/Drivers/GPIO/IOPin.o
 .group         0x00000000        0xc Debug/Drivers/GPIO/IOPin.o
 .group         0x00000000        0xc Debug/Drivers/GPIO/IOPin.o
 .group         0x00000000        0xc Debug/Drivers/GPIO/IOPin.o
 .group         0x00000000        0xc Debug/Drivers/GPIO/IOPin.o
 .group         0x00000000        0xc Debug/Drivers/GPIO/IOPin.o
 .group         0x00000000        0xc Debug/Drivers/GPIO/IOPin.o
 .group         0x00000000        0xc Debug/Drivers/GPIO/IOPin.o
 .group         0x00000000        0xc Debug/Drivers/GPIO/IOPin.o
 .group         0x00000000        0xc Debug/Drivers/GPIO/IOPin.o
 .group         0x00000000        0xc Debug/Drivers/GPIO/IOPin.o
 .group         0x00000000        0xc Debug/Drivers/GPIO/IOPin.o
 .group         0x00000000        0xc Debug/Drivers/GPIO/IOPin.o
 .group         0x00000000        0xc Debug/Drivers/GPIO/IOPin.o
 .group         0x00000000        0xc Debug/Drivers/GPIO/IOPin.o
 .group         0x00000000        0xc Debug/Drivers/GPIO/IOPin.o
 .group         0x00000000        0xc Debug/Drivers/GPIO/IOPin.o
 .group         0x00000000        0xc Debug/Drivers/GPIO/IOPin.o
 .group         0x00000000        0xc Debug/Drivers/GPIO/IOPin.o
 .group         0x00000000        0xc Debug/Drivers/GPIO/IOPin.o
 .group         0x00000000        0xc Debug/Drivers/GPIO/IOPin.o
 .group         0x00000000        0xc Debug/Drivers/GPIO/IOPin.o
 .group         0x00000000        0xc Debug/Drivers/GPIO/IOPin.o
 .group         0x00000000        0xc Debug/Drivers/GPIO/IOPin.o
 .group         0x00000000        0xc Debug/Drivers/GPIO/IOPin.o
 .group         0x00000000        0xc Debug/Drivers/GPIO/IOPin.o
 .group         0x00000000        0xc Debug/Drivers/GPIO/IOPin.o
 .group         0x00000000        0xc Debug/Drivers/GPIO/IOPin.o
 .group         0x00000000        0xc Debug/Drivers/GPIO/IOPin.o
 .group         0x00000000        0xc Debug/Drivers/GPIO/IOPin.o
 .group         0x00000000        0xc Debug/Drivers/GPIO/IOPin.o
 .group         0x00000000        0xc Debug/Drivers/GPIO/IOPin.o
 .group         0x00000000        0xc Debug/Drivers/GPIO/IOPin.o
 .group         0x00000000        0xc Debug/Drivers/GPIO/IOPin.o
 .group         0x00000000        0xc Debug/Drivers/GPIO/IOPin.o
 .group         0x00000000        0xc Debug/Drivers/GPIO/IOPin.o
 .group         0x00000000        0xc Debug/Drivers/GPIO/IOPin.o
 .group         0x00000000        0xc Debug/Drivers/GPIO/IOPin.o
 .group         0x00000000        0xc Debug/Drivers/GPIO/IOPin.o
 .debug_macro   0x00000000      0xc70 Debug/Drivers/GPIO/IOPin.o
 .group         0x00000000        0xc Debug/Src/main.o
 .group         0x00000000        0xc Debug/Src/main.o
 .group         0x00000000        0xc Debug/Src/main.o
 .group         0x00000000        0xc Debug/Src/main.o
 .group         0x00000000        0xc Debug/Src/main.o
 .group         0x00000000        0xc Debug/Src/main.o
 .group         0x00000000        0xc Debug/Src/main.o
 .group         0x00000000        0xc Debug/Src/main.o
 .group         0x00000000        0xc Debug/Src/main.o
 .group         0x00000000        0xc Debug/Src/main.o
 .group         0x00000000        0xc Debug/Src/main.o
 .group         0x00000000        0xc Debug/Src/main.o
 .group         0x00000000        0xc Debug/Src/main.o
 .group         0x00000000        0xc Debug/Src/main.o
 .group         0x00000000        0xc Debug/Src/main.o
 .group         0x00000000        0xc Debug/Src/main.o
 .group         0x00000000        0xc Debug/Src/main.o
 .group         0x00000000        0xc Debug/Src/main.o
 .group         0x00000000        0xc Debug/Src/main.o
 .group         0x00000000        0xc Debug/Src/main.o
 .group         0x00000000        0xc Debug/Src/main.o
 .group         0x00000000        0xc Debug/Src/main.o
 .group         0x00000000        0xc Debug/Src/main.o
 .group         0x00000000        0xc Debug/Src/main.o
 .group         0x00000000        0xc Debug/Src/main.o
 .group         0x00000000        0xc Debug/Src/main.o
 .group         0x00000000        0xc Debug/Src/main.o
 .group         0x00000000        0xc Debug/Src/main.o
 .group         0x00000000        0xc Debug/Src/main.o
 .group         0x00000000        0xc Debug/Src/main.o
 .group         0x00000000        0xc Debug/Src/main.o
 .group         0x00000000        0xc Debug/Src/main.o
 .group         0x00000000        0xc Debug/Src/main.o
 .group         0x00000000        0xc Debug/Src/main.o
 .group         0x00000000        0xc Debug/Src/main.o
 .group         0x00000000        0xc Debug/Src/main.o
 .group         0x00000000        0xc Debug/Src/main.o
 .group         0x00000000        0xc Debug/Src/main.o
 .group         0x00000000        0xc Debug/Src/main.o
 .group         0x00000000        0xc Debug/Src/main.o
 .group         0x00000000        0xc Debug/Src/main.o
 .group         0x00000000        0xc Debug/Src/main.o
 .group         0x00000000        0xc Debug/Src/main.o
 .group         0x00000000        0xc Debug/Src/main.o
 .group         0x00000000        0xc Debug/Src/main.o
 .group         0x00000000        0xc Debug/Src/main.o
 .group         0x00000000        0xc Debug/Src/main.o
 .group         0x00000000        0xc Debug/Src/main.o
 .group         0x00000000        0xc Debug/Src/main.o
 .group         0x00000000        0xc Debug/Src/main.o
 .group         0x00000000        0xc Debug/Src/main.o
 .group         0x00000000        0xc Debug/Src/main.o
 .group         0x00000000        0xc Debug/Src/main.o
 .group         0x00000000        0xc Debug/Src/main.o
 .group         0x00000000        0xc Debug/Src/main.o
 .group         0x00000000        0xc Debug/Src/main.o
 .group         0x00000000        0xc Debug/Src/main.o
 .group         0x00000000        0xc Debug/Src/main.o
 .group         0x00000000        0xc Debug/Src/main.o
 .group         0x00000000        0xc Debug/Src/main.o
 .group         0x00000000        0xc Debug/Src/main.o
 .group         0x00000000        0xc Debug/Src/main.o
 .group         0x00000000        0xc Debug/Src/main.o
 .group         0x00000000        0xc Debug/Src/main.o
 .group         0x00000000        0xc Debug/Src/main.o
 .group         0x00000000        0xc Debug/Src/main.o
 .group         0x00000000        0xc Debug/Src/main.o
 .group         0x00000000        0xc Debug/Src/main.o
 .group         0x00000000        0xc Debug/Src/main.o
 .group         0x00000000        0xc Debug/Src/main.o
 .group         0x00000000        0xc Debug/Src/main.o
 .group         0x00000000        0xc Debug/Src/main.o
 .group         0x00000000        0xc Debug/Src/main.o
 .group         0x00000000        0xc Debug/Src/main.o
 .group         0x00000000        0xc Debug/Src/main.o
 .group         0x00000000        0xc Debug/Src/main.o
 .group         0x00000000        0xc Debug/Src/main.o
 .group         0x00000000        0xc Debug/Src/main.o
 .group         0x00000000        0xc Debug/Src/main.o
 .group         0x00000000        0xc Debug/Src/main.o
 .group         0x00000000        0xc Debug/Src/main.o
 .group         0x00000000        0xc Debug/Src/main.o
 .group         0x00000000        0xc Debug/Src/main.o
 .group         0x00000000        0xc Debug/Src/main.o
 .group         0x00000000        0xc Debug/Src/main.o
 .group         0x00000000        0xc Debug/Src/main.o
 .group         0x00000000        0xc Debug/Src/main.o
 .group         0x00000000        0xc Debug/Src/main.o
 .group         0x00000000        0xc Debug/Src/main.o
 .group         0x00000000        0xc Debug/Src/main.o
 .group         0x00000000        0xc Debug/Src/main.o
 .group         0x00000000        0xc Debug/Src/main.o
 .group         0x00000000        0xc Debug/Src/main.o
 .group         0x00000000        0xc Debug/Src/main.o
 .group         0x00000000        0xc Debug/Src/main.o
 .group         0x00000000        0xc Debug/Src/main.o
 .group         0x00000000        0xc Debug/Src/main.o
 .group         0x00000000        0xc Debug/Src/main.o
 .group         0x00000000        0xc Debug/Src/main.o
 .group         0x00000000        0xc Debug/Src/main.o
 .group         0x00000000        0xc Debug/Src/main.o
 .debug_macro   0x00000000      0xc70 Debug/Src/main.o
 .debug_macro   0x00000000      0x1d5 Debug/Src/main.o
 .debug_macro   0x00000000       0x10 Debug/Src/main.o
 .debug_macro   0x00000000       0xcf Debug/Src/main.o
 .debug_macro   0x00000000      0x103 Debug/Src/main.o
 .debug_macro   0x00000000      0x345 Debug/Src/main.o
 .debug_macro   0x00000000       0x22 Debug/Src/main.o
 .debug_macro   0x00000000       0x2a Debug/Src/main.o
 .debug_macro   0x00000000       0x43 Debug/Src/main.o
 .debug_macro   0x00000000       0x34 Debug/Src/main.o
 .debug_macro   0x00000000       0x16 Debug/Src/main.o
 .debug_macro   0x00000000       0x43 Debug/Src/main.o
 .debug_macro   0x00000000       0x34 Debug/Src/main.o
 .debug_macro   0x00000000       0x10 Debug/Src/main.o
 .debug_macro   0x00000000       0x58 Debug/Src/main.o
 .debug_macro   0x00000000       0x8e Debug/Src/main.o
 .debug_macro   0x00000000       0x16 Debug/Src/main.o
 .debug_macro   0x00000000      0x177 Debug/Src/main.o
 .debug_macro   0x00000000       0x3c Debug/Src/main.o
 .debug_macro   0x00000000      0x38c Debug/Src/main.o
 .debug_macro   0x00000000       0x10 Debug/Src/main.o
 .debug_macro   0x00000000       0x33 Debug/Src/main.o
 .debug_macro   0x00000000      0x173 Debug/Src/main.o
 .debug_macro   0x00000000       0x10 Debug/Src/main.o
 .debug_macro   0x00000000       0x19 Debug/Src/main.o
 .debug_macro   0x00000000       0x26 Debug/Src/main.o
 .debug_macro   0x00000000       0x17 Debug/Src/main.o
 .debug_macro   0x00000000       0x10 Debug/Src/main.o
 .debug_macro   0x00000000       0x28 Debug/Src/main.o
 .debug_macro   0x00000000       0x2e Debug/Src/main.o
 .debug_macro   0x00000000       0x11 Debug/Src/main.o
 .debug_macro   0x00000000       0x1c Debug/Src/main.o
 .debug_macro   0x00000000      0x103 Debug/Src/main.o
 .debug_macro   0x00000000       0x6a Debug/Src/main.o
 .debug_macro   0x00000000       0x1c Debug/Src/main.o
 .debug_macro   0x00000000       0x11 Debug/Src/main.o
 .debug_macro   0x00000000       0x18 Debug/Src/main.o
 .debug_macro   0x00000000       0x10 Debug/Src/main.o
 .debug_macro   0x00000000       0x35 Debug/Src/main.o
 .debug_macro   0x00000000       0x5e Debug/Src/main.o
 .debug_macro   0x00000000       0x16 Debug/Src/main.o
 .debug_macro   0x00000000       0x52 Debug/Src/main.o
 .debug_macro   0x00000000       0x5e Debug/Src/main.o
 .debug_macro   0x00000000       0x11 Debug/Src/main.o
 .debug_macro   0x00000000       0x18 Debug/Src/main.o
 .debug_macro   0x00000000       0x11 Debug/Src/main.o
 .debug_macro   0x00000000       0x88 Debug/Src/main.o
 .debug_macro   0x00000000       0x19 Debug/Src/main.o
 .debug_macro   0x00000000       0x11 Debug/Src/main.o
 .debug_macro   0x00000000       0x10 Debug/Src/main.o
 .debug_macro   0x00000000       0x17 Debug/Src/main.o
 .debug_macro   0x00000000       0x10 Debug/Src/main.o
 .debug_macro   0x00000000       0x16 Debug/Src/main.o
 .debug_macro   0x00000000       0x16 Debug/Src/main.o
 .debug_macro   0x00000000       0x29 Debug/Src/main.o
 .debug_macro   0x00000000       0x1c Debug/Src/main.o
 .debug_macro   0x00000000       0xde Debug/Src/main.o
 .debug_macro   0x00000000       0x1c Debug/Src/main.o
 .debug_macro   0x00000000       0x10 Debug/Src/main.o
 .debug_macro   0x00000000       0x16 Debug/Src/main.o
 .debug_macro   0x00000000      0x131 Debug/Src/main.o
 .debug_macro   0x00000000      0x11d Debug/Src/main.o
 .debug_macro   0x00000000       0x10 Debug/Src/main.o
 .debug_macro   0x00000000      0x242 Debug/Src/main.o
 .debug_macro   0x00000000       0x19 Debug/Src/main.o
 .debug_macro   0x00000000       0x18 Debug/Src/main.o
 .debug_macro   0x00000000       0x28 Debug/Src/main.o
 .debug_macro   0x00000000       0x1c Debug/Src/main.o
 .debug_macro   0x00000000       0x22 Debug/Src/main.o
 .debug_macro   0x00000000       0xd9 Debug/Src/main.o
 .debug_macro   0x00000000     0x102d Debug/Src/main.o
 .debug_macro   0x00000000      0x11f Debug/Src/main.o
 .debug_macro   0x00000000     0xb953 Debug/Src/main.o
 .debug_macro   0x00000000       0x1f Debug/Src/main.o
 .debug_macro   0x00000000       0x10 Debug/Src/main.o
 .debug_macro   0x00000000       0x10 Debug/Src/main.o
 .debug_macro   0x00000000       0x11 Debug/Src/main.o
 .debug_macro   0x00000000       0x10 Debug/Src/main.o
 .debug_macro   0x00000000       0x1e Debug/Src/main.o
 .debug_macro   0x00000000       0x33 Debug/Src/main.o
 .debug_macro   0x00000000       0x26 Debug/Src/main.o
 .debug_macro   0x00000000       0x11 Debug/Src/main.o
 .debug_macro   0x00000000       0x11 Debug/Src/main.o
 .debug_macro   0x00000000       0x12 Debug/Src/main.o
 .debug_macro   0x00000000       0x41 Debug/Src/main.o
 .debug_macro   0x00000000       0x10 Debug/Src/main.o
 .group         0x00000000        0xc Debug/Src/syscalls.o
 .group         0x00000000        0xc Debug/Src/syscalls.o
 .group         0x00000000        0xc Debug/Src/syscalls.o
 .group         0x00000000        0xc Debug/Src/syscalls.o
 .group         0x00000000        0xc Debug/Src/syscalls.o
 .group         0x00000000        0xc Debug/Src/syscalls.o
 .group         0x00000000        0xc Debug/Src/syscalls.o
 .group         0x00000000        0xc Debug/Src/syscalls.o
 .group         0x00000000        0xc Debug/Src/syscalls.o
 .group         0x00000000        0xc Debug/Src/syscalls.o
 .group         0x00000000        0xc Debug/Src/syscalls.o
 .group         0x00000000        0xc Debug/Src/syscalls.o
 .group         0x00000000        0xc Debug/Src/syscalls.o
 .group         0x00000000        0xc Debug/Src/syscalls.o
 .group         0x00000000        0xc Debug/Src/syscalls.o
 .group         0x00000000        0xc Debug/Src/syscalls.o
 .group         0x00000000        0xc Debug/Src/syscalls.o
 .group         0x00000000        0xc Debug/Src/syscalls.o
 .group         0x00000000        0xc Debug/Src/syscalls.o
 .group         0x00000000        0xc Debug/Src/syscalls.o
 .group         0x00000000        0xc Debug/Src/syscalls.o
 .group         0x00000000        0xc Debug/Src/syscalls.o
 .group         0x00000000        0xc Debug/Src/syscalls.o
 .group         0x00000000        0xc Debug/Src/syscalls.o
 .group         0x00000000        0xc Debug/Src/syscalls.o
 .group         0x00000000        0xc Debug/Src/syscalls.o
 .group         0x00000000        0xc Debug/Src/syscalls.o
 .group         0x00000000        0xc Debug/Src/syscalls.o
 .group         0x00000000        0xc Debug/Src/syscalls.o
 .group         0x00000000        0xc Debug/Src/syscalls.o
 .group         0x00000000        0xc Debug/Src/syscalls.o
 .group         0x00000000        0xc Debug/Src/syscalls.o
 .group         0x00000000        0xc Debug/Src/syscalls.o
 .group         0x00000000        0xc Debug/Src/syscalls.o
 .group         0x00000000        0xc Debug/Src/syscalls.o
 .group         0x00000000        0xc Debug/Src/syscalls.o
 .group         0x00000000        0xc Debug/Src/syscalls.o
 .group         0x00000000        0xc Debug/Src/syscalls.o
 .group         0x00000000        0xc Debug/Src/syscalls.o
 .group         0x00000000        0xc Debug/Src/syscalls.o
 .group         0x00000000        0xc Debug/Src/syscalls.o
 .group         0x00000000        0xc Debug/Src/syscalls.o
 .group         0x00000000        0xc Debug/Src/syscalls.o
 .group         0x00000000        0xc Debug/Src/syscalls.o
 .group         0x00000000        0xc Debug/Src/syscalls.o
 .group         0x00000000        0xc Debug/Src/syscalls.o
 .group         0x00000000        0xc Debug/Src/syscalls.o
 .group         0x00000000        0xc Debug/Src/syscalls.o
 .group         0x00000000        0xc Debug/Src/syscalls.o
 .debug_macro   0x00000000       0x22 Debug/Src/syscalls.o
 .debug_macro   0x00000000       0x5b Debug/Src/syscalls.o
 .debug_macro   0x00000000       0x2a Debug/Src/syscalls.o
 .debug_macro   0x00000000       0x94 Debug/Src/syscalls.o
 .debug_macro   0x00000000       0x43 Debug/Src/syscalls.o
 .debug_macro   0x00000000       0x57 Debug/Src/syscalls.o
 .debug_macro   0x00000000       0x16 Debug/Src/syscalls.o
 .debug_macro   0x00000000       0x34 Debug/Src/syscalls.o
 .debug_macro   0x00000000       0x10 Debug/Src/syscalls.o
 .debug_macro   0x00000000       0x58 Debug/Src/syscalls.o
 .debug_macro   0x00000000       0x8e Debug/Src/syscalls.o
 .debug_macro   0x00000000      0x177 Debug/Src/syscalls.o
 .debug_macro   0x00000000       0x6a Debug/Src/syscalls.o
 .debug_macro   0x00000000       0x16 Debug/Src/syscalls.o
 .debug_macro   0x00000000       0x16 Debug/Src/syscalls.o
 .debug_macro   0x00000000       0x29 Debug/Src/syscalls.o
 .debug_macro   0x00000000       0x10 Debug/Src/syscalls.o
 .debug_macro   0x00000000      0x242 Debug/Src/syscalls.o
 .debug_macro   0x00000000       0x1c Debug/Src/syscalls.o
 .debug_macro   0x00000000       0x10 Debug/Src/syscalls.o
 .debug_macro   0x00000000       0x16 Debug/Src/syscalls.o
 .debug_macro   0x00000000      0x103 Debug/Src/syscalls.o
 .debug_macro   0x00000000      0x1df Debug/Src/syscalls.o
 .group         0x00000000        0xc Debug/Src/sysmem.o
 .group         0x00000000        0xc Debug/Src/sysmem.o
 .group         0x00000000        0xc Debug/Src/sysmem.o
 .group         0x00000000        0xc Debug/Src/sysmem.o
 .group         0x00000000        0xc Debug/Src/sysmem.o
 .group         0x00000000        0xc Debug/Src/sysmem.o
 .group         0x00000000        0xc Debug/Src/sysmem.o
 .group         0x00000000        0xc Debug/Src/sysmem.o
 .group         0x00000000        0xc Debug/Src/sysmem.o
 .group         0x00000000        0xc Debug/Src/sysmem.o
 .group         0x00000000        0xc Debug/Src/sysmem.o
 .group         0x00000000        0xc Debug/Src/sysmem.o
 .group         0x00000000        0xc Debug/Src/sysmem.o
 .group         0x00000000        0xc Debug/Src/sysmem.o
 .group         0x00000000        0xc Debug/Src/sysmem.o
 .group         0x00000000        0xc Debug/Src/sysmem.o
 .group         0x00000000        0xc Debug/Src/sysmem.o
 .group         0x00000000        0xc Debug/Src/sysmem.o
 .group         0x00000000        0xc Debug/Src/sysmem.o
 .group         0x00000000        0xc Debug/Src/sysmem.o
 .group         0x00000000        0xc Debug/Src/sysmem.o
 .group         0x00000000        0xc Debug/Src/sysmem.o
 .debug_macro   0x00000000      0xac0 Debug/Src/sysmem.o
 .debug_macro   0x00000000       0x10 Debug/Src/sysmem.o
 .debug_macro   0x00000000       0x22 Debug/Src/sysmem.o
 .debug_macro   0x00000000       0x5b Debug/Src/sysmem.o
 .debug_macro   0x00000000       0x2a Debug/Src/sysmem.o
 .debug_macro   0x00000000       0x94 Debug/Src/sysmem.o
 .debug_macro   0x00000000       0x43 Debug/Src/sysmem.o
 .debug_macro   0x00000000       0x34 Debug/Src/sysmem.o
 .debug_macro   0x00000000      0x189 Debug/Src/sysmem.o
 .debug_macro   0x00000000       0x16 Debug/Src/sysmem.o
 .debug_macro   0x00000000       0x43 Debug/Src/sysmem.o
 .debug_macro   0x00000000       0x57 Debug/Src/sysmem.o
 .debug_macro   0x00000000       0x34 Debug/Src/sysmem.o
 .debug_macro   0x00000000       0x10 Debug/Src/sysmem.o
 .debug_macro   0x00000000       0x58 Debug/Src/sysmem.o
 .debug_macro   0x00000000       0x8e Debug/Src/sysmem.o
 .debug_macro   0x00000000       0x1c Debug/Src/sysmem.o
 .debug_macro   0x00000000      0x177 Debug/Src/sysmem.o
 .debug_macro   0x00000000      0x103 Debug/Src/sysmem.o
 .debug_macro   0x00000000       0x6a Debug/Src/sysmem.o
 .debug_macro   0x00000000      0x1df Debug/Src/sysmem.o

Memory Configuration

Name             Origin             Length             Attributes
RAM              0x20000000         0x00020000         xrw
FLASH            0x08000000         0x00080000         xr
*default*        0x00000000         0xffffffff

Linker script and memory map

LOAD /usr/bin/../lib/gcc/arm-none-eabi/12.2.1/thumb/v7e-m+fp/hard/crti.o
LOAD /usr/bin/../lib/gcc/arm-none-eabi/12.2.1/thumb/v7e-m+fp/hard/crtbegin.o
LOAD /usr/bin/../lib/gcc/arm-none-eabi/12.2.1/../../../../arm-none-eabi/lib/thumb/v7e-m+fp/hard/crt0.o
LOAD Debug/Drivers/USART/USART.o
LOAD Debug/Drivers/RCC/RCC.o
LOAD Debug/Drivers/RCC/PeripheralClocks.o
LOAD Debug/Drivers/GPIO/IOPin.o
LOAD Debug/Src/main.o
LOAD Debug/Src/syscalls.o
LOAD Debug/Src/sysmem.o
LOAD Debug/Startup/startup_stm32f411retx.o
START GROUP
LOAD /usr/bin/../lib/gcc/arm-none-eabi/12.2.1/../../../../arm-none-eabi/lib/thumb/v7e-m+fp/hard/libstdc++_nano.a
LOAD /usr/bin/../lib/gcc/arm-none-eabi/12.2.1/../../../../arm-none-eabi/lib/thumb/v7e-m+fp/hard/libsupc++_nano.a
END GROUP
LOAD /usr/bin/../lib/gcc/arm-none-eabi/12.2.1/../../../../arm-none-eabi/lib/thumb/v7e-m+fp/hard/libstdc++_nano.a
LOAD /usr/bin/../lib/gcc/arm-none-eabi/12.2.1/../../../../arm-none-eabi/lib/thumb/v7e-m+fp/hard/libm.a
LOAD /usr/bin/../lib/gcc/arm-none-eabi/12.2.1/../../../../arm-none-eabi/lib/thumb/v7e-m+fp/hard/libc_nano.a
START GROUP
LOAD /usr/bin/../lib/gcc/arm-none-eabi/12.2.1/thumb/v7e-m+fp/hard/libgcc.a
LOAD /usr/bin/../lib/gcc/arm-none-eabi/12.2.1/../../../../arm-none-eabi/lib/thumb/v7e-m+fp/hard/libc_nano.a
END GROUP
START GROUP
LOAD /usr/bin/../lib/gcc/arm-none-eabi/12.2.1/thumb/v7e-m+fp/hard/libgcc.a
LOAD /usr/bin/../lib/gcc/arm-none-eabi/12.2.1/../../../../arm-none-eabi/lib/thumb/v7e-m+fp/hard/libc_nano.a
END GROUP
LOAD /usr/bin/../lib/gcc/arm-none-eabi/12.2.1/thumb/v7e-m+fp/hard/crtend.o
LOAD /usr/bin/../lib/gcc/arm-none-eabi/12.2.1/thumb/v7e-m+fp/hard/crtn.o
                0x20020000                        _estack = (ORIGIN (RAM) + LENGTH (RAM))
                0x00000200                        _Min_Heap_Size = 0x200
                0x00000400                        _Min_Stack_Size = 0x400

.isr_vector     0x08000000      0x198
                0x08000000                        . = ALIGN (0x4)
 *(.isr_vector)
 .isr_vector    0x08000000      0x198 Debug/Startup/startup_stm32f411retx.o
                0x08000000                g_pfnVectors
                0x08000198                        . = ALIGN (0x4)

.text           0x08000198     0x3a08
                0x08000198                        . = ALIGN (0x4)
 *(.text)
 .text          0x08000198        0x0 /usr/bin/../lib/gcc/arm-none-eabi/12.2.1/thumb/v7e-m+fp/hard/crti.o
 .text          0x08000198        0x0 /usr/bin/../lib/gcc/arm-none-eabi/12.2.1/thumb/v7e-m+fp/hard/crtbegin.o
 .text          0x08000198       0x7c /usr/bin/../lib/gcc/arm-none-eabi/12.2.1/../../../../arm-none-eabi/lib/thumb/v7e-m+fp/hard/crt0.o
                0x08000198                _stack_init
                0x080001a0                _mainCRTStartup
                0x080001a0                _start
 .text          0x08000214        0x0 Debug/Drivers/USART/USART.o
 .text          0x08000214        0x0 Debug/Drivers/RCC/RCC.o
 .text          0x08000214        0x0 Debug/Drivers/RCC/PeripheralClocks.o
 .text          0x08000214        0x0 Debug/Drivers/GPIO/IOPin.o
 .text          0x08000214        0x0 Debug/Src/main.o
 .text          0x08000214        0x0 Debug/Src/syscalls.o
 .text          0x08000214        0x0 Debug/Src/sysmem.o
 .text          0x08000214       0x14 Debug/Startup/startup_stm32f411retx.o
 .text          0x08000228        0x0 /usr/bin/../lib/gcc/arm-none-eabi/12.2.1/../../../../arm-none-eabi/lib/thumb/v7e-m+fp/hard/libstdc++_nano.a(del_ops.o)
 .text          0x08000228        0x0 /usr/bin/../lib/gcc/arm-none-eabi/12.2.1/../../../../arm-none-eabi/lib/thumb/v7e-m+fp/hard/libstdc++_nano.a(eh_arm.o)
 .text          0x08000228        0x0 /usr/bin/../lib/gcc/arm-none-eabi/12.2.1/../../../../arm-none-eabi/lib/thumb/v7e-m+fp/hard/libstdc++_nano.a(eh_exception.o)
 .text          0x08000228        0x0 /usr/bin/../lib/gcc/arm-none-eabi/12.2.1/../../../../arm-none-eabi/lib/thumb/v7e-m+fp/hard/libstdc++_nano.a(eh_globals.o)
 .text          0x08000228        0x0 /usr/bin/../lib/gcc/arm-none-eabi/12.2.1/../../../../arm-none-eabi/lib/thumb/v7e-m+fp/hard/libstdc++_nano.a(eh_personality.o)
 .text          0x08000228        0x0 /usr/bin/../lib/gcc/arm-none-eabi/12.2.1/../../../../arm-none-eabi/lib/thumb/v7e-m+fp/hard/libstdc++_nano.a(eh_terminate.o)
 .text          0x08000228        0x0 /usr/bin/../lib/gcc/arm-none-eabi/12.2.1/../../../../arm-none-eabi/lib/thumb/v7e-m+fp/hard/libstdc++_nano.a(eh_unex_handler.o)
 .text          0x08000228        0x0 /usr/bin/../lib/gcc/arm-none-eabi/12.2.1/../../../../arm-none-eabi/lib/thumb/v7e-m+fp/hard/libstdc++_nano.a(new_op.o)
 .text          0x08000228        0x0 /usr/bin/../lib/gcc/arm-none-eabi/12.2.1/../../../../arm-none-eabi/lib/thumb/v7e-m+fp/hard/libstdc++_nano.a(si_class_type_info.o)
 .text          0x08000228        0x0 /usr/bin/../lib/gcc/arm-none-eabi/12.2.1/../../../../arm-none-eabi/lib/thumb/v7e-m+fp/hard/libstdc++_nano.a(tinfo.o)
 .text          0x08000228        0x0 /usr/bin/../lib/gcc/arm-none-eabi/12.2.1/../../../../arm-none-eabi/lib/thumb/v7e-m+fp/hard/libstdc++_nano.a(atexit_arm.o)
 .text          0x08000228        0x0 /usr/bin/../lib/gcc/arm-none-eabi/12.2.1/../../../../arm-none-eabi/lib/thumb/v7e-m+fp/hard/libstdc++_nano.a(class_type_info.o)
 .text          0x08000228        0x0 /usr/bin/../lib/gcc/arm-none-eabi/12.2.1/../../../../arm-none-eabi/lib/thumb/v7e-m+fp/hard/libstdc++_nano.a(del_op.o)
 .text          0x08000228        0x0 /usr/bin/../lib/gcc/arm-none-eabi/12.2.1/../../../../arm-none-eabi/lib/thumb/v7e-m+fp/hard/libstdc++_nano.a(eh_call.o)
 .text          0x08000228        0x0 /usr/bin/../lib/gcc/arm-none-eabi/12.2.1/../../../../arm-none-eabi/lib/thumb/v7e-m+fp/hard/libstdc++_nano.a(eh_catch.o)
 .text          0x08000228        0x0 /usr/bin/../lib/gcc/arm-none-eabi/12.2.1/../../../../arm-none-eabi/lib/thumb/v7e-m+fp/hard/libstdc++_nano.a(eh_term_handler.o)
 .text          0x08000228        0x0 /usr/bin/../lib/gcc/arm-none-eabi/12.2.1/../../../../arm-none-eabi/lib/thumb/v7e-m+fp/hard/libstdc++_nano.a(new_handler.o)
 .text          0x08000228        0x0 /usr/bin/../lib/gcc/arm-none-eabi/12.2.1/../../../../arm-none-eabi/lib/thumb/v7e-m+fp/hard/libc_nano.a(libc_a-exit.o)
 .text          0x08000228        0x0 /usr/bin/../lib/gcc/arm-none-eabi/12.2.1/../../../../arm-none-eabi/lib/thumb/v7e-m+fp/hard/libc_nano.a(libc_a-init.o)
 .text          0x08000228       0x14 /usr/bin/../lib/gcc/arm-none-eabi/12.2.1/../../../../arm-none-eabi/lib/thumb/v7e-m+fp/hard/libc_nano.a(libc_a-strcmp.o)
                0x08000228                strcmp
 .text          0x0800023c        0x0 /usr/bin/../lib/gcc/arm-none-eabi/12.2.1/../../../../arm-none-eabi/lib/thumb/v7e-m+fp/hard/libc_nano.a(libc_a-malloc.o)
 .text          0x0800023c        0x0 /usr/bin/../lib/gcc/arm-none-eabi/12.2.1/../../../../arm-none-eabi/lib/thumb/v7e-m+fp/hard/libc_nano.a(libc_a-mallocr.o)
 .text          0x0800023c        0x0 /usr/bin/../lib/gcc/arm-none-eabi/12.2.1/../../../../arm-none-eabi/lib/thumb/v7e-m+fp/hard/libc_nano.a(libc_a-abort.o)
 .text          0x0800023c        0x0 /usr/bin/../lib/gcc/arm-none-eabi/12.2.1/../../../../arm-none-eabi/lib/thumb/v7e-m+fp/hard/libc_nano.a(libc_a-cxa_atexit.o)
 .text          0x0800023c        0x0 /usr/bin/../lib/gcc/arm-none-eabi/12.2.1/../../../../arm-none-eabi/lib/thumb/v7e-m+fp/hard/libc_nano.a(libc_a-findfp.o)
 .text          0x0800023c        0x0 /usr/bin/../lib/gcc/arm-none-eabi/12.2.1/../../../../arm-none-eabi/lib/thumb/v7e-m+fp/hard/libc_nano.a(libc_a-stdio.o)
 .text          0x0800023c        0x0 /usr/bin/../lib/gcc/arm-none-eabi/12.2.1/../../../../arm-none-eabi/lib/thumb/v7e-m+fp/hard/libc_nano.a(libc_a-mlock.o)
 .text          0x0800023c        0x0 /usr/bin/../lib/gcc/arm-none-eabi/12.2.1/../../../../arm-none-eabi/lib/thumb/v7e-m+fp/hard/libc_nano.a(libc_a-on_exit_args.o)
 .text          0x0800023c        0x0 /usr/bin/../lib/gcc/arm-none-eabi/12.2.1/../../../../arm-none-eabi/lib/thumb/v7e-m+fp/hard/libc_nano.a(libc_a-sbrkr.o)
 .text          0x0800023c        0x0 /usr/bin/../lib/gcc/arm-none-eabi/12.2.1/../../../../arm-none-eabi/lib/thumb/v7e-m+fp/hard/libc_nano.a(libc_a-writer.o)
 .text          0x0800023c        0x0 /usr/bin/../lib/gcc/arm-none-eabi/12.2.1/../../../../arm-none-eabi/lib/thumb/v7e-m+fp/hard/libc_nano.a(libc_a-errno.o)
 .text          0x0800023c        0x0 /usr/bin/../lib/gcc/arm-none-eabi/12.2.1/../../../../arm-none-eabi/lib/thumb/v7e-m+fp/hard/libc_nano.a(libc_a-fwalk.o)
 .text          0x0800023c        0x0 /usr/bin/../lib/gcc/arm-none-eabi/12.2.1/../../../../arm-none-eabi/lib/thumb/v7e-m+fp/hard/libc_nano.a(libc_a-memset.o)
 .text          0x0800023c        0x0 /usr/bin/../lib/gcc/arm-none-eabi/12.2.1/../../../../arm-none-eabi/lib/thumb/v7e-m+fp/hard/libc_nano.a(libc_a-freer.o)
 .text          0x0800023c        0x0 /usr/bin/../lib/gcc/arm-none-eabi/12.2.1/../../../../arm-none-eabi/lib/thumb/v7e-m+fp/hard/libc_nano.a(libc_a-lock.o)
 .text          0x0800023c        0x0 /usr/bin/../lib/gcc/arm-none-eabi/12.2.1/../../../../arm-none-eabi/lib/thumb/v7e-m+fp/hard/libc_nano.a(libc_a-closer.o)
 .text          0x0800023c        0x0 /usr/bin/../lib/gcc/arm-none-eabi/12.2.1/../../../../arm-none-eabi/lib/thumb/v7e-m+fp/hard/libc_nano.a(libc_a-reent.o)
 .text          0x0800023c        0x0 /usr/bin/../lib/gcc/arm-none-eabi/12.2.1/../../../../arm-none-eabi/lib/thumb/v7e-m+fp/hard/libc_nano.a(libc_a-impure.o)
 .text          0x0800023c        0x0 /usr/bin/../lib/gcc/arm-none-eabi/12.2.1/../../../../arm-none-eabi/lib/thumb/v7e-m+fp/hard/libc_nano.a(libc_a-fflush.o)
 .text          0x0800023c        0x0 /usr/bin/../lib/gcc/arm-none-eabi/12.2.1/../../../../arm-none-eabi/lib/thumb/v7e-m+fp/hard/libc_nano.a(libc_a-signal.o)
 .text          0x0800023c        0x0 /usr/bin/../lib/gcc/arm-none-eabi/12.2.1/../../../../arm-none-eabi/lib/thumb/v7e-m+fp/hard/libc_nano.a(libc_a-lseekr.o)
 .text          0x0800023c        0x0 /usr/bin/../lib/gcc/arm-none-eabi/12.2.1/../../../../arm-none-eabi/lib/thumb/v7e-m+fp/hard/libc_nano.a(libc_a-readr.o)
 .text          0x0800023c        0x0 /usr/bin/../lib/gcc/arm-none-eabi/12.2.1/../../../../arm-none-eabi/lib/thumb/v7e-m+fp/hard/libc_nano.a(libc_a-signalr.o)
 .text          0x0800023c        0x0 /usr/bin/../lib/gcc/arm-none-eabi/12.2.1/thumb/v7e-m+fp/hard/libgcc.a(unwind-arm.o)
 .text          0x0800023c      0x1ac /usr/bin/../lib/gcc/arm-none-eabi/12.2.1/thumb/v7e-m+fp/hard/libgcc.a(libunwind.o)
                0x0800023c                __restore_core_regs
                0x0800023c                restore_core_regs
                0x08000254                __gnu_Unwind_Restore_VFP
                0x0800025c                __gnu_Unwind_Save_VFP
                0x08000264                __gnu_Unwind_Restore_VFP_D
                0x0800026c                __gnu_Unwind_Save_VFP_D
                0x08000274                __gnu_Unwind_Restore_VFP_D_16_to_31
                0x0800027c                __gnu_Unwind_Save_VFP_D_16_to_31
                0x08000284                __gnu_Unwind_Restore_WMMXD
                0x080002c8                __gnu_Unwind_Save_WMMXD
                0x0800030c                __gnu_Unwind_Restore_WMMXC
                0x08000320                __gnu_Unwind_Save_WMMXC
                0x08000334                ___Unwind_RaiseException
                0x08000334                _Unwind_RaiseException
                0x08000358                ___Unwind_Resume
                0x08000358                _Unwind_Resume
                0x0800037c                _Unwind_Resume_or_Rethrow
                0x0800037c                ___Unwind_Resume_or_Rethrow
                0x080003a0                ___Unwind_ForcedUnwind
                0x080003a0                _Unwind_ForcedUnwind
                0x080003c4                _Unwind_Backtrace
                0x080003c4                ___Unwind_Backtrace
 .text          0x080003e8        0x0 /usr/bin/../lib/gcc/arm-none-eabi/12.2.1/thumb/v7e-m+fp/hard/libgcc.a(pr-support.o)
 .text          0x080003e8        0x0 /usr/bin/../lib/gcc/arm-none-eabi/12.2.1/../../../../arm-none-eabi/lib/thumb/v7e-m+fp/hard/libc_nano.a(libc_a-memcpy-stub.o)
 .text          0x080003e8        0x0 /usr/bin/../lib/gcc/arm-none-eabi/12.2.1/thumb/v7e-m+fp/hard/crtend.o
 .text          0x080003e8        0x0 /usr/bin/../lib/gcc/arm-none-eabi/12.2.1/thumb/v7e-m+fp/hard/crtn.o
 *(.text*)
 .text.deregister_tm_clones
                0x080003e8       0x1c /usr/bin/../lib/gcc/arm-none-eabi/12.2.1/thumb/v7e-m+fp/hard/crtbegin.o
 .text.register_tm_clones
                0x08000404       0x24 /usr/bin/../lib/gcc/arm-none-eabi/12.2.1/thumb/v7e-m+fp/hard/crtbegin.o
 .text.__do_global_dtors_aux
                0x08000428       0x28 /usr/bin/../lib/gcc/arm-none-eabi/12.2.1/thumb/v7e-m+fp/hard/crtbegin.o
 .text.frame_dummy
                0x08000450       0x24 /usr/bin/../lib/gcc/arm-none-eabi/12.2.1/thumb/v7e-m+fp/hard/crtbegin.o
 .text._ZN5IOPin10configPortERK8GpioPortP14PeripheralBaseI16IOPinStatusCodesLj1E9ContainerI15IOPinPropertiesJS0_7GpioPin8GpioMode9GpioStateEEJEE
                0x08000474       0x18 Debug/Drivers/GPIO/IOPin.o
                0x08000474                IOPin::configPort(GpioPort const&, PeripheralBase<IOPinStatusCodes, 1u, Container<IOPinProperties, GpioPort, GpioPin, GpioMode, GpioState>>*)
 .text._ZN5IOPin9configPinERK7GpioPinP14PeripheralBaseI16IOPinStatusCodesLj1E9ContainerI15IOPinPropertiesJ8GpioPortS0_8GpioMode9GpioStateEEJEE
                0x0800048c       0x2c Debug/Drivers/GPIO/IOPin.o
                0x0800048c                IOPin::configPin(GpioPin const&, PeripheralBase<IOPinStatusCodes, 1u, Container<IOPinProperties, GpioPort, GpioPin, GpioMode, GpioState>>*)
 .text._ZN5IOPin10configModeERK8GpioModeP14PeripheralBaseI16IOPinStatusCodesLj1E9ContainerI15IOPinPropertiesJ8GpioPort7GpioPinS0_9GpioStateEEJEE
                0x080004b8       0x2c Debug/Drivers/GPIO/IOPin.o
                0x080004b8                IOPin::configMode(GpioMode const&, PeripheralBase<IOPinStatusCodes, 1u, Container<IOPinProperties, GpioPort, GpioPin, GpioMode, GpioState>>*)
 .text._ZN5IOPin11configStateERK9GpioStateP14PeripheralBaseI16IOPinStatusCodesLj1E9ContainerI15IOPinPropertiesJ8GpioPort7GpioPin8GpioModeS0_EEJEE
                0x080004e4       0x2c Debug/Drivers/GPIO/IOPin.o
                0x080004e4                IOPin::configState(GpioState const&, PeripheralBase<IOPinStatusCodes, 1u, Container<IOPinProperties, GpioPort, GpioPin, GpioMode, GpioState>>*)
 .text._ZN5IOPinC2Ev
                0x08000510       0x80 Debug/Drivers/GPIO/IOPin.o
                0x08000510                IOPin::IOPin()
                0x08000510                IOPin::IOPin()
 .text._ZN5IOPinC2ERKS_
                0x08000590       0x1a Debug/Drivers/GPIO/IOPin.o
                0x08000590                IOPin::IOPin(IOPin const&)
                0x08000590                IOPin::IOPin(IOPin const&)
 .text._ZN5IOPinC2ERKS_RK7GpioPin
                0x080005aa       0x1c Debug/Drivers/GPIO/IOPin.o
                0x080005aa                IOPin::IOPin(IOPin const&, GpioPin const&)
                0x080005aa                IOPin::IOPin(IOPin const&, GpioPin const&)
 .text._ZN5IOPinC2ERKS_RK8GpioPort
                0x080005c6       0x1c Debug/Drivers/GPIO/IOPin.o
                0x080005c6                IOPin::IOPin(IOPin const&, GpioPort const&)
                0x080005c6                IOPin::IOPin(IOPin const&, GpioPort const&)
 .text._ZN5IOPinC2EOS_
                0x080005e2       0x1a Debug/Drivers/GPIO/IOPin.o
                0x080005e2                IOPin::IOPin(IOPin&&)
                0x080005e2                IOPin::IOPin(IOPin&&)
 .text._ZN5IOPinaSERKS_
                0x080005fc       0x18 Debug/Drivers/GPIO/IOPin.o
                0x080005fc                IOPin::operator=(IOPin const&)
 .text._ZN5IOPinaSEOS_
                0x08000614       0x18 Debug/Drivers/GPIO/IOPin.o
                0x08000614                IOPin::operator=(IOPin&&)
 .text._ZN5IOPinD2Ev
                0x0800062c       0x24 Debug/Drivers/GPIO/IOPin.o
                0x0800062c                IOPin::~IOPin()
                0x0800062c                IOPin::~IOPin()
 .text._ZN5IOPinD0Ev
                0x08000650       0x20 Debug/Drivers/GPIO/IOPin.o
                0x08000650                IOPin::~IOPin()
 .text._ZN5IOPin7setPortERK8GpioPort
                0x08000670       0x18 Debug/Drivers/GPIO/IOPin.o
                0x08000670                IOPin::setPort(GpioPort const&)
 .text._ZN5IOPin6setPinERK7GpioPin
                0x08000688       0x18 Debug/Drivers/GPIO/IOPin.o
                0x08000688                IOPin::setPin(GpioPin const&)
 .text._ZN5IOPin7setModeERK8GpioMode
                0x080006a0       0x18 Debug/Drivers/GPIO/IOPin.o
                0x080006a0                IOPin::setMode(GpioMode const&)
 .text._ZN5IOPin7setPUPDERK8GpioPUPD
                0x080006b8       0x18 Debug/Drivers/GPIO/IOPin.o
                0x080006b8                IOPin::setPUPD(GpioPUPD const&)
 .text._ZN5IOPin13setOutputTypeERK14GpioOutputType
                0x080006d0       0x18 Debug/Drivers/GPIO/IOPin.o
                0x080006d0                IOPin::setOutputType(GpioOutputType const&)
 .text._ZN5IOPin14setOutputSpeedERK15GpioOutputSpeed
                0x080006e8       0x18 Debug/Drivers/GPIO/IOPin.o
                0x080006e8                IOPin::setOutputSpeed(GpioOutputSpeed const&)
 .text._ZN5IOPin12setInputModeEv
                0x08000700       0x16 Debug/Drivers/GPIO/IOPin.o
                0x08000700                IOPin::setInputMode()
 .text._ZN5IOPin13setOutputModeEv
                0x08000716       0x16 Debug/Drivers/GPIO/IOPin.o
                0x08000716                IOPin::setOutputMode()
 .text._ZN5IOPin9setPullupEv
                0x0800072c       0x16 Debug/Drivers/GPIO/IOPin.o
                0x0800072c                IOPin::setPullup()
 .text._ZN5IOPin11setPulldownEv
                0x08000742       0x16 Debug/Drivers/GPIO/IOPin.o
                0x08000742                IOPin::setPulldown()
 .text._ZN5IOPin21setPullPushOutputTypeEv
                0x08000758       0x16 Debug/Drivers/GPIO/IOPin.o
                0x08000758                IOPin::setPullPushOutputType()
 .text._ZN5IOPin22setOpenDrainOutputTypeEv
                0x0800076e       0x16 Debug/Drivers/GPIO/IOPin.o
                0x0800076e                IOPin::setOpenDrainOutputType()
 .text._ZN5IOPin4readEv
                0x08000784       0x16 Debug/Drivers/GPIO/IOPin.o
                0x08000784                IOPin::read()
 .text._ZN5IOPin5writeERKb
                0x0800079a       0x18 Debug/Drivers/GPIO/IOPin.o
                0x0800079a                IOPin::write(bool const&)
 .text._ZN5IOPin6toggleEv
                0x080007b2       0x16 Debug/Drivers/GPIO/IOPin.o
                0x080007b2                IOPin::toggle()
 .text._ZN5IOPin5resetERKb
                0x080007c8       0x18 Debug/Drivers/GPIO/IOPin.o
                0x080007c8                IOPin::reset(bool const&)
 .text._ZN5IOPin7isReadyEv
                0x080007e0       0x16 Debug/Drivers/GPIO/IOPin.o
                0x080007e0                IOPin::isReady()
 .text._ZN5IOPin11isAllocatedERK8GpioPortRK7GpioPin
                0x080007f6       0x18 Debug/Drivers/GPIO/IOPin.o
                0x080007f6                IOPin::isAllocated(GpioPort const&, GpioPin const&)
 .text._ZN5IOPin11isAllocatedEPK12GPIO_TypeDefRK7GpioPin
                0x0800080e       0x18 Debug/Drivers/GPIO/IOPin.o
                0x0800080e                IOPin::isAllocated(GPIO_TypeDef const*, GpioPin const&)
 .text._ZN5IOPin8isPinSetEv
                0x08000826       0x16 Debug/Drivers/GPIO/IOPin.o
                0x08000826                IOPin::isPinSet()
 .text._ZN5IOPin9isPortSetEv
                0x0800083c       0x16 Debug/Drivers/GPIO/IOPin.o
                0x0800083c                IOPin::isPortSet()
 .text._ZN5IOPin14isReallocatingERK7GpioPin
                0x08000852       0x18 Debug/Drivers/GPIO/IOPin.o
                0x08000852                IOPin::isReallocating(GpioPin const&)
 .text._ZN5IOPin14isReallocatingERK8GpioPort
                0x0800086a       0x18 Debug/Drivers/GPIO/IOPin.o
                0x0800086a                IOPin::isReallocating(GpioPort const&)
 .text._ZN5IOPin18getGPIOPtrInstanceERK8GpioPort
                0x08000882       0x18 Debug/Drivers/GPIO/IOPin.o
                0x08000882                IOPin::getGPIOPtrInstance(GpioPort const&)
 .text._ZN5IOPin21getPortFromGPIOStructEPK12GPIO_TypeDef
                0x0800089a       0x16 Debug/Drivers/GPIO/IOPin.o
                0x0800089a                IOPin::getPortFromGPIOStruct(GPIO_TypeDef const*)
 .text._ZN5IOPin11allocatePinEv
                0x080008b0       0x14 Debug/Drivers/GPIO/IOPin.o
                0x080008b0                IOPin::allocatePin()
 .text._ZN5IOPin13deAllocatePinEv
                0x080008c4       0x14 Debug/Drivers/GPIO/IOPin.o
                0x080008c4                IOPin::deAllocatePin()
 .text._ZN5IOPin4initEv
                0x080008d8       0x16 Debug/Drivers/GPIO/IOPin.o
                0x080008d8                IOPin::init()
 .text._ZN5IOPin14setInstancePtrEv
                0x080008ee       0x14 Debug/Drivers/GPIO/IOPin.o
                0x080008ee                IOPin::setInstancePtr()
 .text._ZN5IOPin18setDefaultSettingsEv
                0x08000902       0x14 Debug/Drivers/GPIO/IOPin.o
                0x08000902                IOPin::setDefaultSettings()
 .text._ZN5IOPin7preInitEv
                0x08000916       0x16 Debug/Drivers/GPIO/IOPin.o
                0x08000916                IOPin::preInit()
 .text._ZN9ContainerI15IOPinPropertiesJPF16IOPinStatusCodesRK8GpioPortP14PeripheralBaseIS1_Lj1ES_IS0_JS2_7GpioPin8GpioMode9GpioStateEEJEEEPFS1_RKS6_SB_EPFS1_RKS7_SB_EPFS1_RKS8_SB_EEEC2EOSD_OSH_OSL_OSP_
                0x0800092c       0x58 Debug/Drivers/GPIO/IOPin.o
                0x0800092c                Container<IOPinProperties, IOPinStatusCodes (*)(GpioPort const&, PeripheralBase<IOPinStatusCodes, 1u, Container<IOPinProperties, GpioPort, GpioPin, GpioMode, GpioState>>*), IOPinStatusCodes (*)(GpioPin const&, PeripheralBase<IOPinStatusCodes, 1u, Container<IOPinProperties, GpioPort, GpioPin, GpioMode, GpioState>>*), IOPinStatusCodes (*)(GpioMode const&, PeripheralBase<IOPinStatusCodes, 1u, Container<IOPinProperties, GpioPort, GpioPin, GpioMode, GpioState>>*), IOPinStatusCodes (*)(GpioState const&, PeripheralBase<IOPinStatusCodes, 1u, Container<IOPinProperties, GpioPort, GpioPin, GpioMode, GpioState>>*)>::Container(IOPinStatusCodes (*&&)(GpioPort const&, PeripheralBase<IOPinStatusCodes, 1u, Container<IOPinProperties, GpioPort, GpioPin, GpioMode, GpioState>>*), IOPinStatusCodes (*&&)(GpioPin const&, PeripheralBase<IOPinStatusCodes, 1u, Container<IOPinProperties, GpioPort, GpioPin, GpioMode, GpioState>>*), IOPinStatusCodes (*&&)(GpioMode const&, PeripheralBase<IOPinStatusCodes, 1u, Container<IOPinProperties, GpioPort, GpioPin, GpioMode, GpioState>>*), IOPinStatusCodes (*&&)(GpioState const&, PeripheralBase<IOPinStatusCodes, 1u, Container<IOPinProperties, GpioPort, GpioPin, GpioMode, GpioState>>*))
                0x0800092c                Container<IOPinProperties, IOPinStatusCodes (*)(GpioPort const&, PeripheralBase<IOPinStatusCodes, 1u, Container<IOPinProperties, GpioPort, GpioPin, GpioMode, GpioState>>*), IOPinStatusCodes (*)(GpioPin const&, PeripheralBase<IOPinStatusCodes, 1u, Container<IOPinProperties, GpioPort, GpioPin, GpioMode, GpioState>>*), IOPinStatusCodes (*)(GpioMode const&, PeripheralBase<IOPinStatusCodes, 1u, Container<IOPinProperties, GpioPort, GpioPin, GpioMode, GpioState>>*), IOPinStatusCodes (*)(GpioState const&, PeripheralBase<IOPinStatusCodes, 1u, Container<IOPinProperties, GpioPort, GpioPin, GpioMode, GpioState>>*)>::Container(IOPinStatusCodes (*&&)(GpioPort const&, PeripheralBase<IOPinStatusCodes, 1u, Container<IOPinProperties, GpioPort, GpioPin, GpioMode, GpioState>>*), IOPinStatusCodes (*&&)(GpioPin const&, PeripheralBase<IOPinStatusCodes, 1u, Container<IOPinProperties, GpioPort, GpioPin, GpioMode, GpioState>>*), IOPinStatusCodes (*&&)(GpioMode const&, PeripheralBase<IOPinStatusCodes, 1u, Container<IOPinProperties, GpioPort, GpioPin, GpioMode, GpioState>>*), IOPinStatusCodes (*&&)(GpioState const&, PeripheralBase<IOPinStatusCodes, 1u, Container<IOPinProperties, GpioPort, GpioPin, GpioMode, GpioState>>*))
 .text._ZN9ContainerI15IOPinPropertiesJPF16IOPinStatusCodesRK8GpioPortP14PeripheralBaseIS1_Lj1ES_IS0_JS2_7GpioPin8GpioMode9GpioStateEEJEEEPFS1_RKS6_SB_EPFS1_RKS7_SB_EPFS1_RKS8_SB_EEED2Ev
                0x08000984       0x24 Debug/Drivers/GPIO/IOPin.o
                0x08000984                Container<IOPinProperties, IOPinStatusCodes (*)(GpioPort const&, PeripheralBase<IOPinStatusCodes, 1u, Container<IOPinProperties, GpioPort, GpioPin, GpioMode, GpioState>>*), IOPinStatusCodes (*)(GpioPin const&, PeripheralBase<IOPinStatusCodes, 1u, Container<IOPinProperties, GpioPort, GpioPin, GpioMode, GpioState>>*), IOPinStatusCodes (*)(GpioMode const&, PeripheralBase<IOPinStatusCodes, 1u, Container<IOPinProperties, GpioPort, GpioPin, GpioMode, GpioState>>*), IOPinStatusCodes (*)(GpioState const&, PeripheralBase<IOPinStatusCodes, 1u, Container<IOPinProperties, GpioPort, GpioPin, GpioMode, GpioState>>*)>::~Container()
                0x08000984                Container<IOPinProperties, IOPinStatusCodes (*)(GpioPort const&, PeripheralBase<IOPinStatusCodes, 1u, Container<IOPinProperties, GpioPort, GpioPin, GpioMode, GpioState>>*), IOPinStatusCodes (*)(GpioPin const&, PeripheralBase<IOPinStatusCodes, 1u, Container<IOPinProperties, GpioPort, GpioPin, GpioMode, GpioState>>*), IOPinStatusCodes (*)(GpioMode const&, PeripheralBase<IOPinStatusCodes, 1u, Container<IOPinProperties, GpioPort, GpioPin, GpioMode, GpioState>>*), IOPinStatusCodes (*)(GpioState const&, PeripheralBase<IOPinStatusCodes, 1u, Container<IOPinProperties, GpioPort, GpioPin, GpioMode, GpioState>>*)>::~Container()
 .text._ZN9ContainerI15IOPinPropertiesJPF16IOPinStatusCodesRK8GpioPortP14PeripheralBaseIS1_Lj1ES_IS0_JS2_7GpioPin8GpioMode9GpioStateEEJEEEPFS1_RKS6_SB_EPFS1_RKS7_SB_EPFS1_RKS8_SB_EEED0Ev
                0x080009a8       0x20 Debug/Drivers/GPIO/IOPin.o
                0x080009a8                Container<IOPinProperties, IOPinStatusCodes (*)(GpioPort const&, PeripheralBase<IOPinStatusCodes, 1u, Container<IOPinProperties, GpioPort, GpioPin, GpioMode, GpioState>>*), IOPinStatusCodes (*)(GpioPin const&, PeripheralBase<IOPinStatusCodes, 1u, Container<IOPinProperties, GpioPort, GpioPin, GpioMode, GpioState>>*), IOPinStatusCodes (*)(GpioMode const&, PeripheralBase<IOPinStatusCodes, 1u, Container<IOPinProperties, GpioPort, GpioPin, GpioMode, GpioState>>*), IOPinStatusCodes (*)(GpioState const&, PeripheralBase<IOPinStatusCodes, 1u, Container<IOPinProperties, GpioPort, GpioPin, GpioMode, GpioState>>*)>::~Container()
 .text._ZN19STM32PeripheralBaseI12GPIO_TypeDef14PeripheralBaseI16IOPinStatusCodesLj1E9ContainerI15IOPinPropertiesJ8GpioPort7GpioPin8GpioMode9GpioStateEEJEEEC2IJPFS2_RKS5_PSA_EPFS2_RKS6_SF_EPFS2_RKS7_SF_EPFS2_RKS8_SF_EEEERKS3_IS4_JDpT_EE
                0x080009c8       0x30 Debug/Drivers/GPIO/IOPin.o
                0x080009c8                STM32PeripheralBase<GPIO_TypeDef, PeripheralBase<IOPinStatusCodes, 1u, Container<IOPinProperties, GpioPort, GpioPin, GpioMode, GpioState>> >::STM32PeripheralBase<IOPinStatusCodes (*)(GpioPort const&, PeripheralBase<IOPinStatusCodes, 1u, Container<IOPinProperties, GpioPort, GpioPin, GpioMode, GpioState>>*), IOPinStatusCodes (*)(GpioPin const&, PeripheralBase<IOPinStatusCodes, 1u, Container<IOPinProperties, GpioPort, GpioPin, GpioMode, GpioState>>*), IOPinStatusCodes (*)(GpioMode const&, PeripheralBase<IOPinStatusCodes, 1u, Container<IOPinProperties, GpioPort, GpioPin, GpioMode, GpioState>>*), IOPinStatusCodes (*)(GpioState const&, PeripheralBase<IOPinStatusCodes, 1u, Container<IOPinProperties, GpioPort, GpioPin, GpioMode, GpioState>>*)>(Container<IOPinProperties, IOPinStatusCodes (*)(GpioPort const&, PeripheralBase<IOPinStatusCodes, 1u, Container<IOPinProperties, GpioPort, GpioPin, GpioMode, GpioState>>*), IOPinStatusCodes (*)(GpioPin const&, PeripheralBase<IOPinStatusCodes, 1u, Container<IOPinProperties, GpioPort, GpioPin, GpioMode, GpioState>>*), IOPinStatusCodes (*)(GpioMode const&, PeripheralBase<IOPinStatusCodes, 1u, Container<IOPinProperties, GpioPort, GpioPin, GpioMode, GpioState>>*), IOPinStatusCodes (*)(GpioState const&, PeripheralBase<IOPinStatusCodes, 1u, Container<IOPinProperties, GpioPort, GpioPin, GpioMode, GpioState>>*)> const&)
                0x080009c8                STM32PeripheralBase<GPIO_TypeDef, PeripheralBase<IOPinStatusCodes, 1u, Container<IOPinProperties, GpioPort, GpioPin, GpioMode, GpioState>> >::STM32PeripheralBase<IOPinStatusCodes (*)(GpioPort const&, PeripheralBase<IOPinStatusCodes, 1u, Container<IOPinProperties, GpioPort, GpioPin, GpioMode, GpioState>>*), IOPinStatusCodes (*)(GpioPin const&, PeripheralBase<IOPinStatusCodes, 1u, Container<IOPinProperties, GpioPort, GpioPin, GpioMode, GpioState>>*), IOPinStatusCodes (*)(GpioMode const&, PeripheralBase<IOPinStatusCodes, 1u, Container<IOPinProperties, GpioPort, GpioPin, GpioMode, GpioState>>*), IOPinStatusCodes (*)(GpioState const&, PeripheralBase<IOPinStatusCodes, 1u, Container<IOPinProperties, GpioPort, GpioPin, GpioMode, GpioState>>*)>(Container<IOPinProperties, IOPinStatusCodes (*)(GpioPort const&, PeripheralBase<IOPinStatusCodes, 1u, Container<IOPinProperties, GpioPort, GpioPin, GpioMode, GpioState>>*), IOPinStatusCodes (*)(GpioPin const&, PeripheralBase<IOPinStatusCodes, 1u, Container<IOPinProperties, GpioPort, GpioPin, GpioMode, GpioState>>*), IOPinStatusCodes (*)(GpioMode const&, PeripheralBase<IOPinStatusCodes, 1u, Container<IOPinProperties, GpioPort, GpioPin, GpioMode, GpioState>>*), IOPinStatusCodes (*)(GpioState const&, PeripheralBase<IOPinStatusCodes, 1u, Container<IOPinProperties, GpioPort, GpioPin, GpioMode, GpioState>>*)> const&)
 .text._ZN19STM32PeripheralBaseI12GPIO_TypeDef14PeripheralBaseI16IOPinStatusCodesLj1E9ContainerI15IOPinPropertiesJ8GpioPort7GpioPin8GpioMode9GpioStateEEJEEED2Ev
                0x080009f8       0x2c Debug/Drivers/GPIO/IOPin.o
                0x080009f8                STM32PeripheralBase<GPIO_TypeDef, PeripheralBase<IOPinStatusCodes, 1u, Container<IOPinProperties, GpioPort, GpioPin, GpioMode, GpioState>> >::~STM32PeripheralBase()
                0x080009f8                STM32PeripheralBase<GPIO_TypeDef, PeripheralBase<IOPinStatusCodes, 1u, Container<IOPinProperties, GpioPort, GpioPin, GpioMode, GpioState>> >::~STM32PeripheralBase()
 .text._ZN19STM32PeripheralBaseI12GPIO_TypeDef14PeripheralBaseI16IOPinStatusCodesLj1E9ContainerI15IOPinPropertiesJ8GpioPort7GpioPin8GpioMode9GpioStateEEJEEED0Ev
                0x08000a24       0x20 Debug/Drivers/GPIO/IOPin.o
                0x08000a24                STM32PeripheralBase<GPIO_TypeDef, PeripheralBase<IOPinStatusCodes, 1u, Container<IOPinProperties, GpioPort, GpioPin, GpioMode, GpioState>> >::~STM32PeripheralBase()
 .text._ZSt7forwardIPF16IOPinStatusCodesRK8GpioPortP14PeripheralBaseIS0_Lj1E9ContainerI15IOPinPropertiesJS1_7GpioPin8GpioMode9GpioStateEEJEEEEOT_RNSt16remove_referenceISF_E4typeE
                0x08000a44       0x16 Debug/Drivers/GPIO/IOPin.o
                0x08000a44                IOPinStatusCodes (*&&std::forward<IOPinStatusCodes (*)(GpioPort const&, PeripheralBase<IOPinStatusCodes, 1u, Container<IOPinProperties, GpioPort, GpioPin, GpioMode, GpioState>>*)>(std::remove_reference<IOPinStatusCodes (*)(GpioPort const&, PeripheralBase<IOPinStatusCodes, 1u, Container<IOPinProperties, GpioPort, GpioPin, GpioMode, GpioState>>*)>::type&))(GpioPort const&, PeripheralBase<IOPinStatusCodes, 1u, Container<IOPinProperties, GpioPort, GpioPin, GpioMode, GpioState>>*)
 .text._ZSt7forwardIPF16IOPinStatusCodesRK7GpioPinP14PeripheralBaseIS0_Lj1E9ContainerI15IOPinPropertiesJ8GpioPortS1_8GpioMode9GpioStateEEJEEEEOT_RNSt16remove_referenceISF_E4typeE
                0x08000a5a       0x16 Debug/Drivers/GPIO/IOPin.o
                0x08000a5a                IOPinStatusCodes (*&&std::forward<IOPinStatusCodes (*)(GpioPin const&, PeripheralBase<IOPinStatusCodes, 1u, Container<IOPinProperties, GpioPort, GpioPin, GpioMode, GpioState>>*)>(std::remove_reference<IOPinStatusCodes (*)(GpioPin const&, PeripheralBase<IOPinStatusCodes, 1u, Container<IOPinProperties, GpioPort, GpioPin, GpioMode, GpioState>>*)>::type&))(GpioPin const&, PeripheralBase<IOPinStatusCodes, 1u, Container<IOPinProperties, GpioPort, GpioPin, GpioMode, GpioState>>*)
 .text._ZSt7forwardIPF16IOPinStatusCodesRK8GpioModeP14PeripheralBaseIS0_Lj1E9ContainerI15IOPinPropertiesJ8GpioPort7GpioPinS1_9GpioStateEEJEEEEOT_RNSt16remove_referenceISF_E4typeE
                0x08000a70       0x16 Debug/Drivers/GPIO/IOPin.o
                0x08000a70                IOPinStatusCodes (*&&std::forward<IOPinStatusCodes (*)(GpioMode const&, PeripheralBase<IOPinStatusCodes, 1u, Container<IOPinProperties, GpioPort, GpioPin, GpioMode, GpioState>>*)>(std::remove_reference<IOPinStatusCodes (*)(GpioMode const&, PeripheralBase<IOPinStatusCodes, 1u, Container<IOPinProperties, GpioPort, GpioPin, GpioMode, GpioState>>*)>::type&))(GpioMode const&, PeripheralBase<IOPinStatusCodes, 1u, Container<IOPinProperties, GpioPort, GpioPin, GpioMode, GpioState>>*)
 .text._ZSt7forwardIPF16IOPinStatusCodesRK9GpioStateP14PeripheralBaseIS0_Lj1E9ContainerI15IOPinPropertiesJ8GpioPort7GpioPin8GpioModeS1_EEJEEEEOT_RNSt16remove_referenceISF_E4typeE
                0x08000a86       0x16 Debug/Drivers/GPIO/IOPin.o
                0x08000a86                IOPinStatusCodes (*&&std::forward<IOPinStatusCodes (*)(GpioState const&, PeripheralBase<IOPinStatusCodes, 1u, Container<IOPinProperties, GpioPort, GpioPin, GpioMode, GpioState>>*)>(std::remove_reference<IOPinStatusCodes (*)(GpioState const&, PeripheralBase<IOPinStatusCodes, 1u, Container<IOPinProperties, GpioPort, GpioPin, GpioMode, GpioState>>*)>::type&))(GpioState const&, PeripheralBase<IOPinStatusCodes, 1u, Container<IOPinProperties, GpioPort, GpioPin, GpioMode, GpioState>>*)
 .text._ZN13ContainerBaseIJPF16IOPinStatusCodesRK8GpioPortP14PeripheralBaseIS0_Lj1E9ContainerI15IOPinPropertiesJS1_7GpioPin8GpioMode9GpioStateEEJEEEPFS0_RKS7_SC_EPFS0_RKS8_SC_EPFS0_RKS9_SC_EEEC2EOSE_OSI_OSM_OSQ_
                0x08000a9c       0x58 Debug/Drivers/GPIO/IOPin.o
                0x08000a9c                ContainerBase<IOPinStatusCodes (*)(GpioPort const&, PeripheralBase<IOPinStatusCodes, 1u, Container<IOPinProperties, GpioPort, GpioPin, GpioMode, GpioState>>*), IOPinStatusCodes (*)(GpioPin const&, PeripheralBase<IOPinStatusCodes, 1u, Container<IOPinProperties, GpioPort, GpioPin, GpioMode, GpioState>>*), IOPinStatusCodes (*)(GpioMode const&, PeripheralBase<IOPinStatusCodes, 1u, Container<IOPinProperties, GpioPort, GpioPin, GpioMode, GpioState>>*), IOPinStatusCodes (*)(GpioState const&, PeripheralBase<IOPinStatusCodes, 1u, Container<IOPinProperties, GpioPort, GpioPin, GpioMode, GpioState>>*)>::ContainerBase(IOPinStatusCodes (*&&)(GpioPort const&, PeripheralBase<IOPinStatusCodes, 1u, Container<IOPinProperties, GpioPort, GpioPin, GpioMode, GpioState>>*), IOPinStatusCodes (*&&)(GpioPin const&, PeripheralBase<IOPinStatusCodes, 1u, Container<IOPinProperties, GpioPort, GpioPin, GpioMode, GpioState>>*), IOPinStatusCodes (*&&)(GpioMode const&, PeripheralBase<IOPinStatusCodes, 1u, Container<IOPinProperties, GpioPort, GpioPin, GpioMode, GpioState>>*), IOPinStatusCodes (*&&)(GpioState const&, PeripheralBase<IOPinStatusCodes, 1u, Container<IOPinProperties, GpioPort, GpioPin, GpioMode, GpioState>>*))
                0x08000a9c                ContainerBase<IOPinStatusCodes (*)(GpioPort const&, PeripheralBase<IOPinStatusCodes, 1u, Container<IOPinProperties, GpioPort, GpioPin, GpioMode, GpioState>>*), IOPinStatusCodes (*)(GpioPin const&, PeripheralBase<IOPinStatusCodes, 1u, Container<IOPinProperties, GpioPort, GpioPin, GpioMode, GpioState>>*), IOPinStatusCodes (*)(GpioMode const&, PeripheralBase<IOPinStatusCodes, 1u, Container<IOPinProperties, GpioPort, GpioPin, GpioMode, GpioState>>*), IOPinStatusCodes (*)(GpioState const&, PeripheralBase<IOPinStatusCodes, 1u, Container<IOPinProperties, GpioPort, GpioPin, GpioMode, GpioState>>*)>::ContainerBase(IOPinStatusCodes (*&&)(GpioPort const&, PeripheralBase<IOPinStatusCodes, 1u, Container<IOPinProperties, GpioPort, GpioPin, GpioMode, GpioState>>*), IOPinStatusCodes (*&&)(GpioPin const&, PeripheralBase<IOPinStatusCodes, 1u, Container<IOPinProperties, GpioPort, GpioPin, GpioMode, GpioState>>*), IOPinStatusCodes (*&&)(GpioMode const&, PeripheralBase<IOPinStatusCodes, 1u, Container<IOPinProperties, GpioPort, GpioPin, GpioMode, GpioState>>*), IOPinStatusCodes (*&&)(GpioState const&, PeripheralBase<IOPinStatusCodes, 1u, Container<IOPinProperties, GpioPort, GpioPin, GpioMode, GpioState>>*))
 .text._ZN13ContainerBaseIJPF16IOPinStatusCodesRK8GpioPortP14PeripheralBaseIS0_Lj1E9ContainerI15IOPinPropertiesJS1_7GpioPin8GpioMode9GpioStateEEJEEEPFS0_RKS7_SC_EPFS0_RKS8_SC_EPFS0_RKS9_SC_EEED2Ev
                0x08000af4       0x20 Debug/Drivers/GPIO/IOPin.o
                0x08000af4                ContainerBase<IOPinStatusCodes (*)(GpioPort const&, PeripheralBase<IOPinStatusCodes, 1u, Container<IOPinProperties, GpioPort, GpioPin, GpioMode, GpioState>>*), IOPinStatusCodes (*)(GpioPin const&, PeripheralBase<IOPinStatusCodes, 1u, Container<IOPinProperties, GpioPort, GpioPin, GpioMode, GpioState>>*), IOPinStatusCodes (*)(GpioMode const&, PeripheralBase<IOPinStatusCodes, 1u, Container<IOPinProperties, GpioPort, GpioPin, GpioMode, GpioState>>*), IOPinStatusCodes (*)(GpioState const&, PeripheralBase<IOPinStatusCodes, 1u, Container<IOPinProperties, GpioPort, GpioPin, GpioMode, GpioState>>*)>::~ContainerBase()
                0x08000af4                ContainerBase<IOPinStatusCodes (*)(GpioPort const&, PeripheralBase<IOPinStatusCodes, 1u, Container<IOPinProperties, GpioPort, GpioPin, GpioMode, GpioState>>*), IOPinStatusCodes (*)(GpioPin const&, PeripheralBase<IOPinStatusCodes, 1u, Container<IOPinProperties, GpioPort, GpioPin, GpioMode, GpioState>>*), IOPinStatusCodes (*)(GpioMode const&, PeripheralBase<IOPinStatusCodes, 1u, Container<IOPinProperties, GpioPort, GpioPin, GpioMode, GpioState>>*), IOPinStatusCodes (*)(GpioState const&, PeripheralBase<IOPinStatusCodes, 1u, Container<IOPinProperties, GpioPort, GpioPin, GpioMode, GpioState>>*)>::~ContainerBase()
 .text._ZN13ContainerBaseIJPF16IOPinStatusCodesRK8GpioPortP14PeripheralBaseIS0_Lj1E9ContainerI15IOPinPropertiesJS1_7GpioPin8GpioMode9GpioStateEEJEEEPFS0_RKS7_SC_EPFS0_RKS8_SC_EPFS0_RKS9_SC_EEED0Ev
                0x08000b14       0x20 Debug/Drivers/GPIO/IOPin.o
                0x08000b14                ContainerBase<IOPinStatusCodes (*)(GpioPort const&, PeripheralBase<IOPinStatusCodes, 1u, Container<IOPinProperties, GpioPort, GpioPin, GpioMode, GpioState>>*), IOPinStatusCodes (*)(GpioPin const&, PeripheralBase<IOPinStatusCodes, 1u, Container<IOPinProperties, GpioPort, GpioPin, GpioMode, GpioState>>*), IOPinStatusCodes (*)(GpioMode const&, PeripheralBase<IOPinStatusCodes, 1u, Container<IOPinProperties, GpioPort, GpioPin, GpioMode, GpioState>>*), IOPinStatusCodes (*)(GpioState const&, PeripheralBase<IOPinStatusCodes, 1u, Container<IOPinProperties, GpioPort, GpioPin, GpioMode, GpioState>>*)>::~ContainerBase()
 .text._ZN14PeripheralBaseI16IOPinStatusCodesLj1E9ContainerI15IOPinPropertiesJ8GpioPort7GpioPin8GpioMode9GpioStateEEJEEC2IJPFS0_RKS3_PS8_EPFS0_RKS4_SC_EPFS0_RKS5_SC_EPFS0_RKS6_SC_EEEERKS1_IS2_JDpT_EE
                0x08000b34       0x64 Debug/Drivers/GPIO/IOPin.o
                0x08000b34                PeripheralBase<IOPinStatusCodes, 1u, Container<IOPinProperties, GpioPort, GpioPin, GpioMode, GpioState>>::PeripheralBase<IOPinStatusCodes (*)(GpioPort const&, PeripheralBase<IOPinStatusCodes, 1u, Container<IOPinProperties, GpioPort, GpioPin, GpioMode, GpioState>>*), IOPinStatusCodes (*)(GpioPin const&, PeripheralBase<IOPinStatusCodes, 1u, Container<IOPinProperties, GpioPort, GpioPin, GpioMode, GpioState>>*), IOPinStatusCodes (*)(GpioMode const&, PeripheralBase<IOPinStatusCodes, 1u, Container<IOPinProperties, GpioPort, GpioPin, GpioMode, GpioState>>*), IOPinStatusCodes (*)(GpioState const&, PeripheralBase<IOPinStatusCodes, 1u, Container<IOPinProperties, GpioPort, GpioPin, GpioMode, GpioState>>*)>(Container<IOPinProperties, IOPinStatusCodes (*)(GpioPort const&, PeripheralBase<IOPinStatusCodes, 1u, Container<IOPinProperties, GpioPort, GpioPin, GpioMode, GpioState>>*), IOPinStatusCodes (*)(GpioPin const&, PeripheralBase<IOPinStatusCodes, 1u, Container<IOPinProperties, GpioPort, GpioPin, GpioMode, GpioState>>*), IOPinStatusCodes (*)(GpioMode const&, PeripheralBase<IOPinStatusCodes, 1u, Container<IOPinProperties, GpioPort, GpioPin, GpioMode, GpioState>>*), IOPinStatusCodes (*)(GpioState const&, PeripheralBase<IOPinStatusCodes, 1u, Container<IOPinProperties, GpioPort, GpioPin, GpioMode, GpioState>>*)> const&)
                0x08000b34                PeripheralBase<IOPinStatusCodes, 1u, Container<IOPinProperties, GpioPort, GpioPin, GpioMode, GpioState>>::PeripheralBase<IOPinStatusCodes (*)(GpioPort const&, PeripheralBase<IOPinStatusCodes, 1u, Container<IOPinProperties, GpioPort, GpioPin, GpioMode, GpioState>>*), IOPinStatusCodes (*)(GpioPin const&, PeripheralBase<IOPinStatusCodes, 1u, Container<IOPinProperties, GpioPort, GpioPin, GpioMode, GpioState>>*), IOPinStatusCodes (*)(GpioMode const&, PeripheralBase<IOPinStatusCodes, 1u, Container<IOPinProperties, GpioPort, GpioPin, GpioMode, GpioState>>*), IOPinStatusCodes (*)(GpioState const&, PeripheralBase<IOPinStatusCodes, 1u, Container<IOPinProperties, GpioPort, GpioPin, GpioMode, GpioState>>*)>(Container<IOPinProperties, IOPinStatusCodes (*)(GpioPort const&, PeripheralBase<IOPinStatusCodes, 1u, Container<IOPinProperties, GpioPort, GpioPin, GpioMode, GpioState>>*), IOPinStatusCodes (*)(GpioPin const&, PeripheralBase<IOPinStatusCodes, 1u, Container<IOPinProperties, GpioPort, GpioPin, GpioMode, GpioState>>*), IOPinStatusCodes (*)(GpioMode const&, PeripheralBase<IOPinStatusCodes, 1u, Container<IOPinProperties, GpioPort, GpioPin, GpioMode, GpioState>>*), IOPinStatusCodes (*)(GpioState const&, PeripheralBase<IOPinStatusCodes, 1u, Container<IOPinProperties, GpioPort, GpioPin, GpioMode, GpioState>>*)> const&)
 .text._ZN14PeripheralBaseI16IOPinStatusCodesLj1E9ContainerI15IOPinPropertiesJ8GpioPort7GpioPin8GpioMode9GpioStateEEJEED2Ev
                0x08000b98       0x4c Debug/Drivers/GPIO/IOPin.o
                0x08000b98                PeripheralBase<IOPinStatusCodes, 1u, Container<IOPinProperties, GpioPort, GpioPin, GpioMode, GpioState>>::~PeripheralBase()
                0x08000b98                PeripheralBase<IOPinStatusCodes, 1u, Container<IOPinProperties, GpioPort, GpioPin, GpioMode, GpioState>>::~PeripheralBase()
 .text._ZN14PeripheralBaseI16IOPinStatusCodesLj1E9ContainerI15IOPinPropertiesJ8GpioPort7GpioPin8GpioMode9GpioStateEEJEED0Ev
                0x08000be4       0x20 Debug/Drivers/GPIO/IOPin.o
                0x08000be4                PeripheralBase<IOPinStatusCodes, 1u, Container<IOPinProperties, GpioPort, GpioPin, GpioMode, GpioState>>::~PeripheralBase()
 .text._ZNSt5tupleIJPF16IOPinStatusCodesRK8GpioPortP14PeripheralBaseIS0_Lj1E9ContainerI15IOPinPropertiesJS1_7GpioPin8GpioMode9GpioStateEEJEEEPFS0_RKS7_SC_EPFS0_RKS8_SC_EPFS0_RKS9_SC_EEEC2IJSE_SI_SM_SQ_ELb1ELb1EEEDpOT_
                0x08000c04       0x4c Debug/Drivers/GPIO/IOPin.o
                0x08000c04                std::tuple<IOPinStatusCodes (*)(GpioPort const&, PeripheralBase<IOPinStatusCodes, 1u, Container<IOPinProperties, GpioPort, GpioPin, GpioMode, GpioState>>*), IOPinStatusCodes (*)(GpioPin const&, PeripheralBase<IOPinStatusCodes, 1u, Container<IOPinProperties, GpioPort, GpioPin, GpioMode, GpioState>>*), IOPinStatusCodes (*)(GpioMode const&, PeripheralBase<IOPinStatusCodes, 1u, Container<IOPinProperties, GpioPort, GpioPin, GpioMode, GpioState>>*), IOPinStatusCodes (*)(GpioState const&, PeripheralBase<IOPinStatusCodes, 1u, Container<IOPinProperties, GpioPort, GpioPin, GpioMode, GpioState>>*)>::tuple<IOPinStatusCodes (*)(GpioPort const&, PeripheralBase<IOPinStatusCodes, 1u, Container<IOPinProperties, GpioPort, GpioPin, GpioMode, GpioState>>*), IOPinStatusCodes (*)(GpioPin const&, PeripheralBase<IOPinStatusCodes, 1u, Container<IOPinProperties, GpioPort, GpioPin, GpioMode, GpioState>>*), IOPinStatusCodes (*)(GpioMode const&, PeripheralBase<IOPinStatusCodes, 1u, Container<IOPinProperties, GpioPort, GpioPin, GpioMode, GpioState>>*), IOPinStatusCodes (*)(GpioState const&, PeripheralBase<IOPinStatusCodes, 1u, Container<IOPinProperties, GpioPort, GpioPin, GpioMode, GpioState>>*), true, true>(IOPinStatusCodes (*&&)(GpioPort const&, PeripheralBase<IOPinStatusCodes, 1u, Container<IOPinProperties, GpioPort, GpioPin, GpioMode, GpioState>>*), IOPinStatusCodes (*&&)(GpioPin const&, PeripheralBase<IOPinStatusCodes, 1u, Container<IOPinProperties, GpioPort, GpioPin, GpioMode, GpioState>>*), IOPinStatusCodes (*&&)(GpioMode const&, PeripheralBase<IOPinStatusCodes, 1u, Container<IOPinProperties, GpioPort, GpioPin, GpioMode, GpioState>>*), IOPinStatusCodes (*&&)(GpioState const&, PeripheralBase<IOPinStatusCodes, 1u, Container<IOPinProperties, GpioPort, GpioPin, GpioMode, GpioState>>*))
                0x08000c04                std::tuple<IOPinStatusCodes (*)(GpioPort const&, PeripheralBase<IOPinStatusCodes, 1u, Container<IOPinProperties, GpioPort, GpioPin, GpioMode, GpioState>>*), IOPinStatusCodes (*)(GpioPin const&, PeripheralBase<IOPinStatusCodes, 1u, Container<IOPinProperties, GpioPort, GpioPin, GpioMode, GpioState>>*), IOPinStatusCodes (*)(GpioMode const&, PeripheralBase<IOPinStatusCodes, 1u, Container<IOPinProperties, GpioPort, GpioPin, GpioMode, GpioState>>*), IOPinStatusCodes (*)(GpioState const&, PeripheralBase<IOPinStatusCodes, 1u, Container<IOPinProperties, GpioPort, GpioPin, GpioMode, GpioState>>*)>::tuple<IOPinStatusCodes (*)(GpioPort const&, PeripheralBase<IOPinStatusCodes, 1u, Container<IOPinProperties, GpioPort, GpioPin, GpioMode, GpioState>>*), IOPinStatusCodes (*)(GpioPin const&, PeripheralBase<IOPinStatusCodes, 1u, Container<IOPinProperties, GpioPort, GpioPin, GpioMode, GpioState>>*), IOPinStatusCodes (*)(GpioMode const&, PeripheralBase<IOPinStatusCodes, 1u, Container<IOPinProperties, GpioPort, GpioPin, GpioMode, GpioState>>*), IOPinStatusCodes (*)(GpioState const&, PeripheralBase<IOPinStatusCodes, 1u, Container<IOPinProperties, GpioPort, GpioPin, GpioMode, GpioState>>*), true, true>(IOPinStatusCodes (*&&)(GpioPort const&, PeripheralBase<IOPinStatusCodes, 1u, Container<IOPinProperties, GpioPort, GpioPin, GpioMode, GpioState>>*), IOPinStatusCodes (*&&)(GpioPin const&, PeripheralBase<IOPinStatusCodes, 1u, Container<IOPinProperties, GpioPort, GpioPin, GpioMode, GpioState>>*), IOPinStatusCodes (*&&)(GpioMode const&, PeripheralBase<IOPinStatusCodes, 1u, Container<IOPinProperties, GpioPort, GpioPin, GpioMode, GpioState>>*), IOPinStatusCodes (*&&)(GpioState const&, PeripheralBase<IOPinStatusCodes, 1u, Container<IOPinProperties, GpioPort, GpioPin, GpioMode, GpioState>>*))
 .text._ZN9ContainerI15IOPinPropertiesJ8GpioPort7GpioPin8GpioMode9GpioStateEEC2Ev
                0x08000c50       0x24 Debug/Drivers/GPIO/IOPin.o
                0x08000c50                Container<IOPinProperties, GpioPort, GpioPin, GpioMode, GpioState>::Container()
                0x08000c50                Container<IOPinProperties, GpioPort, GpioPin, GpioMode, GpioState>::Container()
 .text._ZN14PeripheralBaseI16IOPinStatusCodesLj1E9ContainerI15IOPinPropertiesJ8GpioPort7GpioPin8GpioMode9GpioStateEEJEE15setFunctionsPtrIJPFS0_RKS3_PS8_EPFS0_RKS4_SC_EPFS0_RKS5_SC_EPFS0_RKS6_SC_EEEEvRKS1_IS2_JDpT_EE
                0x08000c74       0x30 Debug/Drivers/GPIO/IOPin.o
                0x08000c74                void PeripheralBase<IOPinStatusCodes, 1u, Container<IOPinProperties, GpioPort, GpioPin, GpioMode, GpioState>>::setFunctionsPtr<IOPinStatusCodes (*)(GpioPort const&, PeripheralBase<IOPinStatusCodes, 1u, Container<IOPinProperties, GpioPort, GpioPin, GpioMode, GpioState>>*), IOPinStatusCodes (*)(GpioPin const&, PeripheralBase<IOPinStatusCodes, 1u, Container<IOPinProperties, GpioPort, GpioPin, GpioMode, GpioState>>*), IOPinStatusCodes (*)(GpioMode const&, PeripheralBase<IOPinStatusCodes, 1u, Container<IOPinProperties, GpioPort, GpioPin, GpioMode, GpioState>>*), IOPinStatusCodes (*)(GpioState const&, PeripheralBase<IOPinStatusCodes, 1u, Container<IOPinProperties, GpioPort, GpioPin, GpioMode, GpioState>>*)>(Container<IOPinProperties, IOPinStatusCodes (*)(GpioPort const&, PeripheralBase<IOPinStatusCodes, 1u, Container<IOPinProperties, GpioPort, GpioPin, GpioMode, GpioState>>*), IOPinStatusCodes (*)(GpioPin const&, PeripheralBase<IOPinStatusCodes, 1u, Container<IOPinProperties, GpioPort, GpioPin, GpioMode, GpioState>>*), IOPinStatusCodes (*)(GpioMode const&, PeripheralBase<IOPinStatusCodes, 1u, Container<IOPinProperties, GpioPort, GpioPin, GpioMode, GpioState>>*), IOPinStatusCodes (*)(GpioState const&, PeripheralBase<IOPinStatusCodes, 1u, Container<IOPinProperties, GpioPort, GpioPin, GpioMode, GpioState>>*)> const&)
 .text._ZN9ContainerI15IOPinPropertiesJ8GpioPort7GpioPin8GpioMode9GpioStateEED2Ev
                0x08000ca4       0x24 Debug/Drivers/GPIO/IOPin.o
                0x08000ca4                Container<IOPinProperties, GpioPort, GpioPin, GpioMode, GpioState>::~Container()
                0x08000ca4                Container<IOPinProperties, GpioPort, GpioPin, GpioMode, GpioState>::~Container()
 .text._ZN9ContainerI15IOPinPropertiesJ8GpioPort7GpioPin8GpioMode9GpioStateEED0Ev
                0x08000cc8       0x20 Debug/Drivers/GPIO/IOPin.o
                0x08000cc8                Container<IOPinProperties, GpioPort, GpioPin, GpioMode, GpioState>::~Container()
 .text._ZNSt11_Tuple_implILj0EJPF16IOPinStatusCodesRK8GpioPortP14PeripheralBaseIS0_Lj1E9ContainerI15IOPinPropertiesJS1_7GpioPin8GpioMode9GpioStateEEJEEEPFS0_RKS7_SC_EPFS0_RKS8_SC_EPFS0_RKS9_SC_EEEC2ISE_JSI_SM_SQ_EvEEOT_DpOT0_
                0x08000ce8       0x52 Debug/Drivers/GPIO/IOPin.o
                0x08000ce8                std::_Tuple_impl<0u, IOPinStatusCodes (*)(GpioPort const&, PeripheralBase<IOPinStatusCodes, 1u, Container<IOPinProperties, GpioPort, GpioPin, GpioMode, GpioState>>*), IOPinStatusCodes (*)(GpioPin const&, PeripheralBase<IOPinStatusCodes, 1u, Container<IOPinProperties, GpioPort, GpioPin, GpioMode, GpioState>>*), IOPinStatusCodes (*)(GpioMode const&, PeripheralBase<IOPinStatusCodes, 1u, Container<IOPinProperties, GpioPort, GpioPin, GpioMode, GpioState>>*), IOPinStatusCodes (*)(GpioState const&, PeripheralBase<IOPinStatusCodes, 1u, Container<IOPinProperties, GpioPort, GpioPin, GpioMode, GpioState>>*)>::_Tuple_impl<IOPinStatusCodes (*)(GpioPort const&, PeripheralBase<IOPinStatusCodes, 1u, Container<IOPinProperties, GpioPort, GpioPin, GpioMode, GpioState>>*), IOPinStatusCodes (*)(GpioPin const&, PeripheralBase<IOPinStatusCodes, 1u, Container<IOPinProperties, GpioPort, GpioPin, GpioMode, GpioState>>*), IOPinStatusCodes (*)(GpioMode const&, PeripheralBase<IOPinStatusCodes, 1u, Container<IOPinProperties, GpioPort, GpioPin, GpioMode, GpioState>>*), IOPinStatusCodes (*)(GpioState const&, PeripheralBase<IOPinStatusCodes, 1u, Container<IOPinProperties, GpioPort, GpioPin, GpioMode, GpioState>>*), void>(IOPinStatusCodes (*&&)(GpioPort const&, PeripheralBase<IOPinStatusCodes, 1u, Container<IOPinProperties, GpioPort, GpioPin, GpioMode, GpioState>>*), IOPinStatusCodes (*&&)(GpioPin const&, PeripheralBase<IOPinStatusCodes, 1u, Container<IOPinProperties, GpioPort, GpioPin, GpioMode, GpioState>>*), IOPinStatusCodes (*&&)(GpioMode const&, PeripheralBase<IOPinStatusCodes, 1u, Container<IOPinProperties, GpioPort, GpioPin, GpioMode, GpioState>>*), IOPinStatusCodes (*&&)(GpioState const&, PeripheralBase<IOPinStatusCodes, 1u, Container<IOPinProperties, GpioPort, GpioPin, GpioMode, GpioState>>*))
                0x08000ce8                std::_Tuple_impl<0u, IOPinStatusCodes (*)(GpioPort const&, PeripheralBase<IOPinStatusCodes, 1u, Container<IOPinProperties, GpioPort, GpioPin, GpioMode, GpioState>>*), IOPinStatusCodes (*)(GpioPin const&, PeripheralBase<IOPinStatusCodes, 1u, Container<IOPinProperties, GpioPort, GpioPin, GpioMode, GpioState>>*), IOPinStatusCodes (*)(GpioMode const&, PeripheralBase<IOPinStatusCodes, 1u, Container<IOPinProperties, GpioPort, GpioPin, GpioMode, GpioState>>*), IOPinStatusCodes (*)(GpioState const&, PeripheralBase<IOPinStatusCodes, 1u, Container<IOPinProperties, GpioPort, GpioPin, GpioMode, GpioState>>*)>::_Tuple_impl<IOPinStatusCodes (*)(GpioPort const&, PeripheralBase<IOPinStatusCodes, 1u, Container<IOPinProperties, GpioPort, GpioPin, GpioMode, GpioState>>*), IOPinStatusCodes (*)(GpioPin const&, PeripheralBase<IOPinStatusCodes, 1u, Container<IOPinProperties, GpioPort, GpioPin, GpioMode, GpioState>>*), IOPinStatusCodes (*)(GpioMode const&, PeripheralBase<IOPinStatusCodes, 1u, Container<IOPinProperties, GpioPort, GpioPin, GpioMode, GpioState>>*), IOPinStatusCodes (*)(GpioState const&, PeripheralBase<IOPinStatusCodes, 1u, Container<IOPinProperties, GpioPort, GpioPin, GpioMode, GpioState>>*), void>(IOPinStatusCodes (*&&)(GpioPort const&, PeripheralBase<IOPinStatusCodes, 1u, Container<IOPinProperties, GpioPort, GpioPin, GpioMode, GpioState>>*), IOPinStatusCodes (*&&)(GpioPin const&, PeripheralBase<IOPinStatusCodes, 1u, Container<IOPinProperties, GpioPort, GpioPin, GpioMode, GpioState>>*), IOPinStatusCodes (*&&)(GpioMode const&, PeripheralBase<IOPinStatusCodes, 1u, Container<IOPinProperties, GpioPort, GpioPin, GpioMode, GpioState>>*), IOPinStatusCodes (*&&)(GpioState const&, PeripheralBase<IOPinStatusCodes, 1u, Container<IOPinProperties, GpioPort, GpioPin, GpioMode, GpioState>>*))
 *fill*         0x08000d3a        0x2 
 .text._ZN13ContainerBaseIJ8GpioPort7GpioPin8GpioMode9GpioStateEEC2Ev
                0x08000d3c       0x28 Debug/Drivers/GPIO/IOPin.o
                0x08000d3c                ContainerBase<GpioPort, GpioPin, GpioMode, GpioState>::ContainerBase()
                0x08000d3c                ContainerBase<GpioPort, GpioPin, GpioMode, GpioState>::ContainerBase()
 .text._ZN13ContainerBaseIJ8GpioPort7GpioPin8GpioMode9GpioStateEED2Ev
                0x08000d64       0x20 Debug/Drivers/GPIO/IOPin.o
                0x08000d64                ContainerBase<GpioPort, GpioPin, GpioMode, GpioState>::~ContainerBase()
                0x08000d64                ContainerBase<GpioPort, GpioPin, GpioMode, GpioState>::~ContainerBase()
 .text._ZN13ContainerBaseIJ8GpioPort7GpioPin8GpioMode9GpioStateEED0Ev
                0x08000d84       0x20 Debug/Drivers/GPIO/IOPin.o
                0x08000d84                ContainerBase<GpioPort, GpioPin, GpioMode, GpioState>::~ContainerBase()
 .text._ZN9ContainerI15IOPinPropertiesJPF16IOPinStatusCodesRK8GpioPortP14PeripheralBaseIS1_Lj1ES_IS0_JS2_7GpioPin8GpioMode9GpioStateEEJEEEPFS1_RKS6_SB_EPFS1_RKS7_SB_EPFS1_RKS8_SB_EEEC2Ev
                0x08000da4       0x24 Debug/Drivers/GPIO/IOPin.o
                0x08000da4                Container<IOPinProperties, IOPinStatusCodes (*)(GpioPort const&, PeripheralBase<IOPinStatusCodes, 1u, Container<IOPinProperties, GpioPort, GpioPin, GpioMode, GpioState>>*), IOPinStatusCodes (*)(GpioPin const&, PeripheralBase<IOPinStatusCodes, 1u, Container<IOPinProperties, GpioPort, GpioPin, GpioMode, GpioState>>*), IOPinStatusCodes (*)(GpioMode const&, PeripheralBase<IOPinStatusCodes, 1u, Container<IOPinProperties, GpioPort, GpioPin, GpioMode, GpioState>>*), IOPinStatusCodes (*)(GpioState const&, PeripheralBase<IOPinStatusCodes, 1u, Container<IOPinProperties, GpioPort, GpioPin, GpioMode, GpioState>>*)>::Container()
                0x08000da4                Container<IOPinProperties, IOPinStatusCodes (*)(GpioPort const&, PeripheralBase<IOPinStatusCodes, 1u, Container<IOPinProperties, GpioPort, GpioPin, GpioMode, GpioState>>*), IOPinStatusCodes (*)(GpioPin const&, PeripheralBase<IOPinStatusCodes, 1u, Container<IOPinProperties, GpioPort, GpioPin, GpioMode, GpioState>>*), IOPinStatusCodes (*)(GpioMode const&, PeripheralBase<IOPinStatusCodes, 1u, Container<IOPinProperties, GpioPort, GpioPin, GpioMode, GpioState>>*), IOPinStatusCodes (*)(GpioState const&, PeripheralBase<IOPinStatusCodes, 1u, Container<IOPinProperties, GpioPort, GpioPin, GpioMode, GpioState>>*)>::Container()
 .text._ZN9ContainerI15IOPinPropertiesJPF16IOPinStatusCodesRK8GpioPortP14PeripheralBaseIS1_Lj1ES_IS0_JS2_7GpioPin8GpioMode9GpioStateEEJEEEPFS1_RKS6_SB_EPFS1_RKS7_SB_EPFS1_RKS8_SB_EEEaSERKSQ_
                0x08000dc8       0x24 Debug/Drivers/GPIO/IOPin.o
                0x08000dc8                Container<IOPinProperties, IOPinStatusCodes (*)(GpioPort const&, PeripheralBase<IOPinStatusCodes, 1u, Container<IOPinProperties, GpioPort, GpioPin, GpioMode, GpioState>>*), IOPinStatusCodes (*)(GpioPin const&, PeripheralBase<IOPinStatusCodes, 1u, Container<IOPinProperties, GpioPort, GpioPin, GpioMode, GpioState>>*), IOPinStatusCodes (*)(GpioMode const&, PeripheralBase<IOPinStatusCodes, 1u, Container<IOPinProperties, GpioPort, GpioPin, GpioMode, GpioState>>*), IOPinStatusCodes (*)(GpioState const&, PeripheralBase<IOPinStatusCodes, 1u, Container<IOPinProperties, GpioPort, GpioPin, GpioMode, GpioState>>*)>::operator=(Container<IOPinProperties, IOPinStatusCodes (*)(GpioPort const&, PeripheralBase<IOPinStatusCodes, 1u, Container<IOPinProperties, GpioPort, GpioPin, GpioMode, GpioState>>*), IOPinStatusCodes (*)(GpioPin const&, PeripheralBase<IOPinStatusCodes, 1u, Container<IOPinProperties, GpioPort, GpioPin, GpioMode, GpioState>>*), IOPinStatusCodes (*)(GpioMode const&, PeripheralBase<IOPinStatusCodes, 1u, Container<IOPinProperties, GpioPort, GpioPin, GpioMode, GpioState>>*), IOPinStatusCodes (*)(GpioState const&, PeripheralBase<IOPinStatusCodes, 1u, Container<IOPinProperties, GpioPort, GpioPin, GpioMode, GpioState>>*)> const&)
 .text._ZNSt11_Tuple_implILj1EJPF16IOPinStatusCodesRK7GpioPinP14PeripheralBaseIS0_Lj1E9ContainerI15IOPinPropertiesJ8GpioPortS1_8GpioMode9GpioStateEEJEEEPFS0_RKS8_SC_EPFS0_RKS9_SC_EEEC2ISE_JSI_SM_EvEEOT_DpOT0_
                0x08000dec       0x4a Debug/Drivers/GPIO/IOPin.o
                0x08000dec                std::_Tuple_impl<1u, IOPinStatusCodes (*)(GpioPin const&, PeripheralBase<IOPinStatusCodes, 1u, Container<IOPinProperties, GpioPort, GpioPin, GpioMode, GpioState>>*), IOPinStatusCodes (*)(GpioMode const&, PeripheralBase<IOPinStatusCodes, 1u, Container<IOPinProperties, GpioPort, GpioPin, GpioMode, GpioState>>*), IOPinStatusCodes (*)(GpioState const&, PeripheralBase<IOPinStatusCodes, 1u, Container<IOPinProperties, GpioPort, GpioPin, GpioMode, GpioState>>*)>::_Tuple_impl<IOPinStatusCodes (*)(GpioPin const&, PeripheralBase<IOPinStatusCodes, 1u, Container<IOPinProperties, GpioPort, GpioPin, GpioMode, GpioState>>*), IOPinStatusCodes (*)(GpioMode const&, PeripheralBase<IOPinStatusCodes, 1u, Container<IOPinProperties, GpioPort, GpioPin, GpioMode, GpioState>>*), IOPinStatusCodes (*)(GpioState const&, PeripheralBase<IOPinStatusCodes, 1u, Container<IOPinProperties, GpioPort, GpioPin, GpioMode, GpioState>>*), void>(IOPinStatusCodes (*&&)(GpioPin const&, PeripheralBase<IOPinStatusCodes, 1u, Container<IOPinProperties, GpioPort, GpioPin, GpioMode, GpioState>>*), IOPinStatusCodes (*&&)(GpioMode const&, PeripheralBase<IOPinStatusCodes, 1u, Container<IOPinProperties, GpioPort, GpioPin, GpioMode, GpioState>>*), IOPinStatusCodes (*&&)(GpioState const&, PeripheralBase<IOPinStatusCodes, 1u, Container<IOPinProperties, GpioPort, GpioPin, GpioMode, GpioState>>*))
                0x08000dec                std::_Tuple_impl<1u, IOPinStatusCodes (*)(GpioPin const&, PeripheralBase<IOPinStatusCodes, 1u, Container<IOPinProperties, GpioPort, GpioPin, GpioMode, GpioState>>*), IOPinStatusCodes (*)(GpioMode const&, PeripheralBase<IOPinStatusCodes, 1u, Container<IOPinProperties, GpioPort, GpioPin, GpioMode, GpioState>>*), IOPinStatusCodes (*)(GpioState const&, PeripheralBase<IOPinStatusCodes, 1u, Container<IOPinProperties, GpioPort, GpioPin, GpioMode, GpioState>>*)>::_Tuple_impl<IOPinStatusCodes (*)(GpioPin const&, PeripheralBase<IOPinStatusCodes, 1u, Container<IOPinProperties, GpioPort, GpioPin, GpioMode, GpioState>>*), IOPinStatusCodes (*)(GpioMode const&, PeripheralBase<IOPinStatusCodes, 1u, Container<IOPinProperties, GpioPort, GpioPin, GpioMode, GpioState>>*), IOPinStatusCodes (*)(GpioState const&, PeripheralBase<IOPinStatusCodes, 1u, Container<IOPinProperties, GpioPort, GpioPin, GpioMode, GpioState>>*), void>(IOPinStatusCodes (*&&)(GpioPin const&, PeripheralBase<IOPinStatusCodes, 1u, Container<IOPinProperties, GpioPort, GpioPin, GpioMode, GpioState>>*), IOPinStatusCodes (*&&)(GpioMode const&, PeripheralBase<IOPinStatusCodes, 1u, Container<IOPinProperties, GpioPort, GpioPin, GpioMode, GpioState>>*), IOPinStatusCodes (*&&)(GpioState const&, PeripheralBase<IOPinStatusCodes, 1u, Container<IOPinProperties, GpioPort, GpioPin, GpioMode, GpioState>>*))
 .text._ZNSt10_Head_baseILj0EPF16IOPinStatusCodesRK8GpioPortP14PeripheralBaseIS0_Lj1E9ContainerI15IOPinPropertiesJS1_7GpioPin8GpioMode9GpioStateEEJEEELb0EEC2ISE_EEOT_
                0x08000e36       0x22 Debug/Drivers/GPIO/IOPin.o
                0x08000e36                std::_Head_base<0u, IOPinStatusCodes (*)(GpioPort const&, PeripheralBase<IOPinStatusCodes, 1u, Container<IOPinProperties, GpioPort, GpioPin, GpioMode, GpioState>>*), false>::_Head_base<IOPinStatusCodes (*)(GpioPort const&, PeripheralBase<IOPinStatusCodes, 1u, Container<IOPinProperties, GpioPort, GpioPin, GpioMode, GpioState>>*)>(IOPinStatusCodes (*&&)(GpioPort const&, PeripheralBase<IOPinStatusCodes, 1u, Container<IOPinProperties, GpioPort, GpioPin, GpioMode, GpioState>>*))
                0x08000e36                std::_Head_base<0u, IOPinStatusCodes (*)(GpioPort const&, PeripheralBase<IOPinStatusCodes, 1u, Container<IOPinProperties, GpioPort, GpioPin, GpioMode, GpioState>>*), false>::_Head_base<IOPinStatusCodes (*)(GpioPort const&, PeripheralBase<IOPinStatusCodes, 1u, Container<IOPinProperties, GpioPort, GpioPin, GpioMode, GpioState>>*)>(IOPinStatusCodes (*&&)(GpioPort const&, PeripheralBase<IOPinStatusCodes, 1u, Container<IOPinProperties, GpioPort, GpioPin, GpioMode, GpioState>>*))
 .text._ZNSt5tupleIJ8GpioPort7GpioPin8GpioMode9GpioStateEEC2IvLb1EEEv
                0x08000e58       0x1a Debug/Drivers/GPIO/IOPin.o
                0x08000e58                std::tuple<GpioPort, GpioPin, GpioMode, GpioState>::tuple<void, true>()
                0x08000e58                std::tuple<GpioPort, GpioPin, GpioMode, GpioState>::tuple<void, true>()
 *fill*         0x08000e72        0x2 
 .text._ZN13ContainerBaseIJPF16IOPinStatusCodesRK8GpioPortP14PeripheralBaseIS0_Lj1E9ContainerI15IOPinPropertiesJS1_7GpioPin8GpioMode9GpioStateEEJEEEPFS0_RKS7_SC_EPFS0_RKS8_SC_EPFS0_RKS9_SC_EEEC2Ev
                0x08000e74       0x28 Debug/Drivers/GPIO/IOPin.o
                0x08000e74                ContainerBase<IOPinStatusCodes (*)(GpioPort const&, PeripheralBase<IOPinStatusCodes, 1u, Container<IOPinProperties, GpioPort, GpioPin, GpioMode, GpioState>>*), IOPinStatusCodes (*)(GpioPin const&, PeripheralBase<IOPinStatusCodes, 1u, Container<IOPinProperties, GpioPort, GpioPin, GpioMode, GpioState>>*), IOPinStatusCodes (*)(GpioMode const&, PeripheralBase<IOPinStatusCodes, 1u, Container<IOPinProperties, GpioPort, GpioPin, GpioMode, GpioState>>*), IOPinStatusCodes (*)(GpioState const&, PeripheralBase<IOPinStatusCodes, 1u, Container<IOPinProperties, GpioPort, GpioPin, GpioMode, GpioState>>*)>::ContainerBase()
                0x08000e74                ContainerBase<IOPinStatusCodes (*)(GpioPort const&, PeripheralBase<IOPinStatusCodes, 1u, Container<IOPinProperties, GpioPort, GpioPin, GpioMode, GpioState>>*), IOPinStatusCodes (*)(GpioPin const&, PeripheralBase<IOPinStatusCodes, 1u, Container<IOPinProperties, GpioPort, GpioPin, GpioMode, GpioState>>*), IOPinStatusCodes (*)(GpioMode const&, PeripheralBase<IOPinStatusCodes, 1u, Container<IOPinProperties, GpioPort, GpioPin, GpioMode, GpioState>>*), IOPinStatusCodes (*)(GpioState const&, PeripheralBase<IOPinStatusCodes, 1u, Container<IOPinProperties, GpioPort, GpioPin, GpioMode, GpioState>>*)>::ContainerBase()
 .text._ZNSt5tupleIJPF16IOPinStatusCodesRK8GpioPortP14PeripheralBaseIS0_Lj1E9ContainerI15IOPinPropertiesJS1_7GpioPin8GpioMode9GpioStateEEJEEEPFS0_RKS7_SC_EPFS0_RKS8_SC_EPFS0_RKS9_SC_EEEaSERKSR_
                0x08000e9c       0x20 Debug/Drivers/GPIO/IOPin.o
                0x08000e9c                std::tuple<IOPinStatusCodes (*)(GpioPort const&, PeripheralBase<IOPinStatusCodes, 1u, Container<IOPinProperties, GpioPort, GpioPin, GpioMode, GpioState>>*), IOPinStatusCodes (*)(GpioPin const&, PeripheralBase<IOPinStatusCodes, 1u, Container<IOPinProperties, GpioPort, GpioPin, GpioMode, GpioState>>*), IOPinStatusCodes (*)(GpioMode const&, PeripheralBase<IOPinStatusCodes, 1u, Container<IOPinProperties, GpioPort, GpioPin, GpioMode, GpioState>>*), IOPinStatusCodes (*)(GpioState const&, PeripheralBase<IOPinStatusCodes, 1u, Container<IOPinProperties, GpioPort, GpioPin, GpioMode, GpioState>>*)>::operator=(std::tuple<IOPinStatusCodes (*)(GpioPort const&, PeripheralBase<IOPinStatusCodes, 1u, Container<IOPinProperties, GpioPort, GpioPin, GpioMode, GpioState>>*), IOPinStatusCodes (*)(GpioPin const&, PeripheralBase<IOPinStatusCodes, 1u, Container<IOPinProperties, GpioPort, GpioPin, GpioMode, GpioState>>*), IOPinStatusCodes (*)(GpioMode const&, PeripheralBase<IOPinStatusCodes, 1u, Container<IOPinProperties, GpioPort, GpioPin, GpioMode, GpioState>>*), IOPinStatusCodes (*)(GpioState const&, PeripheralBase<IOPinStatusCodes, 1u, Container<IOPinProperties, GpioPort, GpioPin, GpioMode, GpioState>>*)> const&)
 .text._ZNSt11_Tuple_implILj2EJPF16IOPinStatusCodesRK8GpioModeP14PeripheralBaseIS0_Lj1E9ContainerI15IOPinPropertiesJ8GpioPort7GpioPinS1_9GpioStateEEJEEEPFS0_RKS9_SC_EEEC2ISE_JSI_EvEEOT_DpOT0_
                0x08000ebc       0x3c Debug/Drivers/GPIO/IOPin.o
                0x08000ebc                std::_Tuple_impl<2u, IOPinStatusCodes (*)(GpioMode const&, PeripheralBase<IOPinStatusCodes, 1u, Container<IOPinProperties, GpioPort, GpioPin, GpioMode, GpioState>>*), IOPinStatusCodes (*)(GpioState const&, PeripheralBase<IOPinStatusCodes, 1u, Container<IOPinProperties, GpioPort, GpioPin, GpioMode, GpioState>>*)>::_Tuple_impl<IOPinStatusCodes (*)(GpioMode const&, PeripheralBase<IOPinStatusCodes, 1u, Container<IOPinProperties, GpioPort, GpioPin, GpioMode, GpioState>>*), IOPinStatusCodes (*)(GpioState const&, PeripheralBase<IOPinStatusCodes, 1u, Container<IOPinProperties, GpioPort, GpioPin, GpioMode, GpioState>>*), void>(IOPinStatusCodes (*&&)(GpioMode const&, PeripheralBase<IOPinStatusCodes, 1u, Container<IOPinProperties, GpioPort, GpioPin, GpioMode, GpioState>>*), IOPinStatusCodes (*&&)(GpioState const&, PeripheralBase<IOPinStatusCodes, 1u, Container<IOPinProperties, GpioPort, GpioPin, GpioMode, GpioState>>*))
                0x08000ebc                std::_Tuple_impl<2u, IOPinStatusCodes (*)(GpioMode const&, PeripheralBase<IOPinStatusCodes, 1u, Container<IOPinProperties, GpioPort, GpioPin, GpioMode, GpioState>>*), IOPinStatusCodes (*)(GpioState const&, PeripheralBase<IOPinStatusCodes, 1u, Container<IOPinProperties, GpioPort, GpioPin, GpioMode, GpioState>>*)>::_Tuple_impl<IOPinStatusCodes (*)(GpioMode const&, PeripheralBase<IOPinStatusCodes, 1u, Container<IOPinProperties, GpioPort, GpioPin, GpioMode, GpioState>>*), IOPinStatusCodes (*)(GpioState const&, PeripheralBase<IOPinStatusCodes, 1u, Container<IOPinProperties, GpioPort, GpioPin, GpioMode, GpioState>>*), void>(IOPinStatusCodes (*&&)(GpioMode const&, PeripheralBase<IOPinStatusCodes, 1u, Container<IOPinProperties, GpioPort, GpioPin, GpioMode, GpioState>>*), IOPinStatusCodes (*&&)(GpioState const&, PeripheralBase<IOPinStatusCodes, 1u, Container<IOPinProperties, GpioPort, GpioPin, GpioMode, GpioState>>*))
 .text._ZNSt10_Head_baseILj1EPF16IOPinStatusCodesRK7GpioPinP14PeripheralBaseIS0_Lj1E9ContainerI15IOPinPropertiesJ8GpioPortS1_8GpioMode9GpioStateEEJEEELb0EEC2ISE_EEOT_
                0x08000ef8       0x22 Debug/Drivers/GPIO/IOPin.o
                0x08000ef8                std::_Head_base<1u, IOPinStatusCodes (*)(GpioPin const&, PeripheralBase<IOPinStatusCodes, 1u, Container<IOPinProperties, GpioPort, GpioPin, GpioMode, GpioState>>*), false>::_Head_base<IOPinStatusCodes (*)(GpioPin const&, PeripheralBase<IOPinStatusCodes, 1u, Container<IOPinProperties, GpioPort, GpioPin, GpioMode, GpioState>>*)>(IOPinStatusCodes (*&&)(GpioPin const&, PeripheralBase<IOPinStatusCodes, 1u, Container<IOPinProperties, GpioPort, GpioPin, GpioMode, GpioState>>*))
                0x08000ef8                std::_Head_base<1u, IOPinStatusCodes (*)(GpioPin const&, PeripheralBase<IOPinStatusCodes, 1u, Container<IOPinProperties, GpioPort, GpioPin, GpioMode, GpioState>>*), false>::_Head_base<IOPinStatusCodes (*)(GpioPin const&, PeripheralBase<IOPinStatusCodes, 1u, Container<IOPinProperties, GpioPort, GpioPin, GpioMode, GpioState>>*)>(IOPinStatusCodes (*&&)(GpioPin const&, PeripheralBase<IOPinStatusCodes, 1u, Container<IOPinProperties, GpioPort, GpioPin, GpioMode, GpioState>>*))
 .text._ZNSt11_Tuple_implILj0EJ8GpioPort7GpioPin8GpioMode9GpioStateEEC2Ev
                0x08000f1a       0x24 Debug/Drivers/GPIO/IOPin.o
                0x08000f1a                std::_Tuple_impl<0u, GpioPort, GpioPin, GpioMode, GpioState>::_Tuple_impl()
                0x08000f1a                std::_Tuple_impl<0u, GpioPort, GpioPin, GpioMode, GpioState>::_Tuple_impl()
 .text._ZNSt5tupleIJPF16IOPinStatusCodesRK8GpioPortP14PeripheralBaseIS0_Lj1E9ContainerI15IOPinPropertiesJS1_7GpioPin8GpioMode9GpioStateEEJEEEPFS0_RKS7_SC_EPFS0_RKS8_SC_EPFS0_RKS9_SC_EEEC2IvLb1EEEv
                0x08000f3e       0x1a Debug/Drivers/GPIO/IOPin.o
                0x08000f3e                std::tuple<IOPinStatusCodes (*)(GpioPort const&, PeripheralBase<IOPinStatusCodes, 1u, Container<IOPinProperties, GpioPort, GpioPin, GpioMode, GpioState>>*), IOPinStatusCodes (*)(GpioPin const&, PeripheralBase<IOPinStatusCodes, 1u, Container<IOPinProperties, GpioPort, GpioPin, GpioMode, GpioState>>*), IOPinStatusCodes (*)(GpioMode const&, PeripheralBase<IOPinStatusCodes, 1u, Container<IOPinProperties, GpioPort, GpioPin, GpioMode, GpioState>>*), IOPinStatusCodes (*)(GpioState const&, PeripheralBase<IOPinStatusCodes, 1u, Container<IOPinProperties, GpioPort, GpioPin, GpioMode, GpioState>>*)>::tuple<void, true>()
                0x08000f3e                std::tuple<IOPinStatusCodes (*)(GpioPort const&, PeripheralBase<IOPinStatusCodes, 1u, Container<IOPinProperties, GpioPort, GpioPin, GpioMode, GpioState>>*), IOPinStatusCodes (*)(GpioPin const&, PeripheralBase<IOPinStatusCodes, 1u, Container<IOPinProperties, GpioPort, GpioPin, GpioMode, GpioState>>*), IOPinStatusCodes (*)(GpioMode const&, PeripheralBase<IOPinStatusCodes, 1u, Container<IOPinProperties, GpioPort, GpioPin, GpioMode, GpioState>>*), IOPinStatusCodes (*)(GpioState const&, PeripheralBase<IOPinStatusCodes, 1u, Container<IOPinProperties, GpioPort, GpioPin, GpioMode, GpioState>>*)>::tuple<void, true>()
 .text._ZNSt11_Tuple_implILj0EJPF16IOPinStatusCodesRK8GpioPortP14PeripheralBaseIS0_Lj1E9ContainerI15IOPinPropertiesJS1_7GpioPin8GpioMode9GpioStateEEJEEEPFS0_RKS7_SC_EPFS0_RKS8_SC_EPFS0_RKS9_SC_EEE9_M_assignIJSE_SI_SM_SQ_EEEvRKS_ILj0EJDpT_EE
                0x08000f58       0x3e Debug/Drivers/GPIO/IOPin.o
                0x08000f58                void std::_Tuple_impl<0u, IOPinStatusCodes (*)(GpioPort const&, PeripheralBase<IOPinStatusCodes, 1u, Container<IOPinProperties, GpioPort, GpioPin, GpioMode, GpioState>>*), IOPinStatusCodes (*)(GpioPin const&, PeripheralBase<IOPinStatusCodes, 1u, Container<IOPinProperties, GpioPort, GpioPin, GpioMode, GpioState>>*), IOPinStatusCodes (*)(GpioMode const&, PeripheralBase<IOPinStatusCodes, 1u, Container<IOPinProperties, GpioPort, GpioPin, GpioMode, GpioState>>*), IOPinStatusCodes (*)(GpioState const&, PeripheralBase<IOPinStatusCodes, 1u, Container<IOPinProperties, GpioPort, GpioPin, GpioMode, GpioState>>*)>::_M_assign<IOPinStatusCodes (*)(GpioPort const&, PeripheralBase<IOPinStatusCodes, 1u, Container<IOPinProperties, GpioPort, GpioPin, GpioMode, GpioState>>*), IOPinStatusCodes (*)(GpioPin const&, PeripheralBase<IOPinStatusCodes, 1u, Container<IOPinProperties, GpioPort, GpioPin, GpioMode, GpioState>>*), IOPinStatusCodes (*)(GpioMode const&, PeripheralBase<IOPinStatusCodes, 1u, Container<IOPinProperties, GpioPort, GpioPin, GpioMode, GpioState>>*), IOPinStatusCodes (*)(GpioState const&, PeripheralBase<IOPinStatusCodes, 1u, Container<IOPinProperties, GpioPort, GpioPin, GpioMode, GpioState>>*)>(std::_Tuple_impl<0u, IOPinStatusCodes (*)(GpioPort const&, PeripheralBase<IOPinStatusCodes, 1u, Container<IOPinProperties, GpioPort, GpioPin, GpioMode, GpioState>>*), IOPinStatusCodes (*)(GpioPin const&, PeripheralBase<IOPinStatusCodes, 1u, Container<IOPinProperties, GpioPort, GpioPin, GpioMode, GpioState>>*), IOPinStatusCodes (*)(GpioMode const&, PeripheralBase<IOPinStatusCodes, 1u, Container<IOPinProperties, GpioPort, GpioPin, GpioMode, GpioState>>*), IOPinStatusCodes (*)(GpioState const&, PeripheralBase<IOPinStatusCodes, 1u, Container<IOPinProperties, GpioPort, GpioPin, GpioMode, GpioState>>*)> const&)
 .text._ZNSt11_Tuple_implILj3EJPF16IOPinStatusCodesRK9GpioStateP14PeripheralBaseIS0_Lj1E9ContainerI15IOPinPropertiesJ8GpioPort7GpioPin8GpioModeS1_EEJEEEEEC2ISE_EEOT_
                0x08000f96       0x26 Debug/Drivers/GPIO/IOPin.o
                0x08000f96                std::_Tuple_impl<3u, IOPinStatusCodes (*)(GpioState const&, PeripheralBase<IOPinStatusCodes, 1u, Container<IOPinProperties, GpioPort, GpioPin, GpioMode, GpioState>>*)>::_Tuple_impl<IOPinStatusCodes (*)(GpioState const&, PeripheralBase<IOPinStatusCodes, 1u, Container<IOPinProperties, GpioPort, GpioPin, GpioMode, GpioState>>*)>(IOPinStatusCodes (*&&)(GpioState const&, PeripheralBase<IOPinStatusCodes, 1u, Container<IOPinProperties, GpioPort, GpioPin, GpioMode, GpioState>>*))
                0x08000f96                std::_Tuple_impl<3u, IOPinStatusCodes (*)(GpioState const&, PeripheralBase<IOPinStatusCodes, 1u, Container<IOPinProperties, GpioPort, GpioPin, GpioMode, GpioState>>*)>::_Tuple_impl<IOPinStatusCodes (*)(GpioState const&, PeripheralBase<IOPinStatusCodes, 1u, Container<IOPinProperties, GpioPort, GpioPin, GpioMode, GpioState>>*)>(IOPinStatusCodes (*&&)(GpioState const&, PeripheralBase<IOPinStatusCodes, 1u, Container<IOPinProperties, GpioPort, GpioPin, GpioMode, GpioState>>*))
 .text._ZNSt10_Head_baseILj2EPF16IOPinStatusCodesRK8GpioModeP14PeripheralBaseIS0_Lj1E9ContainerI15IOPinPropertiesJ8GpioPort7GpioPinS1_9GpioStateEEJEEELb0EEC2ISE_EEOT_
                0x08000fbc       0x22 Debug/Drivers/GPIO/IOPin.o
                0x08000fbc                std::_Head_base<2u, IOPinStatusCodes (*)(GpioMode const&, PeripheralBase<IOPinStatusCodes, 1u, Container<IOPinProperties, GpioPort, GpioPin, GpioMode, GpioState>>*), false>::_Head_base<IOPinStatusCodes (*)(GpioMode const&, PeripheralBase<IOPinStatusCodes, 1u, Container<IOPinProperties, GpioPort, GpioPin, GpioMode, GpioState>>*)>(IOPinStatusCodes (*&&)(GpioMode const&, PeripheralBase<IOPinStatusCodes, 1u, Container<IOPinProperties, GpioPort, GpioPin, GpioMode, GpioState>>*))
                0x08000fbc                std::_Head_base<2u, IOPinStatusCodes (*)(GpioMode const&, PeripheralBase<IOPinStatusCodes, 1u, Container<IOPinProperties, GpioPort, GpioPin, GpioMode, GpioState>>*), false>::_Head_base<IOPinStatusCodes (*)(GpioMode const&, PeripheralBase<IOPinStatusCodes, 1u, Container<IOPinProperties, GpioPort, GpioPin, GpioMode, GpioState>>*)>(IOPinStatusCodes (*&&)(GpioMode const&, PeripheralBase<IOPinStatusCodes, 1u, Container<IOPinProperties, GpioPort, GpioPin, GpioMode, GpioState>>*))
 .text._ZNSt11_Tuple_implILj1EJ7GpioPin8GpioMode9GpioStateEEC2Ev
                0x08000fde       0x24 Debug/Drivers/GPIO/IOPin.o
                0x08000fde                std::_Tuple_impl<1u, GpioPin, GpioMode, GpioState>::_Tuple_impl()
                0x08000fde                std::_Tuple_impl<1u, GpioPin, GpioMode, GpioState>::_Tuple_impl()
 .text._ZNSt10_Head_baseILj0E8GpioPortLb0EEC2Ev
                0x08001002       0x1c Debug/Drivers/GPIO/IOPin.o
                0x08001002                std::_Head_base<0u, GpioPort, false>::_Head_base()
                0x08001002                std::_Head_base<0u, GpioPort, false>::_Head_base()
 .text._ZNSt11_Tuple_implILj0EJPF16IOPinStatusCodesRK8GpioPortP14PeripheralBaseIS0_Lj1E9ContainerI15IOPinPropertiesJS1_7GpioPin8GpioMode9GpioStateEEJEEEPFS0_RKS7_SC_EPFS0_RKS8_SC_EPFS0_RKS9_SC_EEEC2Ev
                0x0800101e       0x24 Debug/Drivers/GPIO/IOPin.o
                0x0800101e                std::_Tuple_impl<0u, IOPinStatusCodes (*)(GpioPort const&, PeripheralBase<IOPinStatusCodes, 1u, Container<IOPinProperties, GpioPort, GpioPin, GpioMode, GpioState>>*), IOPinStatusCodes (*)(GpioPin const&, PeripheralBase<IOPinStatusCodes, 1u, Container<IOPinProperties, GpioPort, GpioPin, GpioMode, GpioState>>*), IOPinStatusCodes (*)(GpioMode const&, PeripheralBase<IOPinStatusCodes, 1u, Container<IOPinProperties, GpioPort, GpioPin, GpioMode, GpioState>>*), IOPinStatusCodes (*)(GpioState const&, PeripheralBase<IOPinStatusCodes, 1u, Container<IOPinProperties, GpioPort, GpioPin, GpioMode, GpioState>>*)>::_Tuple_impl()
                0x0800101e                std::_Tuple_impl<0u, IOPinStatusCodes (*)(GpioPort const&, PeripheralBase<IOPinStatusCodes, 1u, Container<IOPinProperties, GpioPort, GpioPin, GpioMode, GpioState>>*), IOPinStatusCodes (*)(GpioPin const&, PeripheralBase<IOPinStatusCodes, 1u, Container<IOPinProperties, GpioPort, GpioPin, GpioMode, GpioState>>*), IOPinStatusCodes (*)(GpioMode const&, PeripheralBase<IOPinStatusCodes, 1u, Container<IOPinProperties, GpioPort, GpioPin, GpioMode, GpioState>>*), IOPinStatusCodes (*)(GpioState const&, PeripheralBase<IOPinStatusCodes, 1u, Container<IOPinProperties, GpioPort, GpioPin, GpioMode, GpioState>>*)>::_Tuple_impl()
 .text._ZNSt11_Tuple_implILj0EJPF16IOPinStatusCodesRK8GpioPortP14PeripheralBaseIS0_Lj1E9ContainerI15IOPinPropertiesJS1_7GpioPin8GpioMode9GpioStateEEJEEEPFS0_RKS7_SC_EPFS0_RKS8_SC_EPFS0_RKS9_SC_EEE7_M_headERSR_
                0x08001042       0x1c Debug/Drivers/GPIO/IOPin.o
                0x08001042                std::_Tuple_impl<0u, IOPinStatusCodes (*)(GpioPort const&, PeripheralBase<IOPinStatusCodes, 1u, Container<IOPinProperties, GpioPort, GpioPin, GpioMode, GpioState>>*), IOPinStatusCodes (*)(GpioPin const&, PeripheralBase<IOPinStatusCodes, 1u, Container<IOPinProperties, GpioPort, GpioPin, GpioMode, GpioState>>*), IOPinStatusCodes (*)(GpioMode const&, PeripheralBase<IOPinStatusCodes, 1u, Container<IOPinProperties, GpioPort, GpioPin, GpioMode, GpioState>>*), IOPinStatusCodes (*)(GpioState const&, PeripheralBase<IOPinStatusCodes, 1u, Container<IOPinProperties, GpioPort, GpioPin, GpioMode, GpioState>>*)>::_M_head(std::_Tuple_impl<0u, IOPinStatusCodes (*)(GpioPort const&, PeripheralBase<IOPinStatusCodes, 1u, Container<IOPinProperties, GpioPort, GpioPin, GpioMode, GpioState>>*), IOPinStatusCodes (*)(GpioPin const&, PeripheralBase<IOPinStatusCodes, 1u, Container<IOPinProperties, GpioPort, GpioPin, GpioMode, GpioState>>*), IOPinStatusCodes (*)(GpioMode const&, PeripheralBase<IOPinStatusCodes, 1u, Container<IOPinProperties, GpioPort, GpioPin, GpioMode, GpioState>>*), IOPinStatusCodes (*)(GpioState const&, PeripheralBase<IOPinStatusCodes, 1u, Container<IOPinProperties, GpioPort, GpioPin, GpioMode, GpioState>>*)>&)
 .text._ZNSt11_Tuple_implILj0EJPF16IOPinStatusCodesRK8GpioPortP14PeripheralBaseIS0_Lj1E9ContainerI15IOPinPropertiesJS1_7GpioPin8GpioMode9GpioStateEEJEEEPFS0_RKS7_SC_EPFS0_RKS8_SC_EPFS0_RKS9_SC_EEE7_M_headERKSR_
                0x0800105e       0x1c Debug/Drivers/GPIO/IOPin.o
                0x0800105e                std::_Tuple_impl<0u, IOPinStatusCodes (*)(GpioPort const&, PeripheralBase<IOPinStatusCodes, 1u, Container<IOPinProperties, GpioPort, GpioPin, GpioMode, GpioState>>*), IOPinStatusCodes (*)(GpioPin const&, PeripheralBase<IOPinStatusCodes, 1u, Container<IOPinProperties, GpioPort, GpioPin, GpioMode, GpioState>>*), IOPinStatusCodes (*)(GpioMode const&, PeripheralBase<IOPinStatusCodes, 1u, Container<IOPinProperties, GpioPort, GpioPin, GpioMode, GpioState>>*), IOPinStatusCodes (*)(GpioState const&, PeripheralBase<IOPinStatusCodes, 1u, Container<IOPinProperties, GpioPort, GpioPin, GpioMode, GpioState>>*)>::_M_head(std::_Tuple_impl<0u, IOPinStatusCodes (*)(GpioPort const&, PeripheralBase<IOPinStatusCodes, 1u, Container<IOPinProperties, GpioPort, GpioPin, GpioMode, GpioState>>*), IOPinStatusCodes (*)(GpioPin const&, PeripheralBase<IOPinStatusCodes, 1u, Container<IOPinProperties, GpioPort, GpioPin, GpioMode, GpioState>>*), IOPinStatusCodes (*)(GpioMode const&, PeripheralBase<IOPinStatusCodes, 1u, Container<IOPinProperties, GpioPort, GpioPin, GpioMode, GpioState>>*), IOPinStatusCodes (*)(GpioState const&, PeripheralBase<IOPinStatusCodes, 1u, Container<IOPinProperties, GpioPort, GpioPin, GpioMode, GpioState>>*)> const&)
 .text._ZNSt11_Tuple_implILj0EJPF16IOPinStatusCodesRK8GpioPortP14PeripheralBaseIS0_Lj1E9ContainerI15IOPinPropertiesJS1_7GpioPin8GpioMode9GpioStateEEJEEEPFS0_RKS7_SC_EPFS0_RKS8_SC_EPFS0_RKS9_SC_EEE7_M_tailERSR_
                0x0800107a       0x16 Debug/Drivers/GPIO/IOPin.o
                0x0800107a                std::_Tuple_impl<0u, IOPinStatusCodes (*)(GpioPort const&, PeripheralBase<IOPinStatusCodes, 1u, Container<IOPinProperties, GpioPort, GpioPin, GpioMode, GpioState>>*), IOPinStatusCodes (*)(GpioPin const&, PeripheralBase<IOPinStatusCodes, 1u, Container<IOPinProperties, GpioPort, GpioPin, GpioMode, GpioState>>*), IOPinStatusCodes (*)(GpioMode const&, PeripheralBase<IOPinStatusCodes, 1u, Container<IOPinProperties, GpioPort, GpioPin, GpioMode, GpioState>>*), IOPinStatusCodes (*)(GpioState const&, PeripheralBase<IOPinStatusCodes, 1u, Container<IOPinProperties, GpioPort, GpioPin, GpioMode, GpioState>>*)>::_M_tail(std::_Tuple_impl<0u, IOPinStatusCodes (*)(GpioPort const&, PeripheralBase<IOPinStatusCodes, 1u, Container<IOPinProperties, GpioPort, GpioPin, GpioMode, GpioState>>*), IOPinStatusCodes (*)(GpioPin const&, PeripheralBase<IOPinStatusCodes, 1u, Container<IOPinProperties, GpioPort, GpioPin, GpioMode, GpioState>>*), IOPinStatusCodes (*)(GpioMode const&, PeripheralBase<IOPinStatusCodes, 1u, Container<IOPinProperties, GpioPort, GpioPin, GpioMode, GpioState>>*), IOPinStatusCodes (*)(GpioState const&, PeripheralBase<IOPinStatusCodes, 1u, Container<IOPinProperties, GpioPort, GpioPin, GpioMode, GpioState>>*)>&)
 .text._ZNSt11_Tuple_implILj0EJPF16IOPinStatusCodesRK8GpioPortP14PeripheralBaseIS0_Lj1E9ContainerI15IOPinPropertiesJS1_7GpioPin8GpioMode9GpioStateEEJEEEPFS0_RKS7_SC_EPFS0_RKS8_SC_EPFS0_RKS9_SC_EEE7_M_tailERKSR_
                0x08001090       0x16 Debug/Drivers/GPIO/IOPin.o
                0x08001090                std::_Tuple_impl<0u, IOPinStatusCodes (*)(GpioPort const&, PeripheralBase<IOPinStatusCodes, 1u, Container<IOPinProperties, GpioPort, GpioPin, GpioMode, GpioState>>*), IOPinStatusCodes (*)(GpioPin const&, PeripheralBase<IOPinStatusCodes, 1u, Container<IOPinProperties, GpioPort, GpioPin, GpioMode, GpioState>>*), IOPinStatusCodes (*)(GpioMode const&, PeripheralBase<IOPinStatusCodes, 1u, Container<IOPinProperties, GpioPort, GpioPin, GpioMode, GpioState>>*), IOPinStatusCodes (*)(GpioState const&, PeripheralBase<IOPinStatusCodes, 1u, Container<IOPinProperties, GpioPort, GpioPin, GpioMode, GpioState>>*)>::_M_tail(std::_Tuple_impl<0u, IOPinStatusCodes (*)(GpioPort const&, PeripheralBase<IOPinStatusCodes, 1u, Container<IOPinProperties, GpioPort, GpioPin, GpioMode, GpioState>>*), IOPinStatusCodes (*)(GpioPin const&, PeripheralBase<IOPinStatusCodes, 1u, Container<IOPinProperties, GpioPort, GpioPin, GpioMode, GpioState>>*), IOPinStatusCodes (*)(GpioMode const&, PeripheralBase<IOPinStatusCodes, 1u, Container<IOPinProperties, GpioPort, GpioPin, GpioMode, GpioState>>*), IOPinStatusCodes (*)(GpioState const&, PeripheralBase<IOPinStatusCodes, 1u, Container<IOPinProperties, GpioPort, GpioPin, GpioMode, GpioState>>*)> const&)
 .text._ZNSt11_Tuple_implILj1EJPF16IOPinStatusCodesRK7GpioPinP14PeripheralBaseIS0_Lj1E9ContainerI15IOPinPropertiesJ8GpioPortS1_8GpioMode9GpioStateEEJEEEPFS0_RKS8_SC_EPFS0_RKS9_SC_EEE9_M_assignIJSE_SI_SM_EEEvRKS_ILj1EJDpT_EE
                0x080010a6       0x3e Debug/Drivers/GPIO/IOPin.o
                0x080010a6                void std::_Tuple_impl<1u, IOPinStatusCodes (*)(GpioPin const&, PeripheralBase<IOPinStatusCodes, 1u, Container<IOPinProperties, GpioPort, GpioPin, GpioMode, GpioState>>*), IOPinStatusCodes (*)(GpioMode const&, PeripheralBase<IOPinStatusCodes, 1u, Container<IOPinProperties, GpioPort, GpioPin, GpioMode, GpioState>>*), IOPinStatusCodes (*)(GpioState const&, PeripheralBase<IOPinStatusCodes, 1u, Container<IOPinProperties, GpioPort, GpioPin, GpioMode, GpioState>>*)>::_M_assign<IOPinStatusCodes (*)(GpioPin const&, PeripheralBase<IOPinStatusCodes, 1u, Container<IOPinProperties, GpioPort, GpioPin, GpioMode, GpioState>>*), IOPinStatusCodes (*)(GpioMode const&, PeripheralBase<IOPinStatusCodes, 1u, Container<IOPinProperties, GpioPort, GpioPin, GpioMode, GpioState>>*), IOPinStatusCodes (*)(GpioState const&, PeripheralBase<IOPinStatusCodes, 1u, Container<IOPinProperties, GpioPort, GpioPin, GpioMode, GpioState>>*)>(std::_Tuple_impl<1u, IOPinStatusCodes (*)(GpioPin const&, PeripheralBase<IOPinStatusCodes, 1u, Container<IOPinProperties, GpioPort, GpioPin, GpioMode, GpioState>>*), IOPinStatusCodes (*)(GpioMode const&, PeripheralBase<IOPinStatusCodes, 1u, Container<IOPinProperties, GpioPort, GpioPin, GpioMode, GpioState>>*), IOPinStatusCodes (*)(GpioState const&, PeripheralBase<IOPinStatusCodes, 1u, Container<IOPinProperties, GpioPort, GpioPin, GpioMode, GpioState>>*)> const&)
 .text._ZNSt10_Head_baseILj3EPF16IOPinStatusCodesRK9GpioStateP14PeripheralBaseIS0_Lj1E9ContainerI15IOPinPropertiesJ8GpioPort7GpioPin8GpioModeS1_EEJEEELb0EEC2ISE_EEOT_
                0x080010e4       0x22 Debug/Drivers/GPIO/IOPin.o
                0x080010e4                std::_Head_base<3u, IOPinStatusCodes (*)(GpioState const&, PeripheralBase<IOPinStatusCodes, 1u, Container<IOPinProperties, GpioPort, GpioPin, GpioMode, GpioState>>*), false>::_Head_base<IOPinStatusCodes (*)(GpioState const&, PeripheralBase<IOPinStatusCodes, 1u, Container<IOPinProperties, GpioPort, GpioPin, GpioMode, GpioState>>*)>(IOPinStatusCodes (*&&)(GpioState const&, PeripheralBase<IOPinStatusCodes, 1u, Container<IOPinProperties, GpioPort, GpioPin, GpioMode, GpioState>>*))
                0x080010e4                std::_Head_base<3u, IOPinStatusCodes (*)(GpioState const&, PeripheralBase<IOPinStatusCodes, 1u, Container<IOPinProperties, GpioPort, GpioPin, GpioMode, GpioState>>*), false>::_Head_base<IOPinStatusCodes (*)(GpioState const&, PeripheralBase<IOPinStatusCodes, 1u, Container<IOPinProperties, GpioPort, GpioPin, GpioMode, GpioState>>*)>(IOPinStatusCodes (*&&)(GpioState const&, PeripheralBase<IOPinStatusCodes, 1u, Container<IOPinProperties, GpioPort, GpioPin, GpioMode, GpioState>>*))
 .text._ZNSt11_Tuple_implILj2EJ8GpioMode9GpioStateEEC2Ev
                0x08001106       0x24 Debug/Drivers/GPIO/IOPin.o
                0x08001106                std::_Tuple_impl<2u, GpioMode, GpioState>::_Tuple_impl()
                0x08001106                std::_Tuple_impl<2u, GpioMode, GpioState>::_Tuple_impl()
 .text._ZNSt10_Head_baseILj1E7GpioPinLb0EEC2Ev
                0x0800112a       0x1c Debug/Drivers/GPIO/IOPin.o
                0x0800112a                std::_Head_base<1u, GpioPin, false>::_Head_base()
                0x0800112a                std::_Head_base<1u, GpioPin, false>::_Head_base()
 .text._ZNSt11_Tuple_implILj1EJPF16IOPinStatusCodesRK7GpioPinP14PeripheralBaseIS0_Lj1E9ContainerI15IOPinPropertiesJ8GpioPortS1_8GpioMode9GpioStateEEJEEEPFS0_RKS8_SC_EPFS0_RKS9_SC_EEEC2Ev
                0x08001146       0x24 Debug/Drivers/GPIO/IOPin.o
                0x08001146                std::_Tuple_impl<1u, IOPinStatusCodes (*)(GpioPin const&, PeripheralBase<IOPinStatusCodes, 1u, Container<IOPinProperties, GpioPort, GpioPin, GpioMode, GpioState>>*), IOPinStatusCodes (*)(GpioMode const&, PeripheralBase<IOPinStatusCodes, 1u, Container<IOPinProperties, GpioPort, GpioPin, GpioMode, GpioState>>*), IOPinStatusCodes (*)(GpioState const&, PeripheralBase<IOPinStatusCodes, 1u, Container<IOPinProperties, GpioPort, GpioPin, GpioMode, GpioState>>*)>::_Tuple_impl()
                0x08001146                std::_Tuple_impl<1u, IOPinStatusCodes (*)(GpioPin const&, PeripheralBase<IOPinStatusCodes, 1u, Container<IOPinProperties, GpioPort, GpioPin, GpioMode, GpioState>>*), IOPinStatusCodes (*)(GpioMode const&, PeripheralBase<IOPinStatusCodes, 1u, Container<IOPinProperties, GpioPort, GpioPin, GpioMode, GpioState>>*), IOPinStatusCodes (*)(GpioState const&, PeripheralBase<IOPinStatusCodes, 1u, Container<IOPinProperties, GpioPort, GpioPin, GpioMode, GpioState>>*)>::_Tuple_impl()
 .text._ZNSt10_Head_baseILj0EPF16IOPinStatusCodesRK8GpioPortP14PeripheralBaseIS0_Lj1E9ContainerI15IOPinPropertiesJS1_7GpioPin8GpioMode9GpioStateEEJEEELb0EEC2Ev
                0x0800116a       0x1c Debug/Drivers/GPIO/IOPin.o
                0x0800116a                std::_Head_base<0u, IOPinStatusCodes (*)(GpioPort const&, PeripheralBase<IOPinStatusCodes, 1u, Container<IOPinProperties, GpioPort, GpioPin, GpioMode, GpioState>>*), false>::_Head_base()
                0x0800116a                std::_Head_base<0u, IOPinStatusCodes (*)(GpioPort const&, PeripheralBase<IOPinStatusCodes, 1u, Container<IOPinProperties, GpioPort, GpioPin, GpioMode, GpioState>>*), false>::_Head_base()
 .text._ZNSt10_Head_baseILj0EPF16IOPinStatusCodesRK8GpioPortP14PeripheralBaseIS0_Lj1E9ContainerI15IOPinPropertiesJS1_7GpioPin8GpioMode9GpioStateEEJEEELb0EE7_M_headERSF_
                0x08001186       0x16 Debug/Drivers/GPIO/IOPin.o
                0x08001186                std::_Head_base<0u, IOPinStatusCodes (*)(GpioPort const&, PeripheralBase<IOPinStatusCodes, 1u, Container<IOPinProperties, GpioPort, GpioPin, GpioMode, GpioState>>*), false>::_M_head(std::_Head_base<0u, IOPinStatusCodes (*)(GpioPort const&, PeripheralBase<IOPinStatusCodes, 1u, Container<IOPinProperties, GpioPort, GpioPin, GpioMode, GpioState>>*), false>&)
 .text._ZNSt10_Head_baseILj0EPF16IOPinStatusCodesRK8GpioPortP14PeripheralBaseIS0_Lj1E9ContainerI15IOPinPropertiesJS1_7GpioPin8GpioMode9GpioStateEEJEEELb0EE7_M_headERKSF_
                0x0800119c       0x16 Debug/Drivers/GPIO/IOPin.o
                0x0800119c                std::_Head_base<0u, IOPinStatusCodes (*)(GpioPort const&, PeripheralBase<IOPinStatusCodes, 1u, Container<IOPinProperties, GpioPort, GpioPin, GpioMode, GpioState>>*), false>::_M_head(std::_Head_base<0u, IOPinStatusCodes (*)(GpioPort const&, PeripheralBase<IOPinStatusCodes, 1u, Container<IOPinProperties, GpioPort, GpioPin, GpioMode, GpioState>>*), false> const&)
 .text._ZNSt11_Tuple_implILj1EJPF16IOPinStatusCodesRK7GpioPinP14PeripheralBaseIS0_Lj1E9ContainerI15IOPinPropertiesJ8GpioPortS1_8GpioMode9GpioStateEEJEEEPFS0_RKS8_SC_EPFS0_RKS9_SC_EEE7_M_headERSN_
                0x080011b2       0x1c Debug/Drivers/GPIO/IOPin.o
                0x080011b2                std::_Tuple_impl<1u, IOPinStatusCodes (*)(GpioPin const&, PeripheralBase<IOPinStatusCodes, 1u, Container<IOPinProperties, GpioPort, GpioPin, GpioMode, GpioState>>*), IOPinStatusCodes (*)(GpioMode const&, PeripheralBase<IOPinStatusCodes, 1u, Container<IOPinProperties, GpioPort, GpioPin, GpioMode, GpioState>>*), IOPinStatusCodes (*)(GpioState const&, PeripheralBase<IOPinStatusCodes, 1u, Container<IOPinProperties, GpioPort, GpioPin, GpioMode, GpioState>>*)>::_M_head(std::_Tuple_impl<1u, IOPinStatusCodes (*)(GpioPin const&, PeripheralBase<IOPinStatusCodes, 1u, Container<IOPinProperties, GpioPort, GpioPin, GpioMode, GpioState>>*), IOPinStatusCodes (*)(GpioMode const&, PeripheralBase<IOPinStatusCodes, 1u, Container<IOPinProperties, GpioPort, GpioPin, GpioMode, GpioState>>*), IOPinStatusCodes (*)(GpioState const&, PeripheralBase<IOPinStatusCodes, 1u, Container<IOPinProperties, GpioPort, GpioPin, GpioMode, GpioState>>*)>&)
 .text._ZNSt11_Tuple_implILj1EJPF16IOPinStatusCodesRK7GpioPinP14PeripheralBaseIS0_Lj1E9ContainerI15IOPinPropertiesJ8GpioPortS1_8GpioMode9GpioStateEEJEEEPFS0_RKS8_SC_EPFS0_RKS9_SC_EEE7_M_headERKSN_
                0x080011ce       0x1c Debug/Drivers/GPIO/IOPin.o
                0x080011ce                std::_Tuple_impl<1u, IOPinStatusCodes (*)(GpioPin const&, PeripheralBase<IOPinStatusCodes, 1u, Container<IOPinProperties, GpioPort, GpioPin, GpioMode, GpioState>>*), IOPinStatusCodes (*)(GpioMode const&, PeripheralBase<IOPinStatusCodes, 1u, Container<IOPinProperties, GpioPort, GpioPin, GpioMode, GpioState>>*), IOPinStatusCodes (*)(GpioState const&, PeripheralBase<IOPinStatusCodes, 1u, Container<IOPinProperties, GpioPort, GpioPin, GpioMode, GpioState>>*)>::_M_head(std::_Tuple_impl<1u, IOPinStatusCodes (*)(GpioPin const&, PeripheralBase<IOPinStatusCodes, 1u, Container<IOPinProperties, GpioPort, GpioPin, GpioMode, GpioState>>*), IOPinStatusCodes (*)(GpioMode const&, PeripheralBase<IOPinStatusCodes, 1u, Container<IOPinProperties, GpioPort, GpioPin, GpioMode, GpioState>>*), IOPinStatusCodes (*)(GpioState const&, PeripheralBase<IOPinStatusCodes, 1u, Container<IOPinProperties, GpioPort, GpioPin, GpioMode, GpioState>>*)> const&)
 .text._ZNSt11_Tuple_implILj1EJPF16IOPinStatusCodesRK7GpioPinP14PeripheralBaseIS0_Lj1E9ContainerI15IOPinPropertiesJ8GpioPortS1_8GpioMode9GpioStateEEJEEEPFS0_RKS8_SC_EPFS0_RKS9_SC_EEE7_M_tailERSN_
                0x080011ea       0x16 Debug/Drivers/GPIO/IOPin.o
                0x080011ea                std::_Tuple_impl<1u, IOPinStatusCodes (*)(GpioPin const&, PeripheralBase<IOPinStatusCodes, 1u, Container<IOPinProperties, GpioPort, GpioPin, GpioMode, GpioState>>*), IOPinStatusCodes (*)(GpioMode const&, PeripheralBase<IOPinStatusCodes, 1u, Container<IOPinProperties, GpioPort, GpioPin, GpioMode, GpioState>>*), IOPinStatusCodes (*)(GpioState const&, PeripheralBase<IOPinStatusCodes, 1u, Container<IOPinProperties, GpioPort, GpioPin, GpioMode, GpioState>>*)>::_M_tail(std::_Tuple_impl<1u, IOPinStatusCodes (*)(GpioPin const&, PeripheralBase<IOPinStatusCodes, 1u, Container<IOPinProperties, GpioPort, GpioPin, GpioMode, GpioState>>*), IOPinStatusCodes (*)(GpioMode const&, PeripheralBase<IOPinStatusCodes, 1u, Container<IOPinProperties, GpioPort, GpioPin, GpioMode, GpioState>>*), IOPinStatusCodes (*)(GpioState const&, PeripheralBase<IOPinStatusCodes, 1u, Container<IOPinProperties, GpioPort, GpioPin, GpioMode, GpioState>>*)>&)
 .text._ZNSt11_Tuple_implILj1EJPF16IOPinStatusCodesRK7GpioPinP14PeripheralBaseIS0_Lj1E9ContainerI15IOPinPropertiesJ8GpioPortS1_8GpioMode9GpioStateEEJEEEPFS0_RKS8_SC_EPFS0_RKS9_SC_EEE7_M_tailERKSN_
                0x08001200       0x16 Debug/Drivers/GPIO/IOPin.o
                0x08001200                std::_Tuple_impl<1u, IOPinStatusCodes (*)(GpioPin const&, PeripheralBase<IOPinStatusCodes, 1u, Container<IOPinProperties, GpioPort, GpioPin, GpioMode, GpioState>>*), IOPinStatusCodes (*)(GpioMode const&, PeripheralBase<IOPinStatusCodes, 1u, Container<IOPinProperties, GpioPort, GpioPin, GpioMode, GpioState>>*), IOPinStatusCodes (*)(GpioState const&, PeripheralBase<IOPinStatusCodes, 1u, Container<IOPinProperties, GpioPort, GpioPin, GpioMode, GpioState>>*)>::_M_tail(std::_Tuple_impl<1u, IOPinStatusCodes (*)(GpioPin const&, PeripheralBase<IOPinStatusCodes, 1u, Container<IOPinProperties, GpioPort, GpioPin, GpioMode, GpioState>>*), IOPinStatusCodes (*)(GpioMode const&, PeripheralBase<IOPinStatusCodes, 1u, Container<IOPinProperties, GpioPort, GpioPin, GpioMode, GpioState>>*), IOPinStatusCodes (*)(GpioState const&, PeripheralBase<IOPinStatusCodes, 1u, Container<IOPinProperties, GpioPort, GpioPin, GpioMode, GpioState>>*)> const&)
 .text._ZNSt11_Tuple_implILj2EJPF16IOPinStatusCodesRK8GpioModeP14PeripheralBaseIS0_Lj1E9ContainerI15IOPinPropertiesJ8GpioPort7GpioPinS1_9GpioStateEEJEEEPFS0_RKS9_SC_EEE9_M_assignIJSE_SI_EEEvRKS_ILj2EJDpT_EE
                0x08001216       0x3e Debug/Drivers/GPIO/IOPin.o
                0x08001216                void std::_Tuple_impl<2u, IOPinStatusCodes (*)(GpioMode const&, PeripheralBase<IOPinStatusCodes, 1u, Container<IOPinProperties, GpioPort, GpioPin, GpioMode, GpioState>>*), IOPinStatusCodes (*)(GpioState const&, PeripheralBase<IOPinStatusCodes, 1u, Container<IOPinProperties, GpioPort, GpioPin, GpioMode, GpioState>>*)>::_M_assign<IOPinStatusCodes (*)(GpioMode const&, PeripheralBase<IOPinStatusCodes, 1u, Container<IOPinProperties, GpioPort, GpioPin, GpioMode, GpioState>>*), IOPinStatusCodes (*)(GpioState const&, PeripheralBase<IOPinStatusCodes, 1u, Container<IOPinProperties, GpioPort, GpioPin, GpioMode, GpioState>>*)>(std::_Tuple_impl<2u, IOPinStatusCodes (*)(GpioMode const&, PeripheralBase<IOPinStatusCodes, 1u, Container<IOPinProperties, GpioPort, GpioPin, GpioMode, GpioState>>*), IOPinStatusCodes (*)(GpioState const&, PeripheralBase<IOPinStatusCodes, 1u, Container<IOPinProperties, GpioPort, GpioPin, GpioMode, GpioState>>*)> const&)
 .text._ZNSt11_Tuple_implILj3EJ9GpioStateEEC2Ev
                0x08001254       0x1a Debug/Drivers/GPIO/IOPin.o
                0x08001254                std::_Tuple_impl<3u, GpioState>::_Tuple_impl()
                0x08001254                std::_Tuple_impl<3u, GpioState>::_Tuple_impl()
 .text._ZNSt10_Head_baseILj2E8GpioModeLb0EEC2Ev
                0x0800126e       0x1c Debug/Drivers/GPIO/IOPin.o
                0x0800126e                std::_Head_base<2u, GpioMode, false>::_Head_base()
                0x0800126e                std::_Head_base<2u, GpioMode, false>::_Head_base()
 .text._ZNSt11_Tuple_implILj2EJPF16IOPinStatusCodesRK8GpioModeP14PeripheralBaseIS0_Lj1E9ContainerI15IOPinPropertiesJ8GpioPort7GpioPinS1_9GpioStateEEJEEEPFS0_RKS9_SC_EEEC2Ev
                0x0800128a       0x24 Debug/Drivers/GPIO/IOPin.o
                0x0800128a                std::_Tuple_impl<2u, IOPinStatusCodes (*)(GpioMode const&, PeripheralBase<IOPinStatusCodes, 1u, Container<IOPinProperties, GpioPort, GpioPin, GpioMode, GpioState>>*), IOPinStatusCodes (*)(GpioState const&, PeripheralBase<IOPinStatusCodes, 1u, Container<IOPinProperties, GpioPort, GpioPin, GpioMode, GpioState>>*)>::_Tuple_impl()
                0x0800128a                std::_Tuple_impl<2u, IOPinStatusCodes (*)(GpioMode const&, PeripheralBase<IOPinStatusCodes, 1u, Container<IOPinProperties, GpioPort, GpioPin, GpioMode, GpioState>>*), IOPinStatusCodes (*)(GpioState const&, PeripheralBase<IOPinStatusCodes, 1u, Container<IOPinProperties, GpioPort, GpioPin, GpioMode, GpioState>>*)>::_Tuple_impl()
 .text._ZNSt10_Head_baseILj1EPF16IOPinStatusCodesRK7GpioPinP14PeripheralBaseIS0_Lj1E9ContainerI15IOPinPropertiesJ8GpioPortS1_8GpioMode9GpioStateEEJEEELb0EEC2Ev
                0x080012ae       0x1c Debug/Drivers/GPIO/IOPin.o
                0x080012ae                std::_Head_base<1u, IOPinStatusCodes (*)(GpioPin const&, PeripheralBase<IOPinStatusCodes, 1u, Container<IOPinProperties, GpioPort, GpioPin, GpioMode, GpioState>>*), false>::_Head_base()
                0x080012ae                std::_Head_base<1u, IOPinStatusCodes (*)(GpioPin const&, PeripheralBase<IOPinStatusCodes, 1u, Container<IOPinProperties, GpioPort, GpioPin, GpioMode, GpioState>>*), false>::_Head_base()
 .text._ZNSt10_Head_baseILj1EPF16IOPinStatusCodesRK7GpioPinP14PeripheralBaseIS0_Lj1E9ContainerI15IOPinPropertiesJ8GpioPortS1_8GpioMode9GpioStateEEJEEELb0EE7_M_headERSF_
                0x080012ca       0x16 Debug/Drivers/GPIO/IOPin.o
                0x080012ca                std::_Head_base<1u, IOPinStatusCodes (*)(GpioPin const&, PeripheralBase<IOPinStatusCodes, 1u, Container<IOPinProperties, GpioPort, GpioPin, GpioMode, GpioState>>*), false>::_M_head(std::_Head_base<1u, IOPinStatusCodes (*)(GpioPin const&, PeripheralBase<IOPinStatusCodes, 1u, Container<IOPinProperties, GpioPort, GpioPin, GpioMode, GpioState>>*), false>&)
 .text._ZNSt10_Head_baseILj1EPF16IOPinStatusCodesRK7GpioPinP14PeripheralBaseIS0_Lj1E9ContainerI15IOPinPropertiesJ8GpioPortS1_8GpioMode9GpioStateEEJEEELb0EE7_M_headERKSF_
                0x080012e0       0x16 Debug/Drivers/GPIO/IOPin.o
                0x080012e0                std::_Head_base<1u, IOPinStatusCodes (*)(GpioPin const&, PeripheralBase<IOPinStatusCodes, 1u, Container<IOPinProperties, GpioPort, GpioPin, GpioMode, GpioState>>*), false>::_M_head(std::_Head_base<1u, IOPinStatusCodes (*)(GpioPin const&, PeripheralBase<IOPinStatusCodes, 1u, Container<IOPinProperties, GpioPort, GpioPin, GpioMode, GpioState>>*), false> const&)
 .text._ZNSt11_Tuple_implILj2EJPF16IOPinStatusCodesRK8GpioModeP14PeripheralBaseIS0_Lj1E9ContainerI15IOPinPropertiesJ8GpioPort7GpioPinS1_9GpioStateEEJEEEPFS0_RKS9_SC_EEE7_M_headERSJ_
                0x080012f6       0x1c Debug/Drivers/GPIO/IOPin.o
                0x080012f6                std::_Tuple_impl<2u, IOPinStatusCodes (*)(GpioMode const&, PeripheralBase<IOPinStatusCodes, 1u, Container<IOPinProperties, GpioPort, GpioPin, GpioMode, GpioState>>*), IOPinStatusCodes (*)(GpioState const&, PeripheralBase<IOPinStatusCodes, 1u, Container<IOPinProperties, GpioPort, GpioPin, GpioMode, GpioState>>*)>::_M_head(std::_Tuple_impl<2u, IOPinStatusCodes (*)(GpioMode const&, PeripheralBase<IOPinStatusCodes, 1u, Container<IOPinProperties, GpioPort, GpioPin, GpioMode, GpioState>>*), IOPinStatusCodes (*)(GpioState const&, PeripheralBase<IOPinStatusCodes, 1u, Container<IOPinProperties, GpioPort, GpioPin, GpioMode, GpioState>>*)>&)
 .text._ZNSt11_Tuple_implILj2EJPF16IOPinStatusCodesRK8GpioModeP14PeripheralBaseIS0_Lj1E9ContainerI15IOPinPropertiesJ8GpioPort7GpioPinS1_9GpioStateEEJEEEPFS0_RKS9_SC_EEE7_M_headERKSJ_
                0x08001312       0x1c Debug/Drivers/GPIO/IOPin.o
                0x08001312                std::_Tuple_impl<2u, IOPinStatusCodes (*)(GpioMode const&, PeripheralBase<IOPinStatusCodes, 1u, Container<IOPinProperties, GpioPort, GpioPin, GpioMode, GpioState>>*), IOPinStatusCodes (*)(GpioState const&, PeripheralBase<IOPinStatusCodes, 1u, Container<IOPinProperties, GpioPort, GpioPin, GpioMode, GpioState>>*)>::_M_head(std::_Tuple_impl<2u, IOPinStatusCodes (*)(GpioMode const&, PeripheralBase<IOPinStatusCodes, 1u, Container<IOPinProperties, GpioPort, GpioPin, GpioMode, GpioState>>*), IOPinStatusCodes (*)(GpioState const&, PeripheralBase<IOPinStatusCodes, 1u, Container<IOPinProperties, GpioPort, GpioPin, GpioMode, GpioState>>*)> const&)
 .text._ZNSt11_Tuple_implILj2EJPF16IOPinStatusCodesRK8GpioModeP14PeripheralBaseIS0_Lj1E9ContainerI15IOPinPropertiesJ8GpioPort7GpioPinS1_9GpioStateEEJEEEPFS0_RKS9_SC_EEE7_M_tailERSJ_
                0x0800132e       0x16 Debug/Drivers/GPIO/IOPin.o
                0x0800132e                std::_Tuple_impl<2u, IOPinStatusCodes (*)(GpioMode const&, PeripheralBase<IOPinStatusCodes, 1u, Container<IOPinProperties, GpioPort, GpioPin, GpioMode, GpioState>>*), IOPinStatusCodes (*)(GpioState const&, PeripheralBase<IOPinStatusCodes, 1u, Container<IOPinProperties, GpioPort, GpioPin, GpioMode, GpioState>>*)>::_M_tail(std::_Tuple_impl<2u, IOPinStatusCodes (*)(GpioMode const&, PeripheralBase<IOPinStatusCodes, 1u, Container<IOPinProperties, GpioPort, GpioPin, GpioMode, GpioState>>*), IOPinStatusCodes (*)(GpioState const&, PeripheralBase<IOPinStatusCodes, 1u, Container<IOPinProperties, GpioPort, GpioPin, GpioMode, GpioState>>*)>&)
 .text._ZNSt11_Tuple_implILj2EJPF16IOPinStatusCodesRK8GpioModeP14PeripheralBaseIS0_Lj1E9ContainerI15IOPinPropertiesJ8GpioPort7GpioPinS1_9GpioStateEEJEEEPFS0_RKS9_SC_EEE7_M_tailERKSJ_
                0x08001344       0x16 Debug/Drivers/GPIO/IOPin.o
                0x08001344                std::_Tuple_impl<2u, IOPinStatusCodes (*)(GpioMode const&, PeripheralBase<IOPinStatusCodes, 1u, Container<IOPinProperties, GpioPort, GpioPin, GpioMode, GpioState>>*), IOPinStatusCodes (*)(GpioState const&, PeripheralBase<IOPinStatusCodes, 1u, Container<IOPinProperties, GpioPort, GpioPin, GpioMode, GpioState>>*)>::_M_tail(std::_Tuple_impl<2u, IOPinStatusCodes (*)(GpioMode const&, PeripheralBase<IOPinStatusCodes, 1u, Container<IOPinProperties, GpioPort, GpioPin, GpioMode, GpioState>>*), IOPinStatusCodes (*)(GpioState const&, PeripheralBase<IOPinStatusCodes, 1u, Container<IOPinProperties, GpioPort, GpioPin, GpioMode, GpioState>>*)> const&)
 .text._ZNSt11_Tuple_implILj3EJPF16IOPinStatusCodesRK9GpioStateP14PeripheralBaseIS0_Lj1E9ContainerI15IOPinPropertiesJ8GpioPort7GpioPin8GpioModeS1_EEJEEEEE9_M_assignISE_EEvRKS_ILj3EJT_EE
                0x0800135a       0x26 Debug/Drivers/GPIO/IOPin.o
                0x0800135a                void std::_Tuple_impl<3u, IOPinStatusCodes (*)(GpioState const&, PeripheralBase<IOPinStatusCodes, 1u, Container<IOPinProperties, GpioPort, GpioPin, GpioMode, GpioState>>*)>::_M_assign<IOPinStatusCodes (*)(GpioState const&, PeripheralBase<IOPinStatusCodes, 1u, Container<IOPinProperties, GpioPort, GpioPin, GpioMode, GpioState>>*)>(std::_Tuple_impl<3u, IOPinStatusCodes (*)(GpioState const&, PeripheralBase<IOPinStatusCodes, 1u, Container<IOPinProperties, GpioPort, GpioPin, GpioMode, GpioState>>*)> const&)
 .text._ZNSt10_Head_baseILj3E9GpioStateLb0EEC2Ev
                0x08001380       0x1c Debug/Drivers/GPIO/IOPin.o
                0x08001380                std::_Head_base<3u, GpioState, false>::_Head_base()
                0x08001380                std::_Head_base<3u, GpioState, false>::_Head_base()
 .text._ZNSt11_Tuple_implILj3EJPF16IOPinStatusCodesRK9GpioStateP14PeripheralBaseIS0_Lj1E9ContainerI15IOPinPropertiesJ8GpioPort7GpioPin8GpioModeS1_EEJEEEEEC2Ev
                0x0800139c       0x1a Debug/Drivers/GPIO/IOPin.o
                0x0800139c                std::_Tuple_impl<3u, IOPinStatusCodes (*)(GpioState const&, PeripheralBase<IOPinStatusCodes, 1u, Container<IOPinProperties, GpioPort, GpioPin, GpioMode, GpioState>>*)>::_Tuple_impl()
                0x0800139c                std::_Tuple_impl<3u, IOPinStatusCodes (*)(GpioState const&, PeripheralBase<IOPinStatusCodes, 1u, Container<IOPinProperties, GpioPort, GpioPin, GpioMode, GpioState>>*)>::_Tuple_impl()
 .text._ZNSt10_Head_baseILj2EPF16IOPinStatusCodesRK8GpioModeP14PeripheralBaseIS0_Lj1E9ContainerI15IOPinPropertiesJ8GpioPort7GpioPinS1_9GpioStateEEJEEELb0EEC2Ev
                0x080013b6       0x1c Debug/Drivers/GPIO/IOPin.o
                0x080013b6                std::_Head_base<2u, IOPinStatusCodes (*)(GpioMode const&, PeripheralBase<IOPinStatusCodes, 1u, Container<IOPinProperties, GpioPort, GpioPin, GpioMode, GpioState>>*), false>::_Head_base()
                0x080013b6                std::_Head_base<2u, IOPinStatusCodes (*)(GpioMode const&, PeripheralBase<IOPinStatusCodes, 1u, Container<IOPinProperties, GpioPort, GpioPin, GpioMode, GpioState>>*), false>::_Head_base()
 .text._ZNSt10_Head_baseILj2EPF16IOPinStatusCodesRK8GpioModeP14PeripheralBaseIS0_Lj1E9ContainerI15IOPinPropertiesJ8GpioPort7GpioPinS1_9GpioStateEEJEEELb0EE7_M_headERSF_
                0x080013d2       0x16 Debug/Drivers/GPIO/IOPin.o
                0x080013d2                std::_Head_base<2u, IOPinStatusCodes (*)(GpioMode const&, PeripheralBase<IOPinStatusCodes, 1u, Container<IOPinProperties, GpioPort, GpioPin, GpioMode, GpioState>>*), false>::_M_head(std::_Head_base<2u, IOPinStatusCodes (*)(GpioMode const&, PeripheralBase<IOPinStatusCodes, 1u, Container<IOPinProperties, GpioPort, GpioPin, GpioMode, GpioState>>*), false>&)
 .text._ZNSt10_Head_baseILj2EPF16IOPinStatusCodesRK8GpioModeP14PeripheralBaseIS0_Lj1E9ContainerI15IOPinPropertiesJ8GpioPort7GpioPinS1_9GpioStateEEJEEELb0EE7_M_headERKSF_
                0x080013e8       0x16 Debug/Drivers/GPIO/IOPin.o
                0x080013e8                std::_Head_base<2u, IOPinStatusCodes (*)(GpioMode const&, PeripheralBase<IOPinStatusCodes, 1u, Container<IOPinProperties, GpioPort, GpioPin, GpioMode, GpioState>>*), false>::_M_head(std::_Head_base<2u, IOPinStatusCodes (*)(GpioMode const&, PeripheralBase<IOPinStatusCodes, 1u, Container<IOPinProperties, GpioPort, GpioPin, GpioMode, GpioState>>*), false> const&)
 .text._ZNSt11_Tuple_implILj3EJPF16IOPinStatusCodesRK9GpioStateP14PeripheralBaseIS0_Lj1E9ContainerI15IOPinPropertiesJ8GpioPort7GpioPin8GpioModeS1_EEJEEEEE7_M_headERSF_
                0x080013fe       0x1a Debug/Drivers/GPIO/IOPin.o
                0x080013fe                std::_Tuple_impl<3u, IOPinStatusCodes (*)(GpioState const&, PeripheralBase<IOPinStatusCodes, 1u, Container<IOPinProperties, GpioPort, GpioPin, GpioMode, GpioState>>*)>::_M_head(std::_Tuple_impl<3u, IOPinStatusCodes (*)(GpioState const&, PeripheralBase<IOPinStatusCodes, 1u, Container<IOPinProperties, GpioPort, GpioPin, GpioMode, GpioState>>*)>&)
 .text._ZNSt11_Tuple_implILj3EJPF16IOPinStatusCodesRK9GpioStateP14PeripheralBaseIS0_Lj1E9ContainerI15IOPinPropertiesJ8GpioPort7GpioPin8GpioModeS1_EEJEEEEE7_M_headERKSF_
                0x08001418       0x1a Debug/Drivers/GPIO/IOPin.o
                0x08001418                std::_Tuple_impl<3u, IOPinStatusCodes (*)(GpioState const&, PeripheralBase<IOPinStatusCodes, 1u, Container<IOPinProperties, GpioPort, GpioPin, GpioMode, GpioState>>*)>::_M_head(std::_Tuple_impl<3u, IOPinStatusCodes (*)(GpioState const&, PeripheralBase<IOPinStatusCodes, 1u, Container<IOPinProperties, GpioPort, GpioPin, GpioMode, GpioState>>*)> const&)
 .text._ZNSt10_Head_baseILj3EPF16IOPinStatusCodesRK9GpioStateP14PeripheralBaseIS0_Lj1E9ContainerI15IOPinPropertiesJ8GpioPort7GpioPin8GpioModeS1_EEJEEELb0EEC2Ev
                0x08001432       0x1c Debug/Drivers/GPIO/IOPin.o
                0x08001432                std::_Head_base<3u, IOPinStatusCodes (*)(GpioState const&, PeripheralBase<IOPinStatusCodes, 1u, Container<IOPinProperties, GpioPort, GpioPin, GpioMode, GpioState>>*), false>::_Head_base()
                0x08001432                std::_Head_base<3u, IOPinStatusCodes (*)(GpioState const&, PeripheralBase<IOPinStatusCodes, 1u, Container<IOPinProperties, GpioPort, GpioPin, GpioMode, GpioState>>*), false>::_Head_base()
 .text._ZNSt10_Head_baseILj3EPF16IOPinStatusCodesRK9GpioStateP14PeripheralBaseIS0_Lj1E9ContainerI15IOPinPropertiesJ8GpioPort7GpioPin8GpioModeS1_EEJEEELb0EE7_M_headERSF_
                0x0800144e       0x16 Debug/Drivers/GPIO/IOPin.o
                0x0800144e                std::_Head_base<3u, IOPinStatusCodes (*)(GpioState const&, PeripheralBase<IOPinStatusCodes, 1u, Container<IOPinProperties, GpioPort, GpioPin, GpioMode, GpioState>>*), false>::_M_head(std::_Head_base<3u, IOPinStatusCodes (*)(GpioState const&, PeripheralBase<IOPinStatusCodes, 1u, Container<IOPinProperties, GpioPort, GpioPin, GpioMode, GpioState>>*), false>&)
 .text._ZNSt10_Head_baseILj3EPF16IOPinStatusCodesRK9GpioStateP14PeripheralBaseIS0_Lj1E9ContainerI15IOPinPropertiesJ8GpioPort7GpioPin8GpioModeS1_EEJEEELb0EE7_M_headERKSF_
                0x08001464       0x16 Debug/Drivers/GPIO/IOPin.o
                0x08001464                std::_Head_base<3u, IOPinStatusCodes (*)(GpioState const&, PeripheralBase<IOPinStatusCodes, 1u, Container<IOPinProperties, GpioPort, GpioPin, GpioMode, GpioState>>*), false>::_M_head(std::_Head_base<3u, IOPinStatusCodes (*)(GpioState const&, PeripheralBase<IOPinStatusCodes, 1u, Container<IOPinProperties, GpioPort, GpioPin, GpioMode, GpioState>>*), false> const&)
 *fill*         0x0800147a        0x2 
 .text._Z41__static_initialization_and_destruction_0ii
                0x0800147c       0x70 Debug/Drivers/GPIO/IOPin.o
 .text._ZN9ContainerI15IOPinPropertiesJ8GpioPort7GpioPin8GpioMode9GpioStateEE7getSizeEv
                0x080014ec       0x16 Debug/Drivers/GPIO/IOPin.o
                0x080014ec                Container<IOPinProperties, GpioPort, GpioPin, GpioMode, GpioState>::getSize()
 .text._ZN9ContainerI15IOPinPropertiesJPF16IOPinStatusCodesRK8GpioPortP14PeripheralBaseIS1_Lj1ES_IS0_JS2_7GpioPin8GpioMode9GpioStateEEJEEEPFS1_RKS6_SB_EPFS1_RKS7_SB_EPFS1_RKS8_SB_EEE7getSizeEv
                0x08001502       0x16 Debug/Drivers/GPIO/IOPin.o
                0x08001502                Container<IOPinProperties, IOPinStatusCodes (*)(GpioPort const&, PeripheralBase<IOPinStatusCodes, 1u, Container<IOPinProperties, GpioPort, GpioPin, GpioMode, GpioState>>*), IOPinStatusCodes (*)(GpioPin const&, PeripheralBase<IOPinStatusCodes, 1u, Container<IOPinProperties, GpioPort, GpioPin, GpioMode, GpioState>>*), IOPinStatusCodes (*)(GpioMode const&, PeripheralBase<IOPinStatusCodes, 1u, Container<IOPinProperties, GpioPort, GpioPin, GpioMode, GpioState>>*), IOPinStatusCodes (*)(GpioState const&, PeripheralBase<IOPinStatusCodes, 1u, Container<IOPinProperties, GpioPort, GpioPin, GpioMode, GpioState>>*)>::getSize()
 .text._GLOBAL__sub_I__ZN5IOPinC2Ev
                0x08001518       0x10 Debug/Drivers/GPIO/IOPin.o
 .text.main     0x08001528        0x8 Debug/Src/main.o
                0x08001528                main
 .text.initialise_monitor_handles
                0x08001530        0xe Debug/Src/syscalls.o
                0x08001530                initialise_monitor_handles
 .text._getpid  0x0800153e       0x10 Debug/Src/syscalls.o
                0x0800153e                _getpid
 .text._kill    0x0800154e       0x20 Debug/Src/syscalls.o
                0x0800154e                _kill
 .text._exit    0x0800156e       0x16 Debug/Src/syscalls.o
                0x0800156e                _exit
 .text._read    0x08001584       0x3a Debug/Src/syscalls.o
                0x08001584                _read
 .text._write   0x080015be       0x38 Debug/Src/syscalls.o
                0x080015be                _write
 .text._close   0x080015f6       0x18 Debug/Src/syscalls.o
                0x080015f6                _close
 .text._fstat   0x0800160e       0x20 Debug/Src/syscalls.o
                0x0800160e                _fstat
 .text._isatty  0x0800162e       0x16 Debug/Src/syscalls.o
                0x0800162e                _isatty
 .text._lseek   0x08001644       0x1a Debug/Src/syscalls.o
                0x08001644                _lseek
 .text._open    0x0800165e       0x1c Debug/Src/syscalls.o
                0x0800165e                _open
 .text._wait    0x0800167a       0x1e Debug/Src/syscalls.o
                0x0800167a                _wait
 .text._unlink  0x08001698       0x1e Debug/Src/syscalls.o
                0x08001698                _unlink
 .text._times   0x080016b6       0x18 Debug/Src/syscalls.o
                0x080016b6                _times
 .text._stat    0x080016ce       0x20 Debug/Src/syscalls.o
                0x080016ce                _stat
 .text._link    0x080016ee       0x20 Debug/Src/syscalls.o
                0x080016ee                _link
 .text._fork    0x0800170e       0x16 Debug/Src/syscalls.o
                0x0800170e                _fork
 .text._execve  0x08001724       0x22 Debug/Src/syscalls.o
                0x08001724                _execve
 *fill*         0x08001746        0x2 
 .text._sbrk    0x08001748       0x6c Debug/Src/sysmem.o
                0x08001748                _sbrk
 .text.Reset_Handler
                0x080017b4       0x4c Debug/Startup/startup_stm32f411retx.o
                0x080017b4                Reset_Handler
 .text.Default_Handler
                0x08001800        0x2 Debug/Startup/startup_stm32f411retx.o
                0x08001800                RTC_Alarm_IRQHandler
                0x08001800                EXTI2_IRQHandler
                0x08001800                DebugMon_Handler
                0x08001800                SPI4_IRQHandler
                0x08001800                TIM1_CC_IRQHandler
                0x08001800                DMA2_Stream5_IRQHandler
                0x08001800                HardFault_Handler
                0x08001800                DMA1_Stream5_IRQHandler
                0x08001800                SysTick_Handler
                0x08001800                PVD_IRQHandler
                0x08001800                SDIO_IRQHandler
                0x08001800                TAMP_STAMP_IRQHandler
                0x08001800                PendSV_Handler
                0x08001800                NMI_Handler
                0x08001800                EXTI3_IRQHandler
                0x08001800                TIM1_UP_TIM10_IRQHandler
                0x08001800                I2C3_ER_IRQHandler
                0x08001800                EXTI0_IRQHandler
                0x08001800                I2C2_EV_IRQHandler
                0x08001800                DMA1_Stream2_IRQHandler
                0x08001800                FPU_IRQHandler
                0x08001800                UsageFault_Handler
                0x08001800                DMA2_Stream2_IRQHandler
                0x08001800                SPI1_IRQHandler
                0x08001800                TIM1_BRK_TIM9_IRQHandler
                0x08001800                DMA2_Stream3_IRQHandler
                0x08001800                USART6_IRQHandler
                0x08001800                DMA2_Stream0_IRQHandler
                0x08001800                TIM4_IRQHandler
                0x08001800                I2C1_EV_IRQHandler
                0x08001800                DMA1_Stream6_IRQHandler
                0x08001800                DMA1_Stream1_IRQHandler
                0x08001800                TIM3_IRQHandler
                0x08001800                RCC_IRQHandler
                0x08001800                Default_Handler
                0x08001800                EXTI15_10_IRQHandler
                0x08001800                ADC_IRQHandler
                0x08001800                DMA1_Stream7_IRQHandler
                0x08001800                SPI5_IRQHandler
                0x08001800                TIM5_IRQHandler
                0x08001800                DMA2_Stream7_IRQHandler
                0x08001800                I2C3_EV_IRQHandler
                0x08001800                EXTI9_5_IRQHandler
                0x08001800                RTC_WKUP_IRQHandler
                0x08001800                SPI2_IRQHandler
                0x08001800                MemManage_Handler
                0x08001800                DMA1_Stream0_IRQHandler
                0x08001800                SVC_Handler
                0x08001800                EXTI4_IRQHandler
                0x08001800                WWDG_IRQHandler
                0x08001800                TIM2_IRQHandler
                0x08001800                OTG_FS_WKUP_IRQHandler
                0x08001800                TIM1_TRG_COM_TIM11_IRQHandler
                0x08001800                EXTI1_IRQHandler
                0x08001800                USART2_IRQHandler
                0x08001800                I2C2_ER_IRQHandler
                0x08001800                DMA2_Stream1_IRQHandler
                0x08001800                FLASH_IRQHandler
                0x08001800                DMA2_Stream4_IRQHandler
                0x08001800                BusFault_Handler
                0x08001800                USART1_IRQHandler
                0x08001800                OTG_FS_IRQHandler
                0x08001800                SPI3_IRQHandler
                0x08001800                DMA1_Stream4_IRQHandler
                0x08001800                I2C1_ER_IRQHandler
                0x08001800                DMA2_Stream6_IRQHandler
                0x08001800                DMA1_Stream3_IRQHandler
 .text._ZdlPvj  0x08001802        0x4 /usr/bin/../lib/gcc/arm-none-eabi/12.2.1/../../../../arm-none-eabi/lib/thumb/v7e-m+fp/hard/libstdc++_nano.a(del_ops.o)
                0x08001802                operator delete(void*, unsigned int)
 .text.__cxa_end_cleanup
                0x08001806        0xc /usr/bin/../lib/gcc/arm-none-eabi/12.2.1/../../../../arm-none-eabi/lib/thumb/v7e-m+fp/hard/libstdc++_nano.a(eh_arm.o)
                0x08001806                __cxa_end_cleanup
 .text._ZN10__cxxabiv1L24__is_gxx_exception_classEPc
                0x08001812       0x3a /usr/bin/../lib/gcc/arm-none-eabi/12.2.1/../../../../arm-none-eabi/lib/thumb/v7e-m+fp/hard/libstdc++_nano.a(eh_arm.o)
 .text.__cxa_type_match
                0x0800184c       0xa0 /usr/bin/../lib/gcc/arm-none-eabi/12.2.1/../../../../arm-none-eabi/lib/thumb/v7e-m+fp/hard/libstdc++_nano.a(eh_arm.o)
                0x0800184c                __cxa_type_match
 .text.__cxa_begin_cleanup
                0x080018ec       0x3a /usr/bin/../lib/gcc/arm-none-eabi/12.2.1/../../../../arm-none-eabi/lib/thumb/v7e-m+fp/hard/libstdc++_nano.a(eh_arm.o)
                0x080018ec                __cxa_begin_cleanup
 .text.__gnu_end_cleanup
                0x08001926       0x32 /usr/bin/../lib/gcc/arm-none-eabi/12.2.1/../../../../arm-none-eabi/lib/thumb/v7e-m+fp/hard/libstdc++_nano.a(eh_arm.o)
                0x08001926                __gnu_end_cleanup
 .text._ZNSt9exceptionD2Ev
                0x08001958        0x2 /usr/bin/../lib/gcc/arm-none-eabi/12.2.1/../../../../arm-none-eabi/lib/thumb/v7e-m+fp/hard/libstdc++_nano.a(eh_exception.o)
                0x08001958                std::exception::~exception()
                0x08001958                std::exception::~exception()
 .text._ZNSt13bad_exceptionD2Ev
                0x0800195a        0x2 /usr/bin/../lib/gcc/arm-none-eabi/12.2.1/../../../../arm-none-eabi/lib/thumb/v7e-m+fp/hard/libstdc++_nano.a(eh_exception.o)
                0x0800195a                std::bad_exception::~bad_exception()
                0x0800195a                std::bad_exception::~bad_exception()
 .text._ZNKSt9exception4whatEv
                0x0800195c        0x8 /usr/bin/../lib/gcc/arm-none-eabi/12.2.1/../../../../arm-none-eabi/lib/thumb/v7e-m+fp/hard/libstdc++_nano.a(eh_exception.o)
                0x0800195c                transaction clone for std::exception::what() const
                0x0800195c                std::exception::what() const
 .text._ZNKSt13bad_exception4whatEv
                0x08001964        0x8 /usr/bin/../lib/gcc/arm-none-eabi/12.2.1/../../../../arm-none-eabi/lib/thumb/v7e-m+fp/hard/libstdc++_nano.a(eh_exception.o)
                0x08001964                transaction clone for std::bad_exception::what() const
                0x08001964                std::bad_exception::what() const
 .text._ZNSt9exceptionD0Ev
                0x0800196c        0xe /usr/bin/../lib/gcc/arm-none-eabi/12.2.1/../../../../arm-none-eabi/lib/thumb/v7e-m+fp/hard/libstdc++_nano.a(eh_exception.o)
                0x0800196c                std::exception::~exception()
 .text._ZNSt13bad_exceptionD0Ev
                0x0800197a        0xe /usr/bin/../lib/gcc/arm-none-eabi/12.2.1/../../../../arm-none-eabi/lib/thumb/v7e-m+fp/hard/libstdc++_nano.a(eh_exception.o)
                0x0800197a                std::bad_exception::~bad_exception()
 .text._ZN10__cxxabiv115__forced_unwindD2Ev
                0x08001988        0x2 /usr/bin/../lib/gcc/arm-none-eabi/12.2.1/../../../../arm-none-eabi/lib/thumb/v7e-m+fp/hard/libstdc++_nano.a(eh_exception.o)
                0x08001988                __cxxabiv1::__forced_unwind::~__forced_unwind()
                0x08001988                __cxxabiv1::__forced_unwind::~__forced_unwind()
 .text._ZN10__cxxabiv115__forced_unwindD0Ev
                0x0800198a        0xe /usr/bin/../lib/gcc/arm-none-eabi/12.2.1/../../../../arm-none-eabi/lib/thumb/v7e-m+fp/hard/libstdc++_nano.a(eh_exception.o)
                0x0800198a                __cxxabiv1::__forced_unwind::~__forced_unwind()
 .text._ZN10__cxxabiv119__foreign_exceptionD2Ev
                0x08001998        0x2 /usr/bin/../lib/gcc/arm-none-eabi/12.2.1/../../../../arm-none-eabi/lib/thumb/v7e-m+fp/hard/libstdc++_nano.a(eh_exception.o)
                0x08001998                __cxxabiv1::__foreign_exception::~__foreign_exception()
                0x08001998                __cxxabiv1::__foreign_exception::~__foreign_exception()
 .text._ZN10__cxxabiv119__foreign_exceptionD0Ev
                0x0800199a        0xe /usr/bin/../lib/gcc/arm-none-eabi/12.2.1/../../../../arm-none-eabi/lib/thumb/v7e-m+fp/hard/libstdc++_nano.a(eh_exception.o)
                0x0800199a                __cxxabiv1::__foreign_exception::~__foreign_exception()
 .text._ZGTtNKSt9exceptionD1Ev
                0x080019a8        0x2 /usr/bin/../lib/gcc/arm-none-eabi/12.2.1/../../../../arm-none-eabi/lib/thumb/v7e-m+fp/hard/libstdc++_nano.a(eh_exception.o)
                0x080019a8                transaction clone for std::exception::~exception() const
 .text._ZGTtNKSt13bad_exceptionD1Ev
                0x080019aa        0x2 /usr/bin/../lib/gcc/arm-none-eabi/12.2.1/../../../../arm-none-eabi/lib/thumb/v7e-m+fp/hard/libstdc++_nano.a(eh_exception.o)
                0x080019aa                transaction clone for std::bad_exception::~bad_exception() const
 .text._ZN12_GLOBAL__N_113constant_initD2Ev
                0x080019ac        0x2 /usr/bin/../lib/gcc/arm-none-eabi/12.2.1/../../../../arm-none-eabi/lib/thumb/v7e-m+fp/hard/libstdc++_nano.a(eh_globals.o)
 *fill*         0x080019ae        0x2 
 .text.__cxa_get_globals_fast
                0x080019b0        0x8 /usr/bin/../lib/gcc/arm-none-eabi/12.2.1/../../../../arm-none-eabi/lib/thumb/v7e-m+fp/hard/libstdc++_nano.a(eh_globals.o)
                0x080019b0                __cxa_get_globals_fast
 .text.__cxa_get_globals
                0x080019b8        0x8 /usr/bin/../lib/gcc/arm-none-eabi/12.2.1/../../../../arm-none-eabi/lib/thumb/v7e-m+fp/hard/libstdc++_nano.a(eh_globals.o)
                0x080019b8                __cxa_get_globals
 .text.startup._GLOBAL__sub_I___cxa_get_globals_fast
                0x080019c0       0x18 /usr/bin/../lib/gcc/arm-none-eabi/12.2.1/../../../../arm-none-eabi/lib/thumb/v7e-m+fp/hard/libstdc++_nano.a(eh_globals.o)
 .text._ZL12read_uleb128PKhPm
                0x080019d8       0x1e /usr/bin/../lib/gcc/arm-none-eabi/12.2.1/../../../../arm-none-eabi/lib/thumb/v7e-m+fp/hard/libstdc++_nano.a(eh_personality.o)
 .text._ZL12read_sleb128PKhPl
                0x080019f6       0x30 /usr/bin/../lib/gcc/arm-none-eabi/12.2.1/../../../../arm-none-eabi/lib/thumb/v7e-m+fp/hard/libstdc++_nano.a(eh_personality.o)
 .text._ZL28read_encoded_value_with_basehjPKhPj
                0x08001a26       0x8c /usr/bin/../lib/gcc/arm-none-eabi/12.2.1/../../../../arm-none-eabi/lib/thumb/v7e-m+fp/hard/libstdc++_nano.a(eh_personality.o)
 .text._ZL21base_of_encoded_valuehP15_Unwind_Context
                0x08001ab2       0x42 /usr/bin/../lib/gcc/arm-none-eabi/12.2.1/../../../../arm-none-eabi/lib/thumb/v7e-m+fp/hard/libstdc++_nano.a(eh_personality.o)
 .text._ZL18read_encoded_valueP15_Unwind_ContexthPKhPj
                0x08001af4       0x20 /usr/bin/../lib/gcc/arm-none-eabi/12.2.1/../../../../arm-none-eabi/lib/thumb/v7e-m+fp/hard/libstdc++_nano.a(eh_personality.o)
 .text._ZL17parse_lsda_headerP15_Unwind_ContextPKhP16lsda_header_info
                0x08001b14       0x5e /usr/bin/../lib/gcc/arm-none-eabi/12.2.1/../../../../arm-none-eabi/lib/thumb/v7e-m+fp/hard/libstdc++_nano.a(eh_personality.o)
 .text._Unwind_GetGR
                0x08001b72       0x18 /usr/bin/../lib/gcc/arm-none-eabi/12.2.1/../../../../arm-none-eabi/lib/thumb/v7e-m+fp/hard/libstdc++_nano.a(eh_personality.o)
 *fill*         0x08001b8a        0x2 
 .text.__gxx_personality_v0
                0x08001b8c      0x330 /usr/bin/../lib/gcc/arm-none-eabi/12.2.1/../../../../arm-none-eabi/lib/thumb/v7e-m+fp/hard/libstdc++_nano.a(eh_personality.o)
                0x08001b8c                __gxx_personality_v0
 .text._ZN10__cxxabiv111__terminateEPFvvE
                0x08001ebc        0x8 /usr/bin/../lib/gcc/arm-none-eabi/12.2.1/../../../../arm-none-eabi/lib/thumb/v7e-m+fp/hard/libstdc++_nano.a(eh_terminate.o)
                0x08001ebc                __cxxabiv1::__terminate(void (*)())
 .text._ZSt13set_terminatePFvvE
                0x08001ec4       0x2c /usr/bin/../lib/gcc/arm-none-eabi/12.2.1/../../../../arm-none-eabi/lib/thumb/v7e-m+fp/hard/libstdc++_nano.a(eh_terminate.o)
                0x08001ec4                std::set_terminate(void (*)())
 .text._ZSt13get_terminatev
                0x08001ef0       0x10 /usr/bin/../lib/gcc/arm-none-eabi/12.2.1/../../../../arm-none-eabi/lib/thumb/v7e-m+fp/hard/libstdc++_nano.a(eh_terminate.o)
                0x08001ef0                std::get_terminate()
 .text._ZSt9terminatev
                0x08001f00        0xa /usr/bin/../lib/gcc/arm-none-eabi/12.2.1/../../../../arm-none-eabi/lib/thumb/v7e-m+fp/hard/libstdc++_nano.a(eh_terminate.o)
                0x08001f00                std::terminate()
 .text._ZN10__cxxabiv112__unexpectedEPFvvE
                0x08001f0a        0x8 /usr/bin/../lib/gcc/arm-none-eabi/12.2.1/../../../../arm-none-eabi/lib/thumb/v7e-m+fp/hard/libstdc++_nano.a(eh_terminate.o)
                0x08001f0a                __cxxabiv1::__unexpected(void (*)())
 *fill*         0x08001f12        0x2 
 .text._ZSt14set_unexpectedPFvvE
                0x08001f14       0x2c /usr/bin/../lib/gcc/arm-none-eabi/12.2.1/../../../../arm-none-eabi/lib/thumb/v7e-m+fp/hard/libstdc++_nano.a(eh_terminate.o)
                0x08001f14                std::set_unexpected(void (*)())
 .text._ZSt14get_unexpectedv
                0x08001f40       0x10 /usr/bin/../lib/gcc/arm-none-eabi/12.2.1/../../../../arm-none-eabi/lib/thumb/v7e-m+fp/hard/libstdc++_nano.a(eh_terminate.o)
                0x08001f40                std::get_unexpected()
 .text._ZSt10unexpectedv
                0x08001f50        0xa /usr/bin/../lib/gcc/arm-none-eabi/12.2.1/../../../../arm-none-eabi/lib/thumb/v7e-m+fp/hard/libstdc++_nano.a(eh_terminate.o)
                0x08001f50                std::unexpected()
 .text._Znwj    0x08001f5a       0x22 /usr/bin/../lib/gcc/arm-none-eabi/12.2.1/../../../../arm-none-eabi/lib/thumb/v7e-m+fp/hard/libstdc++_nano.a(new_op.o)
                0x08001f5a                operator new(unsigned int)
 .text._ZN10__cxxabiv120__si_class_type_infoD2Ev
                0x08001f7c       0x14 /usr/bin/../lib/gcc/arm-none-eabi/12.2.1/../../../../arm-none-eabi/lib/thumb/v7e-m+fp/hard/libstdc++_nano.a(si_class_type_info.o)
                0x08001f7c                __cxxabiv1::__si_class_type_info::~__si_class_type_info()
                0x08001f7c                __cxxabiv1::__si_class_type_info::~__si_class_type_info()
 .text._ZN10__cxxabiv120__si_class_type_infoD0Ev
                0x08001f90       0x14 /usr/bin/../lib/gcc/arm-none-eabi/12.2.1/../../../../arm-none-eabi/lib/thumb/v7e-m+fp/hard/libstdc++_nano.a(si_class_type_info.o)
                0x08001f90                __cxxabiv1::__si_class_type_info::~__si_class_type_info()
 .text._ZNK10__cxxabiv120__si_class_type_info20__do_find_public_srcEiPKvPKNS_17__class_type_infoES2_
                0x08001fa4       0x3c /usr/bin/../lib/gcc/arm-none-eabi/12.2.1/../../../../arm-none-eabi/lib/thumb/v7e-m+fp/hard/libstdc++_nano.a(si_class_type_info.o)
                0x08001fa4                __cxxabiv1::__si_class_type_info::__do_find_public_src(int, void const*, __cxxabiv1::__class_type_info const*, void const*) const
 .text._ZNK10__cxxabiv120__si_class_type_info12__do_dyncastEiNS_17__class_type_info10__sub_kindEPKS1_PKvS4_S6_RNS1_16__dyncast_resultE
                0x08001fe0       0x74 /usr/bin/../lib/gcc/arm-none-eabi/12.2.1/../../../../arm-none-eabi/lib/thumb/v7e-m+fp/hard/libstdc++_nano.a(si_class_type_info.o)
                0x08001fe0                __cxxabiv1::__si_class_type_info::__do_dyncast(int, __cxxabiv1::__class_type_info::__sub_kind, __cxxabiv1::__class_type_info const*, void const*, __cxxabiv1::__class_type_info const*, void const*, __cxxabiv1::__class_type_info::__dyncast_result&) const
 .text._ZNK10__cxxabiv120__si_class_type_info11__do_upcastEPKNS_17__class_type_infoEPKvRNS1_15__upcast_resultE
                0x08002054       0x2a /usr/bin/../lib/gcc/arm-none-eabi/12.2.1/../../../../arm-none-eabi/lib/thumb/v7e-m+fp/hard/libstdc++_nano.a(si_class_type_info.o)
                0x08002054                __cxxabiv1::__si_class_type_info::__do_upcast(__cxxabiv1::__class_type_info const*, void const*, __cxxabiv1::__class_type_info::__upcast_result&) const
 .text._ZNSt9type_infoD2Ev
                0x0800207e        0x2 /usr/bin/../lib/gcc/arm-none-eabi/12.2.1/../../../../arm-none-eabi/lib/thumb/v7e-m+fp/hard/libstdc++_nano.a(tinfo.o)
                0x0800207e                std::type_info::~type_info()
                0x0800207e                std::type_info::~type_info()
 .text._ZNKSt9type_info14__is_pointer_pEv
                0x08002080        0x4 /usr/bin/../lib/gcc/arm-none-eabi/12.2.1/../../../../arm-none-eabi/lib/thumb/v7e-m+fp/hard/libstdc++_nano.a(tinfo.o)
                0x08002080                std::type_info::__is_function_p() const
                0x08002080                std::type_info::__is_pointer_p() const
 .text._ZNKSt9type_info11__do_upcastEPKN10__cxxabiv117__class_type_infoEPPv
                0x08002084        0x4 /usr/bin/../lib/gcc/arm-none-eabi/12.2.1/../../../../arm-none-eabi/lib/thumb/v7e-m+fp/hard/libstdc++_nano.a(tinfo.o)
                0x08002084                std::type_info::__do_upcast(__cxxabiv1::__class_type_info const*, void**) const
 .text._ZNSt9type_infoD0Ev
                0x08002088        0xe /usr/bin/../lib/gcc/arm-none-eabi/12.2.1/../../../../arm-none-eabi/lib/thumb/v7e-m+fp/hard/libstdc++_nano.a(tinfo.o)
                0x08002088                std::type_info::~type_info()
 .text._ZNKSt9type_infoeqERKS_
                0x08002096       0x2c /usr/bin/../lib/gcc/arm-none-eabi/12.2.1/../../../../arm-none-eabi/lib/thumb/v7e-m+fp/hard/libstdc++_nano.a(tinfo.o)
                0x08002096                std::type_info::__equal(std::type_info const&) const
                0x08002096                std::type_info::operator==(std::type_info const&) const
 .text._ZNKSt9type_info10__do_catchEPKS_PPvj
                0x080020c2        0x4 /usr/bin/../lib/gcc/arm-none-eabi/12.2.1/../../../../arm-none-eabi/lib/thumb/v7e-m+fp/hard/libstdc++_nano.a(tinfo.o)
                0x080020c2                std::type_info::__do_catch(std::type_info const*, void**, unsigned int) const
 .text.__aeabi_atexit
                0x080020c6        0xa /usr/bin/../lib/gcc/arm-none-eabi/12.2.1/../../../../arm-none-eabi/lib/thumb/v7e-m+fp/hard/libstdc++_nano.a(atexit_arm.o)
                0x080020c6                __aeabi_atexit
 .text._ZNK10__cxxabiv117__class_type_info11__do_upcastEPKS0_PPv
                0x080020d0       0x32 /usr/bin/../lib/gcc/arm-none-eabi/12.2.1/../../../../arm-none-eabi/lib/thumb/v7e-m+fp/hard/libstdc++_nano.a(class_type_info.o)
                0x080020d0                __cxxabiv1::__class_type_info::__do_upcast(__cxxabiv1::__class_type_info const*, void**) const
 .text._ZNK10__cxxabiv117__class_type_info20__do_find_public_srcEiPKvPKS0_S2_
                0x08002102        0xc /usr/bin/../lib/gcc/arm-none-eabi/12.2.1/../../../../arm-none-eabi/lib/thumb/v7e-m+fp/hard/libstdc++_nano.a(class_type_info.o)
                0x08002102                __cxxabiv1::__class_type_info::__do_find_public_src(int, void const*, __cxxabiv1::__class_type_info const*, void const*) const
 *fill*         0x0800210e        0x2 
 .text._ZN10__cxxabiv117__class_type_infoD2Ev
                0x08002110       0x14 /usr/bin/../lib/gcc/arm-none-eabi/12.2.1/../../../../arm-none-eabi/lib/thumb/v7e-m+fp/hard/libstdc++_nano.a(class_type_info.o)
                0x08002110                __cxxabiv1::__class_type_info::~__class_type_info()
                0x08002110                __cxxabiv1::__class_type_info::~__class_type_info()
 .text._ZN10__cxxabiv117__class_type_infoD0Ev
                0x08002124       0x14 /usr/bin/../lib/gcc/arm-none-eabi/12.2.1/../../../../arm-none-eabi/lib/thumb/v7e-m+fp/hard/libstdc++_nano.a(class_type_info.o)
                0x08002124                __cxxabiv1::__class_type_info::~__class_type_info()
 .text._ZNK10__cxxabiv117__class_type_info12__do_dyncastEiNS0_10__sub_kindEPKS0_PKvS3_S5_RNS0_16__dyncast_resultE
                0x08002138       0x3e /usr/bin/../lib/gcc/arm-none-eabi/12.2.1/../../../../arm-none-eabi/lib/thumb/v7e-m+fp/hard/libstdc++_nano.a(class_type_info.o)
                0x08002138                __cxxabiv1::__class_type_info::__do_dyncast(int, __cxxabiv1::__class_type_info::__sub_kind, __cxxabiv1::__class_type_info const*, void const*, __cxxabiv1::__class_type_info const*, void const*, __cxxabiv1::__class_type_info::__dyncast_result&) const
 .text._ZNK10__cxxabiv117__class_type_info11__do_upcastEPKS0_PKvRNS0_15__upcast_resultE
                0x08002176       0x18 /usr/bin/../lib/gcc/arm-none-eabi/12.2.1/../../../../arm-none-eabi/lib/thumb/v7e-m+fp/hard/libstdc++_nano.a(class_type_info.o)
                0x08002176                __cxxabiv1::__class_type_info::__do_upcast(__cxxabiv1::__class_type_info const*, void const*, __cxxabiv1::__class_type_info::__upcast_result&) const
 .text._ZNK10__cxxabiv117__class_type_info10__do_catchEPKSt9type_infoPPvj
                0x0800218e       0x2a /usr/bin/../lib/gcc/arm-none-eabi/12.2.1/../../../../arm-none-eabi/lib/thumb/v7e-m+fp/hard/libstdc++_nano.a(class_type_info.o)
                0x0800218e                __cxxabiv1::__class_type_info::__do_catch(std::type_info const*, void**, unsigned int) const
 .text._ZdlPv   0x080021b8        0x4 /usr/bin/../lib/gcc/arm-none-eabi/12.2.1/../../../../arm-none-eabi/lib/thumb/v7e-m+fp/hard/libstdc++_nano.a(del_op.o)
                0x080021b8                operator delete(void*)
 .text._ZN10__cxxabiv1L24__is_gxx_exception_classEPc
                0x080021bc       0x3a /usr/bin/../lib/gcc/arm-none-eabi/12.2.1/../../../../arm-none-eabi/lib/thumb/v7e-m+fp/hard/libstdc++_nano.a(eh_call.o)
 .text.__cxa_call_terminate
                0x080021f6       0x1e /usr/bin/../lib/gcc/arm-none-eabi/12.2.1/../../../../arm-none-eabi/lib/thumb/v7e-m+fp/hard/libstdc++_nano.a(eh_call.o)
                0x080021f6                __cxa_call_terminate
 .text.__cxa_call_unexpected
                0x08002214       0x24 /usr/bin/../lib/gcc/arm-none-eabi/12.2.1/../../../../arm-none-eabi/lib/thumb/v7e-m+fp/hard/libstdc++_nano.a(eh_call.o)
                0x08002214                __cxa_call_unexpected
 .text._ZN10__cxxabiv1L24__is_gxx_exception_classEPc
                0x08002238       0x3a /usr/bin/../lib/gcc/arm-none-eabi/12.2.1/../../../../arm-none-eabi/lib/thumb/v7e-m+fp/hard/libstdc++_nano.a(eh_catch.o)
 .text.__cxa_get_exception_ptr
                0x08002272        0x4 /usr/bin/../lib/gcc/arm-none-eabi/12.2.1/../../../../arm-none-eabi/lib/thumb/v7e-m+fp/hard/libstdc++_nano.a(eh_catch.o)
                0x08002272                __cxa_get_exception_ptr
 .text.__cxa_begin_catch
                0x08002276       0x52 /usr/bin/../lib/gcc/arm-none-eabi/12.2.1/../../../../arm-none-eabi/lib/thumb/v7e-m+fp/hard/libstdc++_nano.a(eh_catch.o)
                0x08002276                __cxa_begin_catch
 .text.__cxa_end_catch
                0x080022c8       0x48 /usr/bin/../lib/gcc/arm-none-eabi/12.2.1/../../../../arm-none-eabi/lib/thumb/v7e-m+fp/hard/libstdc++_nano.a(eh_catch.o)
                0x080022c8                __cxa_end_catch
 .text._ZSt18uncaught_exceptionv
                0x08002310        0x4 /usr/bin/../lib/gcc/arm-none-eabi/12.2.1/../../../../arm-none-eabi/lib/thumb/v7e-m+fp/hard/libstdc++_nano.a(eh_catch.o)
                0x08002310                std::uncaught_exception()
 .text._ZSt19uncaught_exceptionsv
                0x08002314        0x4 /usr/bin/../lib/gcc/arm-none-eabi/12.2.1/../../../../arm-none-eabi/lib/thumb/v7e-m+fp/hard/libstdc++_nano.a(eh_catch.o)
                0x08002314                std::uncaught_exceptions()
 .text._ZSt15set_new_handlerPFvvE
                0x08002318       0x20 /usr/bin/../lib/gcc/arm-none-eabi/12.2.1/../../../../arm-none-eabi/lib/thumb/v7e-m+fp/hard/libstdc++_nano.a(new_handler.o)
                0x08002318                std::set_new_handler(void (*)())
 .text._ZSt15get_new_handlerv
                0x08002338       0x10 /usr/bin/../lib/gcc/arm-none-eabi/12.2.1/../../../../arm-none-eabi/lib/thumb/v7e-m+fp/hard/libstdc++_nano.a(new_handler.o)
                0x08002338                std::get_new_handler()
 .text.exit     0x08002348       0x24 /usr/bin/../lib/gcc/arm-none-eabi/12.2.1/../../../../arm-none-eabi/lib/thumb/v7e-m+fp/hard/libc_nano.a(libc_a-exit.o)
                0x08002348                exit
 .text.__libc_init_array
                0x0800236c       0x48 /usr/bin/../lib/gcc/arm-none-eabi/12.2.1/../../../../arm-none-eabi/lib/thumb/v7e-m+fp/hard/libc_nano.a(libc_a-init.o)
                0x0800236c                __libc_init_array
 .text.malloc   0x080023b4       0x10 /usr/bin/../lib/gcc/arm-none-eabi/12.2.1/../../../../arm-none-eabi/lib/thumb/v7e-m+fp/hard/libc_nano.a(libc_a-malloc.o)
                0x080023b4                malloc
 .text.free     0x080023c4       0x10 /usr/bin/../lib/gcc/arm-none-eabi/12.2.1/../../../../arm-none-eabi/lib/thumb/v7e-m+fp/hard/libc_nano.a(libc_a-malloc.o)
                0x080023c4                free
 .text.sbrk_aligned
                0x080023d4       0x44 /usr/bin/../lib/gcc/arm-none-eabi/12.2.1/../../../../arm-none-eabi/lib/thumb/v7e-m+fp/hard/libc_nano.a(libc_a-mallocr.o)
 .text._malloc_r
                0x08002418      0x100 /usr/bin/../lib/gcc/arm-none-eabi/12.2.1/../../../../arm-none-eabi/lib/thumb/v7e-m+fp/hard/libc_nano.a(libc_a-mallocr.o)
                0x08002418                _malloc_r
 .text.abort    0x08002518        0xe /usr/bin/../lib/gcc/arm-none-eabi/12.2.1/../../../../arm-none-eabi/lib/thumb/v7e-m+fp/hard/libc_nano.a(libc_a-abort.o)
                0x08002518                abort
 *fill*         0x08002526        0x2 
 .text.__cxa_atexit
                0x08002528       0x1c /usr/bin/../lib/gcc/arm-none-eabi/12.2.1/../../../../arm-none-eabi/lib/thumb/v7e-m+fp/hard/libc_nano.a(libc_a-cxa_atexit.o)
                0x08002528                __cxa_atexit
 .text.std      0x08002544       0x6c /usr/bin/../lib/gcc/arm-none-eabi/12.2.1/../../../../arm-none-eabi/lib/thumb/v7e-m+fp/hard/libc_nano.a(libc_a-findfp.o)
 .text.stdio_exit_handler
                0x080025b0       0x18 /usr/bin/../lib/gcc/arm-none-eabi/12.2.1/../../../../arm-none-eabi/lib/thumb/v7e-m+fp/hard/libc_nano.a(libc_a-findfp.o)
 .text.cleanup_stdio
                0x080025c8       0x40 /usr/bin/../lib/gcc/arm-none-eabi/12.2.1/../../../../arm-none-eabi/lib/thumb/v7e-m+fp/hard/libc_nano.a(libc_a-findfp.o)
 .text.__fp_lock
                0x08002608       0x18 /usr/bin/../lib/gcc/arm-none-eabi/12.2.1/../../../../arm-none-eabi/lib/thumb/v7e-m+fp/hard/libc_nano.a(libc_a-findfp.o)
 .text.__fp_unlock
                0x08002620       0x18 /usr/bin/../lib/gcc/arm-none-eabi/12.2.1/../../../../arm-none-eabi/lib/thumb/v7e-m+fp/hard/libc_nano.a(libc_a-findfp.o)
 .text.global_stdio_init.part.0
                0x08002638       0x3c /usr/bin/../lib/gcc/arm-none-eabi/12.2.1/../../../../arm-none-eabi/lib/thumb/v7e-m+fp/hard/libc_nano.a(libc_a-findfp.o)
 .text.__sfp_lock_acquire
                0x08002674        0xc /usr/bin/../lib/gcc/arm-none-eabi/12.2.1/../../../../arm-none-eabi/lib/thumb/v7e-m+fp/hard/libc_nano.a(libc_a-findfp.o)
                0x08002674                __sfp_lock_acquire
 .text.__sfp_lock_release
                0x08002680        0xc /usr/bin/../lib/gcc/arm-none-eabi/12.2.1/../../../../arm-none-eabi/lib/thumb/v7e-m+fp/hard/libc_nano.a(libc_a-findfp.o)
                0x08002680                __sfp_lock_release
 .text.__sfp    0x0800268c       0xa4 /usr/bin/../lib/gcc/arm-none-eabi/12.2.1/../../../../arm-none-eabi/lib/thumb/v7e-m+fp/hard/libc_nano.a(libc_a-findfp.o)
                0x0800268c                __sfp
 .text.__sinit  0x08002730       0x30 /usr/bin/../lib/gcc/arm-none-eabi/12.2.1/../../../../arm-none-eabi/lib/thumb/v7e-m+fp/hard/libc_nano.a(libc_a-findfp.o)
                0x08002730                __sinit
 .text.__fp_lock_all
                0x08002760       0x1c /usr/bin/../lib/gcc/arm-none-eabi/12.2.1/../../../../arm-none-eabi/lib/thumb/v7e-m+fp/hard/libc_nano.a(libc_a-findfp.o)
                0x08002760                __fp_lock_all
 .text.__fp_unlock_all
                0x0800277c       0x1c /usr/bin/../lib/gcc/arm-none-eabi/12.2.1/../../../../arm-none-eabi/lib/thumb/v7e-m+fp/hard/libc_nano.a(libc_a-findfp.o)
                0x0800277c                __fp_unlock_all
 .text.__sread  0x08002798       0x22 /usr/bin/../lib/gcc/arm-none-eabi/12.2.1/../../../../arm-none-eabi/lib/thumb/v7e-m+fp/hard/libc_nano.a(libc_a-stdio.o)
                0x08002798                __sread
 .text.__seofread
                0x080027ba        0x4 /usr/bin/../lib/gcc/arm-none-eabi/12.2.1/../../../../arm-none-eabi/lib/thumb/v7e-m+fp/hard/libc_nano.a(libc_a-stdio.o)
                0x080027ba                __seofread
 .text.__swrite
                0x080027be       0x38 /usr/bin/../lib/gcc/arm-none-eabi/12.2.1/../../../../arm-none-eabi/lib/thumb/v7e-m+fp/hard/libc_nano.a(libc_a-stdio.o)
                0x080027be                __swrite
 .text.__sseek  0x080027f6       0x24 /usr/bin/../lib/gcc/arm-none-eabi/12.2.1/../../../../arm-none-eabi/lib/thumb/v7e-m+fp/hard/libc_nano.a(libc_a-stdio.o)
                0x080027f6                __sseek
 .text.__sclose
                0x0800281a        0x8 /usr/bin/../lib/gcc/arm-none-eabi/12.2.1/../../../../arm-none-eabi/lib/thumb/v7e-m+fp/hard/libc_nano.a(libc_a-stdio.o)
                0x0800281a                __sclose
 *fill*         0x08002822        0x2 
 .text.__malloc_lock
                0x08002824        0xc /usr/bin/../lib/gcc/arm-none-eabi/12.2.1/../../../../arm-none-eabi/lib/thumb/v7e-m+fp/hard/libc_nano.a(libc_a-mlock.o)
                0x08002824                __malloc_lock
 .text.__malloc_unlock
                0x08002830        0xc /usr/bin/../lib/gcc/arm-none-eabi/12.2.1/../../../../arm-none-eabi/lib/thumb/v7e-m+fp/hard/libc_nano.a(libc_a-mlock.o)
                0x08002830                __malloc_unlock
 .text._sbrk_r  0x0800283c       0x20 /usr/bin/../lib/gcc/arm-none-eabi/12.2.1/../../../../arm-none-eabi/lib/thumb/v7e-m+fp/hard/libc_nano.a(libc_a-sbrkr.o)
                0x0800283c                _sbrk_r
 .text._write_r
                0x0800285c       0x24 /usr/bin/../lib/gcc/arm-none-eabi/12.2.1/../../../../arm-none-eabi/lib/thumb/v7e-m+fp/hard/libc_nano.a(libc_a-writer.o)
                0x0800285c                _write_r
 .text.__errno  0x08002880        0xc /usr/bin/../lib/gcc/arm-none-eabi/12.2.1/../../../../arm-none-eabi/lib/thumb/v7e-m+fp/hard/libc_nano.a(libc_a-errno.o)
                0x08002880                __errno
 .text._fwalk_sglue
                0x0800288c       0x3c /usr/bin/../lib/gcc/arm-none-eabi/12.2.1/../../../../arm-none-eabi/lib/thumb/v7e-m+fp/hard/libc_nano.a(libc_a-fwalk.o)
                0x0800288c                _fwalk_sglue
 .text.memset   0x080028c8       0x10 /usr/bin/../lib/gcc/arm-none-eabi/12.2.1/../../../../arm-none-eabi/lib/thumb/v7e-m+fp/hard/libc_nano.a(libc_a-memset.o)
                0x080028c8                memset
 .text._free_r  0x080028d8       0x94 /usr/bin/../lib/gcc/arm-none-eabi/12.2.1/../../../../arm-none-eabi/lib/thumb/v7e-m+fp/hard/libc_nano.a(libc_a-freer.o)
                0x080028d8                _free_r
 .text.__retarget_lock_init
                0x0800296c        0x2 /usr/bin/../lib/gcc/arm-none-eabi/12.2.1/../../../../arm-none-eabi/lib/thumb/v7e-m+fp/hard/libc_nano.a(libc_a-lock.o)
                0x0800296c                __retarget_lock_init
 .text.__retarget_lock_init_recursive
                0x0800296e        0x2 /usr/bin/../lib/gcc/arm-none-eabi/12.2.1/../../../../arm-none-eabi/lib/thumb/v7e-m+fp/hard/libc_nano.a(libc_a-lock.o)
                0x0800296e                __retarget_lock_init_recursive
 .text.__retarget_lock_close
                0x08002970        0x2 /usr/bin/../lib/gcc/arm-none-eabi/12.2.1/../../../../arm-none-eabi/lib/thumb/v7e-m+fp/hard/libc_nano.a(libc_a-lock.o)
                0x08002970                __retarget_lock_close
 .text.__retarget_lock_close_recursive
                0x08002972        0x2 /usr/bin/../lib/gcc/arm-none-eabi/12.2.1/../../../../arm-none-eabi/lib/thumb/v7e-m+fp/hard/libc_nano.a(libc_a-lock.o)
                0x08002972                __retarget_lock_close_recursive
 .text.__retarget_lock_acquire
                0x08002974        0x2 /usr/bin/../lib/gcc/arm-none-eabi/12.2.1/../../../../arm-none-eabi/lib/thumb/v7e-m+fp/hard/libc_nano.a(libc_a-lock.o)
                0x08002974                __retarget_lock_acquire
 .text.__retarget_lock_acquire_recursive
                0x08002976        0x2 /usr/bin/../lib/gcc/arm-none-eabi/12.2.1/../../../../arm-none-eabi/lib/thumb/v7e-m+fp/hard/libc_nano.a(libc_a-lock.o)
                0x08002976                __retarget_lock_acquire_recursive
 .text.__retarget_lock_try_acquire
                0x08002978        0x4 /usr/bin/../lib/gcc/arm-none-eabi/12.2.1/../../../../arm-none-eabi/lib/thumb/v7e-m+fp/hard/libc_nano.a(libc_a-lock.o)
                0x08002978                __retarget_lock_try_acquire
 .text.__retarget_lock_try_acquire_recursive
                0x0800297c        0x4 /usr/bin/../lib/gcc/arm-none-eabi/12.2.1/../../../../arm-none-eabi/lib/thumb/v7e-m+fp/hard/libc_nano.a(libc_a-lock.o)
                0x0800297c                __retarget_lock_try_acquire_recursive
 .text.__retarget_lock_release
                0x08002980        0x2 /usr/bin/../lib/gcc/arm-none-eabi/12.2.1/../../../../arm-none-eabi/lib/thumb/v7e-m+fp/hard/libc_nano.a(libc_a-lock.o)
                0x08002980                __retarget_lock_release
 .text.__retarget_lock_release_recursive
                0x08002982        0x2 /usr/bin/../lib/gcc/arm-none-eabi/12.2.1/../../../../arm-none-eabi/lib/thumb/v7e-m+fp/hard/libc_nano.a(libc_a-lock.o)
                0x08002982                __retarget_lock_release_recursive
 .text._close_r
                0x08002984       0x20 /usr/bin/../lib/gcc/arm-none-eabi/12.2.1/../../../../arm-none-eabi/lib/thumb/v7e-m+fp/hard/libc_nano.a(libc_a-closer.o)
                0x08002984                _close_r
 .text._reclaim_reent
                0x080029a4       0xac /usr/bin/../lib/gcc/arm-none-eabi/12.2.1/../../../../arm-none-eabi/lib/thumb/v7e-m+fp/hard/libc_nano.a(libc_a-reent.o)
                0x080029a4                _reclaim_reent
 .text.__sflush_r
                0x08002a50      0x108 /usr/bin/../lib/gcc/arm-none-eabi/12.2.1/../../../../arm-none-eabi/lib/thumb/v7e-m+fp/hard/libc_nano.a(libc_a-fflush.o)
                0x08002a50                __sflush_r
 .text._fflush_r
                0x08002b58       0x50 /usr/bin/../lib/gcc/arm-none-eabi/12.2.1/../../../../arm-none-eabi/lib/thumb/v7e-m+fp/hard/libc_nano.a(libc_a-fflush.o)
                0x08002b58                _fflush_r
 .text.fflush   0x08002ba8       0x28 /usr/bin/../lib/gcc/arm-none-eabi/12.2.1/../../../../arm-none-eabi/lib/thumb/v7e-m+fp/hard/libc_nano.a(libc_a-fflush.o)
                0x08002ba8                fflush
 .text._init_signal_r
                0x08002bd0       0x28 /usr/bin/../lib/gcc/arm-none-eabi/12.2.1/../../../../arm-none-eabi/lib/thumb/v7e-m+fp/hard/libc_nano.a(libc_a-signal.o)
                0x08002bd0                _init_signal_r
 .text._signal_r
                0x08002bf8       0x30 /usr/bin/../lib/gcc/arm-none-eabi/12.2.1/../../../../arm-none-eabi/lib/thumb/v7e-m+fp/hard/libc_nano.a(libc_a-signal.o)
                0x08002bf8                _signal_r
 .text._raise_r
                0x08002c28       0x50 /usr/bin/../lib/gcc/arm-none-eabi/12.2.1/../../../../arm-none-eabi/lib/thumb/v7e-m+fp/hard/libc_nano.a(libc_a-signal.o)
                0x08002c28                _raise_r
 .text.__sigtramp_r
                0x08002c78       0x48 /usr/bin/../lib/gcc/arm-none-eabi/12.2.1/../../../../arm-none-eabi/lib/thumb/v7e-m+fp/hard/libc_nano.a(libc_a-signal.o)
                0x08002c78                __sigtramp_r
 .text.raise    0x08002cc0       0x10 /usr/bin/../lib/gcc/arm-none-eabi/12.2.1/../../../../arm-none-eabi/lib/thumb/v7e-m+fp/hard/libc_nano.a(libc_a-signal.o)
                0x08002cc0                raise
 .text.signal   0x08002cd0       0x10 /usr/bin/../lib/gcc/arm-none-eabi/12.2.1/../../../../arm-none-eabi/lib/thumb/v7e-m+fp/hard/libc_nano.a(libc_a-signal.o)
                0x08002cd0                signal
 .text._init_signal
                0x08002ce0        0xc /usr/bin/../lib/gcc/arm-none-eabi/12.2.1/../../../../arm-none-eabi/lib/thumb/v7e-m+fp/hard/libc_nano.a(libc_a-signal.o)
                0x08002ce0                _init_signal
 .text.__sigtramp
                0x08002cec       0x10 /usr/bin/../lib/gcc/arm-none-eabi/12.2.1/../../../../arm-none-eabi/lib/thumb/v7e-m+fp/hard/libc_nano.a(libc_a-signal.o)
                0x08002cec                __sigtramp
 .text._lseek_r
                0x08002cfc       0x24 /usr/bin/../lib/gcc/arm-none-eabi/12.2.1/../../../../arm-none-eabi/lib/thumb/v7e-m+fp/hard/libc_nano.a(libc_a-lseekr.o)
                0x08002cfc                _lseek_r
 .text._read_r  0x08002d20       0x24 /usr/bin/../lib/gcc/arm-none-eabi/12.2.1/../../../../arm-none-eabi/lib/thumb/v7e-m+fp/hard/libc_nano.a(libc_a-readr.o)
                0x08002d20                _read_r
 .text._kill_r  0x08002d44       0x24 /usr/bin/../lib/gcc/arm-none-eabi/12.2.1/../../../../arm-none-eabi/lib/thumb/v7e-m+fp/hard/libc_nano.a(libc_a-signalr.o)
                0x08002d44                _kill_r
 .text._getpid_r
                0x08002d68        0x4 /usr/bin/../lib/gcc/arm-none-eabi/12.2.1/../../../../arm-none-eabi/lib/thumb/v7e-m+fp/hard/libc_nano.a(libc_a-signalr.o)
                0x08002d68                _getpid_r
 .text.selfrel_offset31
                0x08002d6c       0x14 /usr/bin/../lib/gcc/arm-none-eabi/12.2.1/thumb/v7e-m+fp/hard/libgcc.a(unwind-arm.o)
 .text.search_EIT_table
                0x08002d80       0x64 /usr/bin/../lib/gcc/arm-none-eabi/12.2.1/thumb/v7e-m+fp/hard/libgcc.a(unwind-arm.o)
 .text.__gnu_unwind_get_pr_addr
                0x08002de4       0x28 /usr/bin/../lib/gcc/arm-none-eabi/12.2.1/thumb/v7e-m+fp/hard/libgcc.a(unwind-arm.o)
 .text.get_eit_entry
                0x08002e0c       0x94 /usr/bin/../lib/gcc/arm-none-eabi/12.2.1/thumb/v7e-m+fp/hard/libgcc.a(unwind-arm.o)
 .text.restore_non_core_regs
                0x08002ea0       0x58 /usr/bin/../lib/gcc/arm-none-eabi/12.2.1/thumb/v7e-m+fp/hard/libgcc.a(unwind-arm.o)
 .text.__gnu_unwind_24bit.constprop.0
                0x08002ef8        0x4 /usr/bin/../lib/gcc/arm-none-eabi/12.2.1/thumb/v7e-m+fp/hard/libgcc.a(unwind-arm.o)
 .text._Unwind_decode_typeinfo_ptr.constprop.0
                0x08002efc        0xc /usr/bin/../lib/gcc/arm-none-eabi/12.2.1/thumb/v7e-m+fp/hard/libgcc.a(unwind-arm.o)
 .text._Unwind_DebugHook
                0x08002f08        0x4 /usr/bin/../lib/gcc/arm-none-eabi/12.2.1/thumb/v7e-m+fp/hard/libgcc.a(unwind-arm.o)
 .text.unwind_phase2
                0x08002f0c       0x38 /usr/bin/../lib/gcc/arm-none-eabi/12.2.1/thumb/v7e-m+fp/hard/libgcc.a(unwind-arm.o)
 .text.unwind_phase2_forced
                0x08002f44       0xd4 /usr/bin/../lib/gcc/arm-none-eabi/12.2.1/thumb/v7e-m+fp/hard/libgcc.a(unwind-arm.o)
 .text._Unwind_GetCFA
                0x08003018        0x4 /usr/bin/../lib/gcc/arm-none-eabi/12.2.1/thumb/v7e-m+fp/hard/libgcc.a(unwind-arm.o)
                0x08003018                _Unwind_GetCFA
 .text.__gnu_Unwind_RaiseException
                0x0800301c       0x68 /usr/bin/../lib/gcc/arm-none-eabi/12.2.1/thumb/v7e-m+fp/hard/libgcc.a(unwind-arm.o)
                0x0800301c                __gnu_Unwind_RaiseException
 .text.__gnu_Unwind_ForcedUnwind
                0x08003084       0x10 /usr/bin/../lib/gcc/arm-none-eabi/12.2.1/thumb/v7e-m+fp/hard/libgcc.a(unwind-arm.o)
                0x08003084                __gnu_Unwind_ForcedUnwind
 .text.__gnu_Unwind_Resume
                0x08003094       0x40 /usr/bin/../lib/gcc/arm-none-eabi/12.2.1/thumb/v7e-m+fp/hard/libgcc.a(unwind-arm.o)
                0x08003094                __gnu_Unwind_Resume
 .text.__gnu_Unwind_Resume_or_Rethrow
                0x080030d4       0x14 /usr/bin/../lib/gcc/arm-none-eabi/12.2.1/thumb/v7e-m+fp/hard/libgcc.a(unwind-arm.o)
                0x080030d4                __gnu_Unwind_Resume_or_Rethrow
 .text._Unwind_Complete
                0x080030e8        0x4 /usr/bin/../lib/gcc/arm-none-eabi/12.2.1/thumb/v7e-m+fp/hard/libgcc.a(unwind-arm.o)
                0x080030e8                _Unwind_Complete
 .text._Unwind_DeleteException
                0x080030ec        0xc /usr/bin/../lib/gcc/arm-none-eabi/12.2.1/thumb/v7e-m+fp/hard/libgcc.a(unwind-arm.o)
                0x080030ec                _Unwind_DeleteException
 .text._Unwind_VRS_Get
                0x080030f8       0x34 /usr/bin/../lib/gcc/arm-none-eabi/12.2.1/thumb/v7e-m+fp/hard/libgcc.a(unwind-arm.o)
                0x080030f8                _Unwind_VRS_Get
 .text._Unwind_GetGR
                0x0800312c       0x1c /usr/bin/../lib/gcc/arm-none-eabi/12.2.1/thumb/v7e-m+fp/hard/libgcc.a(unwind-arm.o)
 .text._Unwind_VRS_Set
                0x08003148       0x34 /usr/bin/../lib/gcc/arm-none-eabi/12.2.1/thumb/v7e-m+fp/hard/libgcc.a(unwind-arm.o)
                0x08003148                _Unwind_VRS_Set
 .text._Unwind_SetGR
                0x0800317c       0x18 /usr/bin/../lib/gcc/arm-none-eabi/12.2.1/thumb/v7e-m+fp/hard/libgcc.a(unwind-arm.o)
 .text.__gnu_Unwind_Backtrace
                0x08003194       0x84 /usr/bin/../lib/gcc/arm-none-eabi/12.2.1/thumb/v7e-m+fp/hard/libgcc.a(unwind-arm.o)
                0x08003194                __gnu_Unwind_Backtrace
 .text.__gnu_unwind_pr_common
                0x08003218      0x298 /usr/bin/../lib/gcc/arm-none-eabi/12.2.1/thumb/v7e-m+fp/hard/libgcc.a(unwind-arm.o)
 .text.__aeabi_unwind_cpp_pr0
                0x080034b0        0x8 /usr/bin/../lib/gcc/arm-none-eabi/12.2.1/thumb/v7e-m+fp/hard/libgcc.a(unwind-arm.o)
                0x080034b0                __aeabi_unwind_cpp_pr0
 .text.__aeabi_unwind_cpp_pr1
                0x080034b8        0x8 /usr/bin/../lib/gcc/arm-none-eabi/12.2.1/thumb/v7e-m+fp/hard/libgcc.a(unwind-arm.o)
                0x080034b8                __aeabi_unwind_cpp_pr1
 .text.__aeabi_unwind_cpp_pr2
                0x080034c0        0x8 /usr/bin/../lib/gcc/arm-none-eabi/12.2.1/thumb/v7e-m+fp/hard/libgcc.a(unwind-arm.o)
                0x080034c0                __aeabi_unwind_cpp_pr2
 .text._Unwind_VRS_Pop
                0x080034c8      0x2f4 /usr/bin/../lib/gcc/arm-none-eabi/12.2.1/thumb/v7e-m+fp/hard/libgcc.a(unwind-arm.o)
                0x080034c8                _Unwind_VRS_Pop
 .text.next_unwind_byte
                0x080037bc       0x38 /usr/bin/../lib/gcc/arm-none-eabi/12.2.1/thumb/v7e-m+fp/hard/libgcc.a(pr-support.o)
 .text._Unwind_GetGR.constprop.0
                0x080037f4       0x1c /usr/bin/../lib/gcc/arm-none-eabi/12.2.1/thumb/v7e-m+fp/hard/libgcc.a(pr-support.o)
 .text.unwind_UCB_from_context
                0x08003810        0x4 /usr/bin/../lib/gcc/arm-none-eabi/12.2.1/thumb/v7e-m+fp/hard/libgcc.a(pr-support.o)
 .text.__gnu_unwind_execute
                0x08003814      0x2fc /usr/bin/../lib/gcc/arm-none-eabi/12.2.1/thumb/v7e-m+fp/hard/libgcc.a(pr-support.o)
                0x08003814                __gnu_unwind_execute
 .text.__gnu_unwind_frame
                0x08003b10       0x2c /usr/bin/../lib/gcc/arm-none-eabi/12.2.1/thumb/v7e-m+fp/hard/libgcc.a(pr-support.o)
                0x08003b10                __gnu_unwind_frame
 .text._Unwind_GetRegionStart
                0x08003b3c        0xc /usr/bin/../lib/gcc/arm-none-eabi/12.2.1/thumb/v7e-m+fp/hard/libgcc.a(pr-support.o)
                0x08003b3c                _Unwind_GetRegionStart
 .text._Unwind_GetLanguageSpecificData
                0x08003b48       0x14 /usr/bin/../lib/gcc/arm-none-eabi/12.2.1/thumb/v7e-m+fp/hard/libgcc.a(pr-support.o)
                0x08003b48                _Unwind_GetLanguageSpecificData
 .text.unlikely._Unwind_GetDataRelBase
                0x08003b5c        0x6 /usr/bin/../lib/gcc/arm-none-eabi/12.2.1/thumb/v7e-m+fp/hard/libgcc.a(pr-support.o)
                0x08003b5c                _Unwind_GetDataRelBase
 .text.unlikely._Unwind_GetTextRelBase
                0x08003b62        0x6 /usr/bin/../lib/gcc/arm-none-eabi/12.2.1/thumb/v7e-m+fp/hard/libgcc.a(pr-support.o)
                0x08003b62                _Unwind_GetTextRelBase
 .text.memcpy   0x08003b68       0x1c /usr/bin/../lib/gcc/arm-none-eabi/12.2.1/../../../../arm-none-eabi/lib/thumb/v7e-m+fp/hard/libc_nano.a(libc_a-memcpy-stub.o)
                0x08003b68                memcpy
 *(.glue_7)
 .glue_7        0x08003b84        0x0 linker stubs
 *(.glue_7t)
 .glue_7t       0x08003b84        0x0 linker stubs
 *(.eh_frame)
 .eh_frame      0x08003b84        0x0 /usr/bin/../lib/gcc/arm-none-eabi/12.2.1/thumb/v7e-m+fp/hard/crtbegin.o
 .eh_frame      0x08003b84        0x4 /usr/bin/../lib/gcc/arm-none-eabi/12.2.1/thumb/v7e-m+fp/hard/crtend.o
 *(.init)
 .init          0x08003b88        0x4 /usr/bin/../lib/gcc/arm-none-eabi/12.2.1/thumb/v7e-m+fp/hard/crti.o
                0x08003b88                _init
 .init          0x08003b8c        0x8 /usr/bin/../lib/gcc/arm-none-eabi/12.2.1/thumb/v7e-m+fp/hard/crtn.o
 *(.fini)
 .fini          0x08003b94        0x4 /usr/bin/../lib/gcc/arm-none-eabi/12.2.1/thumb/v7e-m+fp/hard/crti.o
                0x08003b94                _fini
 .fini          0x08003b98        0x8 /usr/bin/../lib/gcc/arm-none-eabi/12.2.1/thumb/v7e-m+fp/hard/crtn.o
                0x08003ba0                        . = ALIGN (0x4)
                0x08003ba0                        _etext = .

.vfp11_veneer   0x08003ba0        0x0
 .vfp11_veneer  0x08003ba0        0x0 linker stubs

.v4_bx          0x08003ba0        0x0
 .v4_bx         0x08003ba0        0x0 linker stubs

.iplt           0x08003ba0        0x0
 .iplt          0x08003ba0        0x0 /usr/bin/../lib/gcc/arm-none-eabi/12.2.1/thumb/v7e-m+fp/hard/crtbegin.o

.rodata         0x08003ba0      0x2d8
                0x08003ba0                        . = ALIGN (0x4)
 *(.rodata)
 *(.rodata*)
 .rodata.all_implied_fbits
                0x08003ba0       0x24 /usr/bin/../lib/gcc/arm-none-eabi/12.2.1/thumb/v7e-m+fp/hard/crtbegin.o
 .rodata._ZL24IOPinMandatoryParameters
                0x08003bc4        0x4 Debug/Drivers/GPIO/IOPin.o
 .rodata._ZTV9ContainerI15IOPinPropertiesJ8GpioPort7GpioPin8GpioMode9GpioStateEE
                0x08003bc8       0x14 Debug/Drivers/GPIO/IOPin.o
                0x08003bc8                vtable for Container<IOPinProperties, GpioPort, GpioPin, GpioMode, GpioState>
 .rodata._ZTV13ContainerBaseIJ8GpioPort7GpioPin8GpioMode9GpioStateEE
                0x08003bdc       0x14 Debug/Drivers/GPIO/IOPin.o
                0x08003bdc                vtable for ContainerBase<GpioPort, GpioPin, GpioMode, GpioState>
 .rodata._ZTV9ContainerI15IOPinPropertiesJPF16IOPinStatusCodesRK8GpioPortP14PeripheralBaseIS1_Lj1ES_IS0_JS2_7GpioPin8GpioMode9GpioStateEEJEEEPFS1_RKS6_SB_EPFS1_RKS7_SB_EPFS1_RKS8_SB_EEE
                0x08003bf0       0x14 Debug/Drivers/GPIO/IOPin.o
                0x08003bf0                vtable for Container<IOPinProperties, IOPinStatusCodes (*)(GpioPort const&, PeripheralBase<IOPinStatusCodes, 1u, Container<IOPinProperties, GpioPort, GpioPin, GpioMode, GpioState>>*), IOPinStatusCodes (*)(GpioPin const&, PeripheralBase<IOPinStatusCodes, 1u, Container<IOPinProperties, GpioPort, GpioPin, GpioMode, GpioState>>*), IOPinStatusCodes (*)(GpioMode const&, PeripheralBase<IOPinStatusCodes, 1u, Container<IOPinProperties, GpioPort, GpioPin, GpioMode, GpioState>>*), IOPinStatusCodes (*)(GpioState const&, PeripheralBase<IOPinStatusCodes, 1u, Container<IOPinProperties, GpioPort, GpioPin, GpioMode, GpioState>>*)>
 .rodata._ZTV13ContainerBaseIJPF16IOPinStatusCodesRK8GpioPortP14PeripheralBaseIS0_Lj1E9ContainerI15IOPinPropertiesJS1_7GpioPin8GpioMode9GpioStateEEJEEEPFS0_RKS7_SC_EPFS0_RKS8_SC_EPFS0_RKS9_SC_EEE
                0x08003c04       0x14 Debug/Drivers/GPIO/IOPin.o
                0x08003c04                vtable for ContainerBase<IOPinStatusCodes (*)(GpioPort const&, PeripheralBase<IOPinStatusCodes, 1u, Container<IOPinProperties, GpioPort, GpioPin, GpioMode, GpioState>>*), IOPinStatusCodes (*)(GpioPin const&, PeripheralBase<IOPinStatusCodes, 1u, Container<IOPinProperties, GpioPort, GpioPin, GpioMode, GpioState>>*), IOPinStatusCodes (*)(GpioMode const&, PeripheralBase<IOPinStatusCodes, 1u, Container<IOPinProperties, GpioPort, GpioPin, GpioMode, GpioState>>*), IOPinStatusCodes (*)(GpioState const&, PeripheralBase<IOPinStatusCodes, 1u, Container<IOPinProperties, GpioPort, GpioPin, GpioMode, GpioState>>*)>
 .rodata._ZTV5IOPin
                0x08003c18       0x14 Debug/Drivers/GPIO/IOPin.o
                0x08003c18                vtable for IOPin
 .rodata._ZTV19STM32PeripheralBaseI12GPIO_TypeDef14PeripheralBaseI16IOPinStatusCodesLj1E9ContainerI15IOPinPropertiesJ8GpioPort7GpioPin8GpioMode9GpioStateEEJEEE
                0x08003c2c       0x14 Debug/Drivers/GPIO/IOPin.o
                0x08003c2c                vtable for STM32PeripheralBase<GPIO_TypeDef, PeripheralBase<IOPinStatusCodes, 1u, Container<IOPinProperties, GpioPort, GpioPin, GpioMode, GpioState>> >
 .rodata._ZTV14PeripheralBaseI16IOPinStatusCodesLj1E9ContainerI15IOPinPropertiesJ8GpioPort7GpioPin8GpioMode9GpioStateEEJEE
                0x08003c40       0x14 Debug/Drivers/GPIO/IOPin.o
                0x08003c40                vtable for PeripheralBase<IOPinStatusCodes, 1u, Container<IOPinProperties, GpioPort, GpioPin, GpioMode, GpioState>>
 .rodata._ZL24IOPinMandatoryParameters
                0x08003c54        0x4 Debug/Src/main.o
 .rodata._ZNKSt9exception4whatEv.str1.1
                0x08003c58        0xf /usr/bin/../lib/gcc/arm-none-eabi/12.2.1/../../../../arm-none-eabi/lib/thumb/v7e-m+fp/hard/libstdc++_nano.a(eh_exception.o)
 .rodata._ZNKSt13bad_exception4whatEv.str1.1
                0x08003c67       0x13 /usr/bin/../lib/gcc/arm-none-eabi/12.2.1/../../../../arm-none-eabi/lib/thumb/v7e-m+fp/hard/libstdc++_nano.a(eh_exception.o)
 .rodata._ZTSSt9exception
                0x08003c7a        0xd /usr/bin/../lib/gcc/arm-none-eabi/12.2.1/../../../../arm-none-eabi/lib/thumb/v7e-m+fp/hard/libstdc++_nano.a(eh_exception.o)
                0x08003c7a                typeinfo name for std::exception
 *fill*         0x08003c87        0x1 
 .rodata._ZTISt9exception
                0x08003c88        0x8 /usr/bin/../lib/gcc/arm-none-eabi/12.2.1/../../../../arm-none-eabi/lib/thumb/v7e-m+fp/hard/libstdc++_nano.a(eh_exception.o)
                0x08003c88                typeinfo for std::exception
 .rodata._ZTSSt13bad_exception
                0x08003c90       0x12 /usr/bin/../lib/gcc/arm-none-eabi/12.2.1/../../../../arm-none-eabi/lib/thumb/v7e-m+fp/hard/libstdc++_nano.a(eh_exception.o)
                0x08003c90                typeinfo name for std::bad_exception
 *fill*         0x08003ca2        0x2 
 .rodata._ZTISt13bad_exception
                0x08003ca4        0xc /usr/bin/../lib/gcc/arm-none-eabi/12.2.1/../../../../arm-none-eabi/lib/thumb/v7e-m+fp/hard/libstdc++_nano.a(eh_exception.o)
                0x08003ca4                typeinfo for std::bad_exception
 .rodata._ZTSN10__cxxabiv115__forced_unwindE
                0x08003cb0       0x20 /usr/bin/../lib/gcc/arm-none-eabi/12.2.1/../../../../arm-none-eabi/lib/thumb/v7e-m+fp/hard/libstdc++_nano.a(eh_exception.o)
                0x08003cb0                typeinfo name for __cxxabiv1::__forced_unwind
 .rodata._ZTIN10__cxxabiv115__forced_unwindE
                0x08003cd0        0x8 /usr/bin/../lib/gcc/arm-none-eabi/12.2.1/../../../../arm-none-eabi/lib/thumb/v7e-m+fp/hard/libstdc++_nano.a(eh_exception.o)
                0x08003cd0                typeinfo for __cxxabiv1::__forced_unwind
 .rodata._ZTSN10__cxxabiv119__foreign_exceptionE
                0x08003cd8       0x24 /usr/bin/../lib/gcc/arm-none-eabi/12.2.1/../../../../arm-none-eabi/lib/thumb/v7e-m+fp/hard/libstdc++_nano.a(eh_exception.o)
                0x08003cd8                typeinfo name for __cxxabiv1::__foreign_exception
 .rodata._ZTIN10__cxxabiv119__foreign_exceptionE
                0x08003cfc        0x8 /usr/bin/../lib/gcc/arm-none-eabi/12.2.1/../../../../arm-none-eabi/lib/thumb/v7e-m+fp/hard/libstdc++_nano.a(eh_exception.o)
                0x08003cfc                typeinfo for __cxxabiv1::__foreign_exception
 .rodata._ZTVSt9exception
                0x08003d04       0x14 /usr/bin/../lib/gcc/arm-none-eabi/12.2.1/../../../../arm-none-eabi/lib/thumb/v7e-m+fp/hard/libstdc++_nano.a(eh_exception.o)
                0x08003d04                vtable for std::exception
 .rodata._ZTVSt13bad_exception
                0x08003d18       0x14 /usr/bin/../lib/gcc/arm-none-eabi/12.2.1/../../../../arm-none-eabi/lib/thumb/v7e-m+fp/hard/libstdc++_nano.a(eh_exception.o)
                0x08003d18                vtable for std::bad_exception
 .rodata._ZTVN10__cxxabiv115__forced_unwindE
                0x08003d2c       0x14 /usr/bin/../lib/gcc/arm-none-eabi/12.2.1/../../../../arm-none-eabi/lib/thumb/v7e-m+fp/hard/libstdc++_nano.a(eh_exception.o)
                0x08003d2c                vtable for __cxxabiv1::__forced_unwind
 .rodata._ZTVN10__cxxabiv119__foreign_exceptionE
                0x08003d40       0x14 /usr/bin/../lib/gcc/arm-none-eabi/12.2.1/../../../../arm-none-eabi/lib/thumb/v7e-m+fp/hard/libstdc++_nano.a(eh_exception.o)
                0x08003d40                vtable for __cxxabiv1::__foreign_exception
 .rodata._ZTSN10__cxxabiv120__si_class_type_infoE
                0x08003d54       0x25 /usr/bin/../lib/gcc/arm-none-eabi/12.2.1/../../../../arm-none-eabi/lib/thumb/v7e-m+fp/hard/libstdc++_nano.a(si_class_type_info.o)
                0x08003d54                typeinfo name for __cxxabiv1::__si_class_type_info
 *fill*         0x08003d79        0x3 
 .rodata._ZTIN10__cxxabiv120__si_class_type_infoE
                0x08003d7c        0xc /usr/bin/../lib/gcc/arm-none-eabi/12.2.1/../../../../arm-none-eabi/lib/thumb/v7e-m+fp/hard/libstdc++_nano.a(si_class_type_info.o)
                0x08003d7c                typeinfo for __cxxabiv1::__si_class_type_info
 .rodata._ZTVN10__cxxabiv120__si_class_type_infoE
                0x08003d88       0x2c /usr/bin/../lib/gcc/arm-none-eabi/12.2.1/../../../../arm-none-eabi/lib/thumb/v7e-m+fp/hard/libstdc++_nano.a(si_class_type_info.o)
                0x08003d88                vtable for __cxxabiv1::__si_class_type_info
 .rodata._ZTSSt9type_info
                0x08003db4        0xd /usr/bin/../lib/gcc/arm-none-eabi/12.2.1/../../../../arm-none-eabi/lib/thumb/v7e-m+fp/hard/libstdc++_nano.a(tinfo.o)
                0x08003db4                typeinfo name for std::type_info
 *fill*         0x08003dc1        0x3 
 .rodata._ZTISt9type_info
                0x08003dc4        0x8 /usr/bin/../lib/gcc/arm-none-eabi/12.2.1/../../../../arm-none-eabi/lib/thumb/v7e-m+fp/hard/libstdc++_nano.a(tinfo.o)
                0x08003dc4                typeinfo for std::type_info
 .rodata._ZTVSt9type_info
                0x08003dcc       0x20 /usr/bin/../lib/gcc/arm-none-eabi/12.2.1/../../../../arm-none-eabi/lib/thumb/v7e-m+fp/hard/libstdc++_nano.a(tinfo.o)
                0x08003dcc                vtable for std::type_info
 .rodata._ZTSN10__cxxabiv117__class_type_infoE
                0x08003dec       0x22 /usr/bin/../lib/gcc/arm-none-eabi/12.2.1/../../../../arm-none-eabi/lib/thumb/v7e-m+fp/hard/libstdc++_nano.a(class_type_info.o)
                0x08003dec                typeinfo name for __cxxabiv1::__class_type_info
 *fill*         0x08003e0e        0x2 
 .rodata._ZTIN10__cxxabiv117__class_type_infoE
                0x08003e10        0xc /usr/bin/../lib/gcc/arm-none-eabi/12.2.1/../../../../arm-none-eabi/lib/thumb/v7e-m+fp/hard/libstdc++_nano.a(class_type_info.o)
                0x08003e10                typeinfo for __cxxabiv1::__class_type_info
 .rodata._ZTVN10__cxxabiv117__class_type_infoE
                0x08003e1c       0x2c /usr/bin/../lib/gcc/arm-none-eabi/12.2.1/../../../../arm-none-eabi/lib/thumb/v7e-m+fp/hard/libstdc++_nano.a(class_type_info.o)
                0x08003e1c                vtable for __cxxabiv1::__class_type_info
 .rodata._ZSt7nothrow
                0x08003e48        0x1 /usr/bin/../lib/gcc/arm-none-eabi/12.2.1/../../../../arm-none-eabi/lib/thumb/v7e-m+fp/hard/libstdc++_nano.a(new_handler.o)
                0x08003e48                std::nothrow
 *fill*         0x08003e49        0x3 
 .rodata.__cxa_atexit_dummy
                0x08003e4c        0x4 /usr/bin/../lib/gcc/arm-none-eabi/12.2.1/../../../../arm-none-eabi/lib/thumb/v7e-m+fp/hard/libc_nano.a(libc_a-cxa_atexit.o)
                0x08003e4c                __cxa_atexit_dummy
 .rodata.__on_exit_args
                0x08003e50        0x4 /usr/bin/../lib/gcc/arm-none-eabi/12.2.1/../../../../arm-none-eabi/lib/thumb/v7e-m+fp/hard/libc_nano.a(libc_a-on_exit_args.o)
                0x08003e50                __on_exit_args
 .rodata.all_implied_fbits
                0x08003e54       0x24 /usr/bin/../lib/gcc/arm-none-eabi/12.2.1/thumb/v7e-m+fp/hard/crtend.o
                0x08003e78                        . = ALIGN (0x4)

.ARM.extab      0x08003e78      0x1d4
                0x08003e78                        . = ALIGN (0x4)
 *(.ARM.extab* .gnu.linkonce.armextab.*)
 .ARM.extab     0x08003e78        0x0 /usr/bin/../lib/gcc/arm-none-eabi/12.2.1/../../../../arm-none-eabi/lib/thumb/v7e-m+fp/hard/crt0.o
 .ARM.extab.text._ZN5IOPin10configPortERK8GpioPortP14PeripheralBaseI16IOPinStatusCodesLj1E9ContainerI15IOPinPropertiesJS0_7GpioPin8GpioMode9GpioStateEEJEE
                0x08003e78        0x0 Debug/Drivers/GPIO/IOPin.o
 .ARM.extab.text._ZN5IOPin9configPinERK7GpioPinP14PeripheralBaseI16IOPinStatusCodesLj1E9ContainerI15IOPinPropertiesJ8GpioPortS0_8GpioMode9GpioStateEEJEE
                0x08003e78        0x0 Debug/Drivers/GPIO/IOPin.o
 .ARM.extab.text._ZN5IOPin10configModeERK8GpioModeP14PeripheralBaseI16IOPinStatusCodesLj1E9ContainerI15IOPinPropertiesJ8GpioPort7GpioPinS0_9GpioStateEEJEE
                0x08003e78        0x0 Debug/Drivers/GPIO/IOPin.o
 .ARM.extab.text._ZN5IOPin11configStateERK9GpioStateP14PeripheralBaseI16IOPinStatusCodesLj1E9ContainerI15IOPinPropertiesJ8GpioPort7GpioPin8GpioModeS0_EEJEE
                0x08003e78        0x0 Debug/Drivers/GPIO/IOPin.o
 .ARM.extab.text._ZN5IOPinC2Ev
                0x08003e78       0x1c Debug/Drivers/GPIO/IOPin.o
 .ARM.extab.text._ZN5IOPinC2ERKS_
                0x08003e94        0xc Debug/Drivers/GPIO/IOPin.o
 .ARM.extab.text._ZN5IOPinC2ERKS_RK7GpioPin
                0x08003ea0        0xc Debug/Drivers/GPIO/IOPin.o
 .ARM.extab.text._ZN5IOPinC2ERKS_RK8GpioPort
                0x08003eac        0xc Debug/Drivers/GPIO/IOPin.o
 .ARM.extab.text._ZN5IOPinC2EOS_
                0x08003eb8        0xc Debug/Drivers/GPIO/IOPin.o
 .ARM.extab.text._ZN5IOPinaSERKS_
                0x08003ec4        0x0 Debug/Drivers/GPIO/IOPin.o
 .ARM.extab.text._ZN5IOPinaSEOS_
                0x08003ec4        0x0 Debug/Drivers/GPIO/IOPin.o
 .ARM.extab.text._ZN5IOPinD2Ev
                0x08003ec4        0x0 Debug/Drivers/GPIO/IOPin.o
 .ARM.extab.text._ZN5IOPinD0Ev
                0x08003ec4        0x0 Debug/Drivers/GPIO/IOPin.o
 .ARM.extab.text._ZN5IOPin7setPortERK8GpioPort
                0x08003ec4        0x0 Debug/Drivers/GPIO/IOPin.o
 .ARM.extab.text._ZN5IOPin6setPinERK7GpioPin
                0x08003ec4        0x0 Debug/Drivers/GPIO/IOPin.o
 .ARM.extab.text._ZN5IOPin7setModeERK8GpioMode
                0x08003ec4        0x0 Debug/Drivers/GPIO/IOPin.o
 .ARM.extab.text._ZN5IOPin7setPUPDERK8GpioPUPD
                0x08003ec4        0x0 Debug/Drivers/GPIO/IOPin.o
 .ARM.extab.text._ZN5IOPin13setOutputTypeERK14GpioOutputType
                0x08003ec4        0x0 Debug/Drivers/GPIO/IOPin.o
 .ARM.extab.text._ZN5IOPin14setOutputSpeedERK15GpioOutputSpeed
                0x08003ec4        0x0 Debug/Drivers/GPIO/IOPin.o
 .ARM.extab.text._ZN5IOPin12setInputModeEv
                0x08003ec4        0x0 Debug/Drivers/GPIO/IOPin.o
 .ARM.extab.text._ZN5IOPin13setOutputModeEv
                0x08003ec4        0x0 Debug/Drivers/GPIO/IOPin.o
 .ARM.extab.text._ZN5IOPin9setPullupEv
                0x08003ec4        0x0 Debug/Drivers/GPIO/IOPin.o
 .ARM.extab.text._ZN5IOPin11setPulldownEv
                0x08003ec4        0x0 Debug/Drivers/GPIO/IOPin.o
 .ARM.extab.text._ZN5IOPin21setPullPushOutputTypeEv
                0x08003ec4        0x0 Debug/Drivers/GPIO/IOPin.o
 .ARM.extab.text._ZN5IOPin22setOpenDrainOutputTypeEv
                0x08003ec4        0x0 Debug/Drivers/GPIO/IOPin.o
 .ARM.extab.text._ZN5IOPin4readEv
                0x08003ec4        0x0 Debug/Drivers/GPIO/IOPin.o
 .ARM.extab.text._ZN5IOPin5writeERKb
                0x08003ec4        0x0 Debug/Drivers/GPIO/IOPin.o
 .ARM.extab.text._ZN5IOPin6toggleEv
                0x08003ec4        0x0 Debug/Drivers/GPIO/IOPin.o
 .ARM.extab.text._ZN5IOPin5resetERKb
                0x08003ec4        0x0 Debug/Drivers/GPIO/IOPin.o
 .ARM.extab.text._ZN5IOPin7isReadyEv
                0x08003ec4        0x0 Debug/Drivers/GPIO/IOPin.o
 .ARM.extab.text._ZN5IOPin11isAllocatedERK8GpioPortRK7GpioPin
                0x08003ec4        0x0 Debug/Drivers/GPIO/IOPin.o
 .ARM.extab.text._ZN5IOPin11isAllocatedEPK12GPIO_TypeDefRK7GpioPin
                0x08003ec4        0x0 Debug/Drivers/GPIO/IOPin.o
 .ARM.extab.text._ZN5IOPin8isPinSetEv
                0x08003ec4        0x0 Debug/Drivers/GPIO/IOPin.o
 .ARM.extab.text._ZN5IOPin9isPortSetEv
                0x08003ec4        0x0 Debug/Drivers/GPIO/IOPin.o
 .ARM.extab.text._ZN5IOPin14isReallocatingERK7GpioPin
                0x08003ec4        0x0 Debug/Drivers/GPIO/IOPin.o
 .ARM.extab.text._ZN5IOPin14isReallocatingERK8GpioPort
                0x08003ec4        0x0 Debug/Drivers/GPIO/IOPin.o
 .ARM.extab.text._ZN5IOPin18getGPIOPtrInstanceERK8GpioPort
                0x08003ec4        0x0 Debug/Drivers/GPIO/IOPin.o
 .ARM.extab.text._ZN5IOPin21getPortFromGPIOStructEPK12GPIO_TypeDef
                0x08003ec4        0x0 Debug/Drivers/GPIO/IOPin.o
 .ARM.extab.text._ZN5IOPin11allocatePinEv
                0x08003ec4        0x0 Debug/Drivers/GPIO/IOPin.o
 .ARM.extab.text._ZN5IOPin13deAllocatePinEv
                0x08003ec4        0x0 Debug/Drivers/GPIO/IOPin.o
 .ARM.extab.text._ZN5IOPin4initEv
                0x08003ec4        0x0 Debug/Drivers/GPIO/IOPin.o
 .ARM.extab.text._ZN5IOPin14setInstancePtrEv
                0x08003ec4        0x0 Debug/Drivers/GPIO/IOPin.o
 .ARM.extab.text._ZN5IOPin18setDefaultSettingsEv
                0x08003ec4        0x0 Debug/Drivers/GPIO/IOPin.o
 .ARM.extab.text._ZN5IOPin7preInitEv
                0x08003ec4        0x0 Debug/Drivers/GPIO/IOPin.o
 .ARM.extab.text._ZN9ContainerI15IOPinPropertiesJPF16IOPinStatusCodesRK8GpioPortP14PeripheralBaseIS1_Lj1ES_IS0_JS2_7GpioPin8GpioMode9GpioStateEEJEEEPFS1_RKS6_SB_EPFS1_RKS7_SB_EPFS1_RKS8_SB_EEEC2EOSD_OSH_OSL_OSP_
                0x08003ec4        0x0 Debug/Drivers/GPIO/IOPin.o
 .ARM.extab.text._ZN9ContainerI15IOPinPropertiesJPF16IOPinStatusCodesRK8GpioPortP14PeripheralBaseIS1_Lj1ES_IS0_JS2_7GpioPin8GpioMode9GpioStateEEJEEEPFS1_RKS6_SB_EPFS1_RKS7_SB_EPFS1_RKS8_SB_EEED2Ev
                0x08003ec4        0x0 Debug/Drivers/GPIO/IOPin.o
 .ARM.extab.text._ZN9ContainerI15IOPinPropertiesJPF16IOPinStatusCodesRK8GpioPortP14PeripheralBaseIS1_Lj1ES_IS0_JS2_7GpioPin8GpioMode9GpioStateEEJEEEPFS1_RKS6_SB_EPFS1_RKS7_SB_EPFS1_RKS8_SB_EEED0Ev
                0x08003ec4        0x0 Debug/Drivers/GPIO/IOPin.o
 .ARM.extab.text._ZN19STM32PeripheralBaseI12GPIO_TypeDef14PeripheralBaseI16IOPinStatusCodesLj1E9ContainerI15IOPinPropertiesJ8GpioPort7GpioPin8GpioMode9GpioStateEEJEEEC2IJPFS2_RKS5_PSA_EPFS2_RKS6_SF_EPFS2_RKS7_SF_EPFS2_RKS8_SF_EEEERKS3_IS4_JDpT_EE
                0x08003ec4        0xc Debug/Drivers/GPIO/IOPin.o
 .ARM.extab.text._ZN19STM32PeripheralBaseI12GPIO_TypeDef14PeripheralBaseI16IOPinStatusCodesLj1E9ContainerI15IOPinPropertiesJ8GpioPort7GpioPin8GpioMode9GpioStateEEJEEED2Ev
                0x08003ed0        0x0 Debug/Drivers/GPIO/IOPin.o
 .ARM.extab.text._ZN19STM32PeripheralBaseI12GPIO_TypeDef14PeripheralBaseI16IOPinStatusCodesLj1E9ContainerI15IOPinPropertiesJ8GpioPort7GpioPin8GpioMode9GpioStateEEJEEED0Ev
                0x08003ed0        0x0 Debug/Drivers/GPIO/IOPin.o
 .ARM.extab.text._ZSt7forwardIPF16IOPinStatusCodesRK8GpioPortP14PeripheralBaseIS0_Lj1E9ContainerI15IOPinPropertiesJS1_7GpioPin8GpioMode9GpioStateEEJEEEEOT_RNSt16remove_referenceISF_E4typeE
                0x08003ed0        0x0 Debug/Drivers/GPIO/IOPin.o
 .ARM.extab.text._ZSt7forwardIPF16IOPinStatusCodesRK7GpioPinP14PeripheralBaseIS0_Lj1E9ContainerI15IOPinPropertiesJ8GpioPortS1_8GpioMode9GpioStateEEJEEEEOT_RNSt16remove_referenceISF_E4typeE
                0x08003ed0        0x0 Debug/Drivers/GPIO/IOPin.o
 .ARM.extab.text._ZSt7forwardIPF16IOPinStatusCodesRK8GpioModeP14PeripheralBaseIS0_Lj1E9ContainerI15IOPinPropertiesJ8GpioPort7GpioPinS1_9GpioStateEEJEEEEOT_RNSt16remove_referenceISF_E4typeE
                0x08003ed0        0x0 Debug/Drivers/GPIO/IOPin.o
 .ARM.extab.text._ZSt7forwardIPF16IOPinStatusCodesRK9GpioStateP14PeripheralBaseIS0_Lj1E9ContainerI15IOPinPropertiesJ8GpioPort7GpioPin8GpioModeS1_EEJEEEEOT_RNSt16remove_referenceISF_E4typeE
                0x08003ed0        0x0 Debug/Drivers/GPIO/IOPin.o
 .ARM.extab.text._ZN13ContainerBaseIJPF16IOPinStatusCodesRK8GpioPortP14PeripheralBaseIS0_Lj1E9ContainerI15IOPinPropertiesJS1_7GpioPin8GpioMode9GpioStateEEJEEEPFS0_RKS7_SC_EPFS0_RKS8_SC_EPFS0_RKS9_SC_EEEC2EOSE_OSI_OSM_OSQ_
                0x08003ed0        0x0 Debug/Drivers/GPIO/IOPin.o
 .ARM.extab.text._ZN13ContainerBaseIJPF16IOPinStatusCodesRK8GpioPortP14PeripheralBaseIS0_Lj1E9ContainerI15IOPinPropertiesJS1_7GpioPin8GpioMode9GpioStateEEJEEEPFS0_RKS7_SC_EPFS0_RKS8_SC_EPFS0_RKS9_SC_EEED2Ev
                0x08003ed0        0x0 Debug/Drivers/GPIO/IOPin.o
 .ARM.extab.text._ZN13ContainerBaseIJPF16IOPinStatusCodesRK8GpioPortP14PeripheralBaseIS0_Lj1E9ContainerI15IOPinPropertiesJS1_7GpioPin8GpioMode9GpioStateEEJEEEPFS0_RKS7_SC_EPFS0_RKS8_SC_EPFS0_RKS9_SC_EEED0Ev
                0x08003ed0        0x0 Debug/Drivers/GPIO/IOPin.o
 .ARM.extab.text._ZN14PeripheralBaseI16IOPinStatusCodesLj1E9ContainerI15IOPinPropertiesJ8GpioPort7GpioPin8GpioMode9GpioStateEEJEEC2IJPFS0_RKS3_PS8_EPFS0_RKS4_SC_EPFS0_RKS5_SC_EPFS0_RKS6_SC_EEEERKS1_IS2_JDpT_EE
                0x08003ed0       0x1c Debug/Drivers/GPIO/IOPin.o
 .ARM.extab.text._ZN14PeripheralBaseI16IOPinStatusCodesLj1E9ContainerI15IOPinPropertiesJ8GpioPort7GpioPin8GpioMode9GpioStateEEJEED2Ev
                0x08003eec        0x0 Debug/Drivers/GPIO/IOPin.o
 .ARM.extab.text._ZN14PeripheralBaseI16IOPinStatusCodesLj1E9ContainerI15IOPinPropertiesJ8GpioPort7GpioPin8GpioMode9GpioStateEEJEED0Ev
                0x08003eec        0x0 Debug/Drivers/GPIO/IOPin.o
 .ARM.extab.text._ZNSt5tupleIJPF16IOPinStatusCodesRK8GpioPortP14PeripheralBaseIS0_Lj1E9ContainerI15IOPinPropertiesJS1_7GpioPin8GpioMode9GpioStateEEJEEEPFS0_RKS7_SC_EPFS0_RKS8_SC_EPFS0_RKS9_SC_EEEC2IJSE_SI_SM_SQ_ELb1ELb1EEEDpOT_
                0x08003eec        0xc Debug/Drivers/GPIO/IOPin.o
 .ARM.extab.text._ZN9ContainerI15IOPinPropertiesJ8GpioPort7GpioPin8GpioMode9GpioStateEEC2Ev
                0x08003ef8        0xc Debug/Drivers/GPIO/IOPin.o
 .ARM.extab.text._ZN14PeripheralBaseI16IOPinStatusCodesLj1E9ContainerI15IOPinPropertiesJ8GpioPort7GpioPin8GpioMode9GpioStateEEJEE15setFunctionsPtrIJPFS0_RKS3_PS8_EPFS0_RKS4_SC_EPFS0_RKS5_SC_EPFS0_RKS6_SC_EEEEvRKS1_IS2_JDpT_EE
                0x08003f04        0x0 Debug/Drivers/GPIO/IOPin.o
 .ARM.extab.text._ZN9ContainerI15IOPinPropertiesJ8GpioPort7GpioPin8GpioMode9GpioStateEED2Ev
                0x08003f04        0x0 Debug/Drivers/GPIO/IOPin.o
 .ARM.extab.text._ZN9ContainerI15IOPinPropertiesJ8GpioPort7GpioPin8GpioMode9GpioStateEED0Ev
                0x08003f04        0x0 Debug/Drivers/GPIO/IOPin.o
 .ARM.extab.text._ZNSt11_Tuple_implILj0EJPF16IOPinStatusCodesRK8GpioPortP14PeripheralBaseIS0_Lj1E9ContainerI15IOPinPropertiesJS1_7GpioPin8GpioMode9GpioStateEEJEEEPFS0_RKS7_SC_EPFS0_RKS8_SC_EPFS0_RKS9_SC_EEEC2ISE_JSI_SM_SQ_EvEEOT_DpOT0_
                0x08003f04        0x0 Debug/Drivers/GPIO/IOPin.o
 .ARM.extab.text._ZN13ContainerBaseIJ8GpioPort7GpioPin8GpioMode9GpioStateEEC2Ev
                0x08003f04        0x0 Debug/Drivers/GPIO/IOPin.o
 .ARM.extab.text._ZN13ContainerBaseIJ8GpioPort7GpioPin8GpioMode9GpioStateEED2Ev
                0x08003f04        0x0 Debug/Drivers/GPIO/IOPin.o
 .ARM.extab.text._ZN13ContainerBaseIJ8GpioPort7GpioPin8GpioMode9GpioStateEED0Ev
                0x08003f04        0x0 Debug/Drivers/GPIO/IOPin.o
 .ARM.extab.text._ZN9ContainerI15IOPinPropertiesJPF16IOPinStatusCodesRK8GpioPortP14PeripheralBaseIS1_Lj1ES_IS0_JS2_7GpioPin8GpioMode9GpioStateEEJEEEPFS1_RKS6_SB_EPFS1_RKS7_SB_EPFS1_RKS8_SB_EEEC2Ev
                0x08003f04        0xc Debug/Drivers/GPIO/IOPin.o
 .ARM.extab.text._ZN9ContainerI15IOPinPropertiesJPF16IOPinStatusCodesRK8GpioPortP14PeripheralBaseIS1_Lj1ES_IS0_JS2_7GpioPin8GpioMode9GpioStateEEJEEEPFS1_RKS6_SB_EPFS1_RKS7_SB_EPFS1_RKS8_SB_EEEaSERKSQ_
                0x08003f10        0x0 Debug/Drivers/GPIO/IOPin.o
 .ARM.extab.text._ZNSt11_Tuple_implILj1EJPF16IOPinStatusCodesRK7GpioPinP14PeripheralBaseIS0_Lj1E9ContainerI15IOPinPropertiesJ8GpioPortS1_8GpioMode9GpioStateEEJEEEPFS0_RKS8_SC_EPFS0_RKS9_SC_EEEC2ISE_JSI_SM_EvEEOT_DpOT0_
                0x08003f10        0xc Debug/Drivers/GPIO/IOPin.o
 .ARM.extab.text._ZNSt10_Head_baseILj0EPF16IOPinStatusCodesRK8GpioPortP14PeripheralBaseIS0_Lj1E9ContainerI15IOPinPropertiesJS1_7GpioPin8GpioMode9GpioStateEEJEEELb0EEC2ISE_EEOT_
                0x08003f1c        0x0 Debug/Drivers/GPIO/IOPin.o
 .ARM.extab.text._ZNSt5tupleIJ8GpioPort7GpioPin8GpioMode9GpioStateEEC2IvLb1EEEv
                0x08003f1c       0x10 Debug/Drivers/GPIO/IOPin.o
 .ARM.extab.text._ZN13ContainerBaseIJPF16IOPinStatusCodesRK8GpioPortP14PeripheralBaseIS0_Lj1E9ContainerI15IOPinPropertiesJS1_7GpioPin8GpioMode9GpioStateEEJEEEPFS0_RKS7_SC_EPFS0_RKS8_SC_EPFS0_RKS9_SC_EEEC2Ev
                0x08003f2c        0x0 Debug/Drivers/GPIO/IOPin.o
 .ARM.extab.text._ZNSt5tupleIJPF16IOPinStatusCodesRK8GpioPortP14PeripheralBaseIS0_Lj1E9ContainerI15IOPinPropertiesJS1_7GpioPin8GpioMode9GpioStateEEJEEEPFS0_RKS7_SC_EPFS0_RKS8_SC_EPFS0_RKS9_SC_EEEaSERKSR_
                0x08003f2c       0x10 Debug/Drivers/GPIO/IOPin.o
 .ARM.extab.text._ZNSt11_Tuple_implILj2EJPF16IOPinStatusCodesRK8GpioModeP14PeripheralBaseIS0_Lj1E9ContainerI15IOPinPropertiesJ8GpioPort7GpioPinS1_9GpioStateEEJEEEPFS0_RKS9_SC_EEEC2ISE_JSI_EvEEOT_DpOT0_
                0x08003f3c        0xc Debug/Drivers/GPIO/IOPin.o
 .ARM.extab.text._ZNSt10_Head_baseILj1EPF16IOPinStatusCodesRK7GpioPinP14PeripheralBaseIS0_Lj1E9ContainerI15IOPinPropertiesJ8GpioPortS1_8GpioMode9GpioStateEEJEEELb0EEC2ISE_EEOT_
                0x08003f48        0x0 Debug/Drivers/GPIO/IOPin.o
 .ARM.extab.text._ZNSt11_Tuple_implILj0EJ8GpioPort7GpioPin8GpioMode9GpioStateEEC2Ev
                0x08003f48        0xc Debug/Drivers/GPIO/IOPin.o
 .ARM.extab.text._ZNSt5tupleIJPF16IOPinStatusCodesRK8GpioPortP14PeripheralBaseIS0_Lj1E9ContainerI15IOPinPropertiesJS1_7GpioPin8GpioMode9GpioStateEEJEEEPFS0_RKS7_SC_EPFS0_RKS8_SC_EPFS0_RKS9_SC_EEEC2IvLb1EEEv
                0x08003f54       0x10 Debug/Drivers/GPIO/IOPin.o
 .ARM.extab.text._ZNSt11_Tuple_implILj0EJPF16IOPinStatusCodesRK8GpioPortP14PeripheralBaseIS0_Lj1E9ContainerI15IOPinPropertiesJS1_7GpioPin8GpioMode9GpioStateEEJEEEPFS0_RKS7_SC_EPFS0_RKS8_SC_EPFS0_RKS9_SC_EEE9_M_assignIJSE_SI_SM_SQ_EEEvRKS_ILj0EJDpT_EE
                0x08003f64        0xc Debug/Drivers/GPIO/IOPin.o
 .ARM.extab.text._ZNSt11_Tuple_implILj3EJPF16IOPinStatusCodesRK9GpioStateP14PeripheralBaseIS0_Lj1E9ContainerI15IOPinPropertiesJ8GpioPort7GpioPin8GpioModeS1_EEJEEEEEC2ISE_EEOT_
                0x08003f70        0x0 Debug/Drivers/GPIO/IOPin.o
 .ARM.extab.text._ZNSt10_Head_baseILj2EPF16IOPinStatusCodesRK8GpioModeP14PeripheralBaseIS0_Lj1E9ContainerI15IOPinPropertiesJ8GpioPort7GpioPinS1_9GpioStateEEJEEELb0EEC2ISE_EEOT_
                0x08003f70        0x0 Debug/Drivers/GPIO/IOPin.o
 .ARM.extab.text._ZNSt11_Tuple_implILj1EJ7GpioPin8GpioMode9GpioStateEEC2Ev
                0x08003f70        0xc Debug/Drivers/GPIO/IOPin.o
 .ARM.extab.text._ZNSt10_Head_baseILj0E8GpioPortLb0EEC2Ev
                0x08003f7c        0x0 Debug/Drivers/GPIO/IOPin.o
 .ARM.extab.text._ZNSt11_Tuple_implILj0EJPF16IOPinStatusCodesRK8GpioPortP14PeripheralBaseIS0_Lj1E9ContainerI15IOPinPropertiesJS1_7GpioPin8GpioMode9GpioStateEEJEEEPFS0_RKS7_SC_EPFS0_RKS8_SC_EPFS0_RKS9_SC_EEEC2Ev
                0x08003f7c        0xc Debug/Drivers/GPIO/IOPin.o
 .ARM.extab.text._ZNSt11_Tuple_implILj0EJPF16IOPinStatusCodesRK8GpioPortP14PeripheralBaseIS0_Lj1E9ContainerI15IOPinPropertiesJS1_7GpioPin8GpioMode9GpioStateEEJEEEPFS0_RKS7_SC_EPFS0_RKS8_SC_EPFS0_RKS9_SC_EEE7_M_headERSR_
                0x08003f88        0x0 Debug/Drivers/GPIO/IOPin.o
 .ARM.extab.text._ZNSt11_Tuple_implILj0EJPF16IOPinStatusCodesRK8GpioPortP14PeripheralBaseIS0_Lj1E9ContainerI15IOPinPropertiesJS1_7GpioPin8GpioMode9GpioStateEEJEEEPFS0_RKS7_SC_EPFS0_RKS8_SC_EPFS0_RKS9_SC_EEE7_M_headERKSR_
                0x08003f88        0x0 Debug/Drivers/GPIO/IOPin.o
 .ARM.extab.text._ZNSt11_Tuple_implILj0EJPF16IOPinStatusCodesRK8GpioPortP14PeripheralBaseIS0_Lj1E9ContainerI15IOPinPropertiesJS1_7GpioPin8GpioMode9GpioStateEEJEEEPFS0_RKS7_SC_EPFS0_RKS8_SC_EPFS0_RKS9_SC_EEE7_M_tailERSR_
                0x08003f88        0x0 Debug/Drivers/GPIO/IOPin.o
 .ARM.extab.text._ZNSt11_Tuple_implILj0EJPF16IOPinStatusCodesRK8GpioPortP14PeripheralBaseIS0_Lj1E9ContainerI15IOPinPropertiesJS1_7GpioPin8GpioMode9GpioStateEEJEEEPFS0_RKS7_SC_EPFS0_RKS8_SC_EPFS0_RKS9_SC_EEE7_M_tailERKSR_
                0x08003f88        0x0 Debug/Drivers/GPIO/IOPin.o
 .ARM.extab.text._ZNSt11_Tuple_implILj1EJPF16IOPinStatusCodesRK7GpioPinP14PeripheralBaseIS0_Lj1E9ContainerI15IOPinPropertiesJ8GpioPortS1_8GpioMode9GpioStateEEJEEEPFS0_RKS8_SC_EPFS0_RKS9_SC_EEE9_M_assignIJSE_SI_SM_EEEvRKS_ILj1EJDpT_EE
                0x08003f88        0xc Debug/Drivers/GPIO/IOPin.o
 .ARM.extab.text._ZNSt10_Head_baseILj3EPF16IOPinStatusCodesRK9GpioStateP14PeripheralBaseIS0_Lj1E9ContainerI15IOPinPropertiesJ8GpioPort7GpioPin8GpioModeS1_EEJEEELb0EEC2ISE_EEOT_
                0x08003f94        0x0 Debug/Drivers/GPIO/IOPin.o
 .ARM.extab.text._ZNSt11_Tuple_implILj2EJ8GpioMode9GpioStateEEC2Ev
                0x08003f94        0xc Debug/Drivers/GPIO/IOPin.o
 .ARM.extab.text._ZNSt10_Head_baseILj1E7GpioPinLb0EEC2Ev
                0x08003fa0        0x0 Debug/Drivers/GPIO/IOPin.o
 .ARM.extab.text._ZNSt11_Tuple_implILj1EJPF16IOPinStatusCodesRK7GpioPinP14PeripheralBaseIS0_Lj1E9ContainerI15IOPinPropertiesJ8GpioPortS1_8GpioMode9GpioStateEEJEEEPFS0_RKS8_SC_EPFS0_RKS9_SC_EEEC2Ev
                0x08003fa0        0xc Debug/Drivers/GPIO/IOPin.o
 .ARM.extab.text._ZNSt10_Head_baseILj0EPF16IOPinStatusCodesRK8GpioPortP14PeripheralBaseIS0_Lj1E9ContainerI15IOPinPropertiesJS1_7GpioPin8GpioMode9GpioStateEEJEEELb0EEC2Ev
                0x08003fac        0x0 Debug/Drivers/GPIO/IOPin.o
 .ARM.extab.text._ZNSt10_Head_baseILj0EPF16IOPinStatusCodesRK8GpioPortP14PeripheralBaseIS0_Lj1E9ContainerI15IOPinPropertiesJS1_7GpioPin8GpioMode9GpioStateEEJEEELb0EE7_M_headERSF_
                0x08003fac        0x0 Debug/Drivers/GPIO/IOPin.o
 .ARM.extab.text._ZNSt10_Head_baseILj0EPF16IOPinStatusCodesRK8GpioPortP14PeripheralBaseIS0_Lj1E9ContainerI15IOPinPropertiesJS1_7GpioPin8GpioMode9GpioStateEEJEEELb0EE7_M_headERKSF_
                0x08003fac        0x0 Debug/Drivers/GPIO/IOPin.o
 .ARM.extab.text._ZNSt11_Tuple_implILj1EJPF16IOPinStatusCodesRK7GpioPinP14PeripheralBaseIS0_Lj1E9ContainerI15IOPinPropertiesJ8GpioPortS1_8GpioMode9GpioStateEEJEEEPFS0_RKS8_SC_EPFS0_RKS9_SC_EEE7_M_headERSN_
                0x08003fac        0x0 Debug/Drivers/GPIO/IOPin.o
 .ARM.extab.text._ZNSt11_Tuple_implILj1EJPF16IOPinStatusCodesRK7GpioPinP14PeripheralBaseIS0_Lj1E9ContainerI15IOPinPropertiesJ8GpioPortS1_8GpioMode9GpioStateEEJEEEPFS0_RKS8_SC_EPFS0_RKS9_SC_EEE7_M_headERKSN_
                0x08003fac        0x0 Debug/Drivers/GPIO/IOPin.o
 .ARM.extab.text._ZNSt11_Tuple_implILj1EJPF16IOPinStatusCodesRK7GpioPinP14PeripheralBaseIS0_Lj1E9ContainerI15IOPinPropertiesJ8GpioPortS1_8GpioMode9GpioStateEEJEEEPFS0_RKS8_SC_EPFS0_RKS9_SC_EEE7_M_tailERSN_
                0x08003fac        0x0 Debug/Drivers/GPIO/IOPin.o
 .ARM.extab.text._ZNSt11_Tuple_implILj1EJPF16IOPinStatusCodesRK7GpioPinP14PeripheralBaseIS0_Lj1E9ContainerI15IOPinPropertiesJ8GpioPortS1_8GpioMode9GpioStateEEJEEEPFS0_RKS8_SC_EPFS0_RKS9_SC_EEE7_M_tailERKSN_
                0x08003fac        0x0 Debug/Drivers/GPIO/IOPin.o
 .ARM.extab.text._ZNSt11_Tuple_implILj2EJPF16IOPinStatusCodesRK8GpioModeP14PeripheralBaseIS0_Lj1E9ContainerI15IOPinPropertiesJ8GpioPort7GpioPinS1_9GpioStateEEJEEEPFS0_RKS9_SC_EEE9_M_assignIJSE_SI_EEEvRKS_ILj2EJDpT_EE
                0x08003fac        0x0 Debug/Drivers/GPIO/IOPin.o
 .ARM.extab.text._ZNSt11_Tuple_implILj3EJ9GpioStateEEC2Ev
                0x08003fac        0x0 Debug/Drivers/GPIO/IOPin.o
 .ARM.extab.text._ZNSt10_Head_baseILj2E8GpioModeLb0EEC2Ev
                0x08003fac        0x0 Debug/Drivers/GPIO/IOPin.o
 .ARM.extab.text._ZNSt11_Tuple_implILj2EJPF16IOPinStatusCodesRK8GpioModeP14PeripheralBaseIS0_Lj1E9ContainerI15IOPinPropertiesJ8GpioPort7GpioPinS1_9GpioStateEEJEEEPFS0_RKS9_SC_EEEC2Ev
                0x08003fac        0xc Debug/Drivers/GPIO/IOPin.o
 .ARM.extab.text._ZNSt10_Head_baseILj1EPF16IOPinStatusCodesRK7GpioPinP14PeripheralBaseIS0_Lj1E9ContainerI15IOPinPropertiesJ8GpioPortS1_8GpioMode9GpioStateEEJEEELb0EEC2Ev
                0x08003fb8        0x0 Debug/Drivers/GPIO/IOPin.o
 .ARM.extab.text._ZNSt10_Head_baseILj1EPF16IOPinStatusCodesRK7GpioPinP14PeripheralBaseIS0_Lj1E9ContainerI15IOPinPropertiesJ8GpioPortS1_8GpioMode9GpioStateEEJEEELb0EE7_M_headERSF_
                0x08003fb8        0x0 Debug/Drivers/GPIO/IOPin.o
 .ARM.extab.text._ZNSt10_Head_baseILj1EPF16IOPinStatusCodesRK7GpioPinP14PeripheralBaseIS0_Lj1E9ContainerI15IOPinPropertiesJ8GpioPortS1_8GpioMode9GpioStateEEJEEELb0EE7_M_headERKSF_
                0x08003fb8        0x0 Debug/Drivers/GPIO/IOPin.o
 .ARM.extab.text._ZNSt11_Tuple_implILj2EJPF16IOPinStatusCodesRK8GpioModeP14PeripheralBaseIS0_Lj1E9ContainerI15IOPinPropertiesJ8GpioPort7GpioPinS1_9GpioStateEEJEEEPFS0_RKS9_SC_EEE7_M_headERSJ_
                0x08003fb8        0x0 Debug/Drivers/GPIO/IOPin.o
 .ARM.extab.text._ZNSt11_Tuple_implILj2EJPF16IOPinStatusCodesRK8GpioModeP14PeripheralBaseIS0_Lj1E9ContainerI15IOPinPropertiesJ8GpioPort7GpioPinS1_9GpioStateEEJEEEPFS0_RKS9_SC_EEE7_M_headERKSJ_
                0x08003fb8        0x0 Debug/Drivers/GPIO/IOPin.o
 .ARM.extab.text._ZNSt11_Tuple_implILj2EJPF16IOPinStatusCodesRK8GpioModeP14PeripheralBaseIS0_Lj1E9ContainerI15IOPinPropertiesJ8GpioPort7GpioPinS1_9GpioStateEEJEEEPFS0_RKS9_SC_EEE7_M_tailERSJ_
                0x08003fb8        0x0 Debug/Drivers/GPIO/IOPin.o
 .ARM.extab.text._ZNSt11_Tuple_implILj2EJPF16IOPinStatusCodesRK8GpioModeP14PeripheralBaseIS0_Lj1E9ContainerI15IOPinPropertiesJ8GpioPort7GpioPinS1_9GpioStateEEJEEEPFS0_RKS9_SC_EEE7_M_tailERKSJ_
                0x08003fb8        0x0 Debug/Drivers/GPIO/IOPin.o
 .ARM.extab.text._ZNSt11_Tuple_implILj3EJPF16IOPinStatusCodesRK9GpioStateP14PeripheralBaseIS0_Lj1E9ContainerI15IOPinPropertiesJ8GpioPort7GpioPin8GpioModeS1_EEJEEEEE9_M_assignISE_EEvRKS_ILj3EJT_EE
                0x08003fb8        0x0 Debug/Drivers/GPIO/IOPin.o
 .ARM.extab.text._ZNSt10_Head_baseILj3E9GpioStateLb0EEC2Ev
                0x08003fb8        0x0 Debug/Drivers/GPIO/IOPin.o
 .ARM.extab.text._ZNSt11_Tuple_implILj3EJPF16IOPinStatusCodesRK9GpioStateP14PeripheralBaseIS0_Lj1E9ContainerI15IOPinPropertiesJ8GpioPort7GpioPin8GpioModeS1_EEJEEEEEC2Ev
                0x08003fb8        0x0 Debug/Drivers/GPIO/IOPin.o
 .ARM.extab.text._ZNSt10_Head_baseILj2EPF16IOPinStatusCodesRK8GpioModeP14PeripheralBaseIS0_Lj1E9ContainerI15IOPinPropertiesJ8GpioPort7GpioPinS1_9GpioStateEEJEEELb0EEC2Ev
                0x08003fb8        0x0 Debug/Drivers/GPIO/IOPin.o
 .ARM.extab.text._ZNSt10_Head_baseILj2EPF16IOPinStatusCodesRK8GpioModeP14PeripheralBaseIS0_Lj1E9ContainerI15IOPinPropertiesJ8GpioPort7GpioPinS1_9GpioStateEEJEEELb0EE7_M_headERSF_
                0x08003fb8        0x0 Debug/Drivers/GPIO/IOPin.o
 .ARM.extab.text._ZNSt10_Head_baseILj2EPF16IOPinStatusCodesRK8GpioModeP14PeripheralBaseIS0_Lj1E9ContainerI15IOPinPropertiesJ8GpioPort7GpioPinS1_9GpioStateEEJEEELb0EE7_M_headERKSF_
                0x08003fb8        0x0 Debug/Drivers/GPIO/IOPin.o
 .ARM.extab.text._ZNSt11_Tuple_implILj3EJPF16IOPinStatusCodesRK9GpioStateP14PeripheralBaseIS0_Lj1E9ContainerI15IOPinPropertiesJ8GpioPort7GpioPin8GpioModeS1_EEJEEEEE7_M_headERSF_
                0x08003fb8        0x0 Debug/Drivers/GPIO/IOPin.o
 .ARM.extab.text._ZNSt11_Tuple_implILj3EJPF16IOPinStatusCodesRK9GpioStateP14PeripheralBaseIS0_Lj1E9ContainerI15IOPinPropertiesJ8GpioPort7GpioPin8GpioModeS1_EEJEEEEE7_M_headERKSF_
                0x08003fb8        0x0 Debug/Drivers/GPIO/IOPin.o
 .ARM.extab.text._ZNSt10_Head_baseILj3EPF16IOPinStatusCodesRK9GpioStateP14PeripheralBaseIS0_Lj1E9ContainerI15IOPinPropertiesJ8GpioPort7GpioPin8GpioModeS1_EEJEEELb0EEC2Ev
                0x08003fb8        0x0 Debug/Drivers/GPIO/IOPin.o
 .ARM.extab.text._ZNSt10_Head_baseILj3EPF16IOPinStatusCodesRK9GpioStateP14PeripheralBaseIS0_Lj1E9ContainerI15IOPinPropertiesJ8GpioPort7GpioPin8GpioModeS1_EEJEEELb0EE7_M_headERSF_
                0x08003fb8        0x0 Debug/Drivers/GPIO/IOPin.o
 .ARM.extab.text._ZNSt10_Head_baseILj3EPF16IOPinStatusCodesRK9GpioStateP14PeripheralBaseIS0_Lj1E9ContainerI15IOPinPropertiesJ8GpioPort7GpioPin8GpioModeS1_EEJEEELb0EE7_M_headERKSF_
                0x08003fb8        0x0 Debug/Drivers/GPIO/IOPin.o
 .ARM.extab.text._Z41__static_initialization_and_destruction_0ii
                0x08003fb8       0x1c Debug/Drivers/GPIO/IOPin.o
 .ARM.extab.text._ZN9ContainerI15IOPinPropertiesJ8GpioPort7GpioPin8GpioMode9GpioStateEE7getSizeEv
                0x08003fd4        0x0 Debug/Drivers/GPIO/IOPin.o
 .ARM.extab.text._ZN9ContainerI15IOPinPropertiesJPF16IOPinStatusCodesRK8GpioPortP14PeripheralBaseIS1_Lj1ES_IS0_JS2_7GpioPin8GpioMode9GpioStateEEJEEEPFS1_RKS6_SB_EPFS1_RKS7_SB_EPFS1_RKS8_SB_EEE7getSizeEv
                0x08003fd4        0x0 Debug/Drivers/GPIO/IOPin.o
 .ARM.extab.text._GLOBAL__sub_I__ZN5IOPinC2Ev
                0x08003fd4        0x0 Debug/Drivers/GPIO/IOPin.o
 .ARM.extab.text.main
                0x08003fd4        0x0 Debug/Src/main.o
 .ARM.extab.text.initialise_monitor_handles
                0x08003fd4        0x0 Debug/Src/syscalls.o
 .ARM.extab.text._getpid
                0x08003fd4        0x0 Debug/Src/syscalls.o
 .ARM.extab.text._kill
                0x08003fd4        0xc Debug/Src/syscalls.o
 .ARM.extab.text._exit
                0x08003fe0        0x0 Debug/Src/syscalls.o
 .ARM.extab.text._read
                0x08003fe0        0xc Debug/Src/syscalls.o
 .ARM.extab.text._write
                0x08003fec        0xc Debug/Src/syscalls.o
 .ARM.extab.text._close
                0x08003ff8        0x0 Debug/Src/syscalls.o
 .ARM.extab.text._fstat
                0x08003ff8        0x0 Debug/Src/syscalls.o
 .ARM.extab.text._isatty
                0x08003ff8        0x0 Debug/Src/syscalls.o
 .ARM.extab.text._lseek
                0x08003ff8        0x0 Debug/Src/syscalls.o
 .ARM.extab.text._open
                0x08003ff8        0x0 Debug/Src/syscalls.o
 .ARM.extab.text._wait
                0x08003ff8        0xc Debug/Src/syscalls.o
 .ARM.extab.text._unlink
                0x08004004        0xc Debug/Src/syscalls.o
 .ARM.extab.text._times
                0x08004010        0x0 Debug/Src/syscalls.o
 .ARM.extab.text._stat
                0x08004010        0x0 Debug/Src/syscalls.o
 .ARM.extab.text._link
                0x08004010        0xc Debug/Src/syscalls.o
 .ARM.extab.text._fork
                0x0800401c        0x0 Debug/Src/syscalls.o
 .ARM.extab.text._execve
                0x0800401c        0xc Debug/Src/syscalls.o
 .ARM.extab.text._sbrk
                0x08004028        0xc Debug/Src/sysmem.o
 .ARM.extab     0x08004034        0x0 /usr/bin/../lib/gcc/arm-none-eabi/12.2.1/../../../../arm-none-eabi/lib/thumb/v7e-m+fp/hard/libc_nano.a(libc_a-strcmp.o)
 .ARM.extab.text.selfrel_offset31
                0x08004034        0x0 /usr/bin/../lib/gcc/arm-none-eabi/12.2.1/thumb/v7e-m+fp/hard/libgcc.a(unwind-arm.o)
 .ARM.extab.text.search_EIT_table
                0x08004034        0x0 /usr/bin/../lib/gcc/arm-none-eabi/12.2.1/thumb/v7e-m+fp/hard/libgcc.a(unwind-arm.o)
 .ARM.extab.text.__gnu_unwind_get_pr_addr
                0x08004034        0x0 /usr/bin/../lib/gcc/arm-none-eabi/12.2.1/thumb/v7e-m+fp/hard/libgcc.a(unwind-arm.o)
 .ARM.extab.text.get_eit_entry
                0x08004034        0x0 /usr/bin/../lib/gcc/arm-none-eabi/12.2.1/thumb/v7e-m+fp/hard/libgcc.a(unwind-arm.o)
 .ARM.extab.text.restore_non_core_regs
                0x08004034        0x0 /usr/bin/../lib/gcc/arm-none-eabi/12.2.1/thumb/v7e-m+fp/hard/libgcc.a(unwind-arm.o)
 .ARM.extab.text.__gnu_unwind_24bit.constprop.0
                0x08004034        0x0 /usr/bin/../lib/gcc/arm-none-eabi/12.2.1/thumb/v7e-m+fp/hard/libgcc.a(unwind-arm.o)
 .ARM.extab.text._Unwind_decode_typeinfo_ptr.constprop.0
                0x08004034        0x0 /usr/bin/../lib/gcc/arm-none-eabi/12.2.1/thumb/v7e-m+fp/hard/libgcc.a(unwind-arm.o)
 .ARM.extab.text._Unwind_DebugHook
                0x08004034        0x0 /usr/bin/../lib/gcc/arm-none-eabi/12.2.1/thumb/v7e-m+fp/hard/libgcc.a(unwind-arm.o)
 .ARM.extab.text.unwind_phase2
                0x08004034        0x0 /usr/bin/../lib/gcc/arm-none-eabi/12.2.1/thumb/v7e-m+fp/hard/libgcc.a(unwind-arm.o)
 .ARM.extab.text.unwind_phase2_forced
                0x08004034        0x0 /usr/bin/../lib/gcc/arm-none-eabi/12.2.1/thumb/v7e-m+fp/hard/libgcc.a(unwind-arm.o)
 .ARM.extab.text._Unwind_GetCFA
                0x08004034        0x0 /usr/bin/../lib/gcc/arm-none-eabi/12.2.1/thumb/v7e-m+fp/hard/libgcc.a(unwind-arm.o)
 .ARM.extab.text.__gnu_Unwind_RaiseException
                0x08004034        0x0 /usr/bin/../lib/gcc/arm-none-eabi/12.2.1/thumb/v7e-m+fp/hard/libgcc.a(unwind-arm.o)
 .ARM.extab.text.__gnu_Unwind_ForcedUnwind
                0x08004034        0x0 /usr/bin/../lib/gcc/arm-none-eabi/12.2.1/thumb/v7e-m+fp/hard/libgcc.a(unwind-arm.o)
 .ARM.extab.text.__gnu_Unwind_Resume
                0x08004034        0x0 /usr/bin/../lib/gcc/arm-none-eabi/12.2.1/thumb/v7e-m+fp/hard/libgcc.a(unwind-arm.o)
 .ARM.extab.text.__gnu_Unwind_Resume_or_Rethrow
                0x08004034        0x0 /usr/bin/../lib/gcc/arm-none-eabi/12.2.1/thumb/v7e-m+fp/hard/libgcc.a(unwind-arm.o)
 .ARM.extab.text._Unwind_Complete
                0x08004034        0x0 /usr/bin/../lib/gcc/arm-none-eabi/12.2.1/thumb/v7e-m+fp/hard/libgcc.a(unwind-arm.o)
 .ARM.extab.text._Unwind_DeleteException
                0x08004034        0x0 /usr/bin/../lib/gcc/arm-none-eabi/12.2.1/thumb/v7e-m+fp/hard/libgcc.a(unwind-arm.o)
 .ARM.extab.text._Unwind_VRS_Get
                0x08004034        0x0 /usr/bin/../lib/gcc/arm-none-eabi/12.2.1/thumb/v7e-m+fp/hard/libgcc.a(unwind-arm.o)
 .ARM.extab.text._Unwind_GetGR
                0x08004034        0x0 /usr/bin/../lib/gcc/arm-none-eabi/12.2.1/thumb/v7e-m+fp/hard/libgcc.a(unwind-arm.o)
 .ARM.extab.text._Unwind_VRS_Set
                0x08004034        0x0 /usr/bin/../lib/gcc/arm-none-eabi/12.2.1/thumb/v7e-m+fp/hard/libgcc.a(unwind-arm.o)
 .ARM.extab.text._Unwind_SetGR
                0x08004034        0x0 /usr/bin/../lib/gcc/arm-none-eabi/12.2.1/thumb/v7e-m+fp/hard/libgcc.a(unwind-arm.o)
 .ARM.extab.text.__gnu_Unwind_Backtrace
                0x08004034        0x0 /usr/bin/../lib/gcc/arm-none-eabi/12.2.1/thumb/v7e-m+fp/hard/libgcc.a(unwind-arm.o)
 .ARM.extab.text.__gnu_unwind_pr_common
                0x08004034        0x0 /usr/bin/../lib/gcc/arm-none-eabi/12.2.1/thumb/v7e-m+fp/hard/libgcc.a(unwind-arm.o)
 .ARM.extab.text.__aeabi_unwind_cpp_pr0
                0x08004034        0x0 /usr/bin/../lib/gcc/arm-none-eabi/12.2.1/thumb/v7e-m+fp/hard/libgcc.a(unwind-arm.o)
 .ARM.extab.text.__aeabi_unwind_cpp_pr1
                0x08004034        0x0 /usr/bin/../lib/gcc/arm-none-eabi/12.2.1/thumb/v7e-m+fp/hard/libgcc.a(unwind-arm.o)
 .ARM.extab.text.__aeabi_unwind_cpp_pr2
                0x08004034        0x0 /usr/bin/../lib/gcc/arm-none-eabi/12.2.1/thumb/v7e-m+fp/hard/libgcc.a(unwind-arm.o)
 .ARM.extab.text._Unwind_VRS_Pop
                0x08004034        0x0 /usr/bin/../lib/gcc/arm-none-eabi/12.2.1/thumb/v7e-m+fp/hard/libgcc.a(unwind-arm.o)
 .ARM.extab.text.next_unwind_byte
                0x08004034        0x0 /usr/bin/../lib/gcc/arm-none-eabi/12.2.1/thumb/v7e-m+fp/hard/libgcc.a(pr-support.o)
 .ARM.extab.text._Unwind_GetGR.constprop.0
                0x08004034        0x0 /usr/bin/../lib/gcc/arm-none-eabi/12.2.1/thumb/v7e-m+fp/hard/libgcc.a(pr-support.o)
 .ARM.extab.text.unwind_UCB_from_context
                0x08004034        0x0 /usr/bin/../lib/gcc/arm-none-eabi/12.2.1/thumb/v7e-m+fp/hard/libgcc.a(pr-support.o)
 .ARM.extab.text.__gnu_unwind_execute
                0x08004034        0x0 /usr/bin/../lib/gcc/arm-none-eabi/12.2.1/thumb/v7e-m+fp/hard/libgcc.a(pr-support.o)
 .ARM.extab.text.__gnu_unwind_frame
                0x08004034        0x0 /usr/bin/../lib/gcc/arm-none-eabi/12.2.1/thumb/v7e-m+fp/hard/libgcc.a(pr-support.o)
 .ARM.extab.text._Unwind_GetRegionStart
                0x08004034        0xc /usr/bin/../lib/gcc/arm-none-eabi/12.2.1/thumb/v7e-m+fp/hard/libgcc.a(pr-support.o)
 .ARM.extab.text._Unwind_GetLanguageSpecificData
                0x08004040        0xc /usr/bin/../lib/gcc/arm-none-eabi/12.2.1/thumb/v7e-m+fp/hard/libgcc.a(pr-support.o)
 .ARM.extab.text.unlikely._Unwind_GetDataRelBase
                0x0800404c        0x0 /usr/bin/../lib/gcc/arm-none-eabi/12.2.1/thumb/v7e-m+fp/hard/libgcc.a(pr-support.o)
 .ARM.extab.text.unlikely._Unwind_GetTextRelBase
                0x0800404c        0x0 /usr/bin/../lib/gcc/arm-none-eabi/12.2.1/thumb/v7e-m+fp/hard/libgcc.a(pr-support.o)
                0x0800404c                        . = ALIGN (0x4)

.ARM            0x0800404c      0x280
                0x0800404c                        . = ALIGN (0x4)
                0x0800404c                        __exidx_start = .
 *(.ARM.exidx*)
 .ARM.exidx     0x0800404c        0x8 /usr/bin/../lib/gcc/arm-none-eabi/12.2.1/../../../../arm-none-eabi/lib/thumb/v7e-m+fp/hard/crt0.o
                                 0x10 (size before relaxing)
 .ARM.exidx     0x08004054        0x0 /usr/bin/../lib/gcc/arm-none-eabi/12.2.1/../../../../arm-none-eabi/lib/thumb/v7e-m+fp/hard/libc_nano.a(libc_a-strcmp.o)
                                  0x8 (size before relaxing)
 .ARM.exidx.text._ZN5IOPin10configPortERK8GpioPortP14PeripheralBaseI16IOPinStatusCodesLj1E9ContainerI15IOPinPropertiesJS0_7GpioPin8GpioMode9GpioStateEEJEE
                0x08004054        0x0 Debug/Drivers/GPIO/IOPin.o
                                  0x8 (size before relaxing)
 .ARM.exidx.text._ZN5IOPin9configPinERK7GpioPinP14PeripheralBaseI16IOPinStatusCodesLj1E9ContainerI15IOPinPropertiesJ8GpioPortS0_8GpioMode9GpioStateEEJEE
                0x08004054        0x0 Debug/Drivers/GPIO/IOPin.o
                                  0x8 (size before relaxing)
 .ARM.exidx.text._ZN5IOPin10configModeERK8GpioModeP14PeripheralBaseI16IOPinStatusCodesLj1E9ContainerI15IOPinPropertiesJ8GpioPort7GpioPinS0_9GpioStateEEJEE
                0x08004054        0x0 Debug/Drivers/GPIO/IOPin.o
                                  0x8 (size before relaxing)
 .ARM.exidx.text._ZN5IOPin11configStateERK9GpioStateP14PeripheralBaseI16IOPinStatusCodesLj1E9ContainerI15IOPinPropertiesJ8GpioPort7GpioPin8GpioModeS0_EEJEE
                0x08004054        0x0 Debug/Drivers/GPIO/IOPin.o
                                  0x8 (size before relaxing)
 .ARM.exidx.text._ZN5IOPinC2Ev
                0x08004054        0x8 Debug/Drivers/GPIO/IOPin.o
 .ARM.exidx.text._ZN5IOPinC2ERKS_
                0x0800405c        0x8 Debug/Drivers/GPIO/IOPin.o
 .ARM.exidx.text._ZN5IOPinC2ERKS_RK7GpioPin
                0x08004064        0x8 Debug/Drivers/GPIO/IOPin.o
 .ARM.exidx.text._ZN5IOPinC2ERKS_RK8GpioPort
                0x0800406c        0x8 Debug/Drivers/GPIO/IOPin.o
 .ARM.exidx.text._ZN5IOPinC2EOS_
                0x08004074        0x8 Debug/Drivers/GPIO/IOPin.o
 .ARM.exidx.text._ZN5IOPinaSERKS_
                0x0800407c        0x8 Debug/Drivers/GPIO/IOPin.o
 .ARM.exidx.text._ZN5IOPinaSEOS_
                0x08004084        0x0 Debug/Drivers/GPIO/IOPin.o
                                  0x8 (size before relaxing)
 .ARM.exidx.text._ZN5IOPinD2Ev
                0x08004084        0x0 Debug/Drivers/GPIO/IOPin.o
                                  0x8 (size before relaxing)
 .ARM.exidx.text._ZN5IOPinD0Ev
                0x08004084        0x0 Debug/Drivers/GPIO/IOPin.o
                                  0x8 (size before relaxing)
 .ARM.exidx.text._ZN5IOPin7setPortERK8GpioPort
                0x08004084        0x0 Debug/Drivers/GPIO/IOPin.o
                                  0x8 (size before relaxing)
 .ARM.exidx.text._ZN5IOPin6setPinERK7GpioPin
                0x08004084        0x0 Debug/Drivers/GPIO/IOPin.o
                                  0x8 (size before relaxing)
 .ARM.exidx.text._ZN5IOPin7setModeERK8GpioMode
                0x08004084        0x0 Debug/Drivers/GPIO/IOPin.o
                                  0x8 (size before relaxing)
 .ARM.exidx.text._ZN5IOPin7setPUPDERK8GpioPUPD
                0x08004084        0x0 Debug/Drivers/GPIO/IOPin.o
                                  0x8 (size before relaxing)
 .ARM.exidx.text._ZN5IOPin13setOutputTypeERK14GpioOutputType
                0x08004084        0x0 Debug/Drivers/GPIO/IOPin.o
                                  0x8 (size before relaxing)
 .ARM.exidx.text._ZN5IOPin14setOutputSpeedERK15GpioOutputSpeed
                0x08004084        0x0 Debug/Drivers/GPIO/IOPin.o
                                  0x8 (size before relaxing)
 .ARM.exidx.text._ZN5IOPin12setInputModeEv
                0x08004084        0x0 Debug/Drivers/GPIO/IOPin.o
                                  0x8 (size before relaxing)
 .ARM.exidx.text._ZN5IOPin13setOutputModeEv
                0x08004084        0x0 Debug/Drivers/GPIO/IOPin.o
                                  0x8 (size before relaxing)
 .ARM.exidx.text._ZN5IOPin9setPullupEv
                0x08004084        0x0 Debug/Drivers/GPIO/IOPin.o
                                  0x8 (size before relaxing)
 .ARM.exidx.text._ZN5IOPin11setPulldownEv
                0x08004084        0x0 Debug/Drivers/GPIO/IOPin.o
                                  0x8 (size before relaxing)
 .ARM.exidx.text._ZN5IOPin21setPullPushOutputTypeEv
                0x08004084        0x0 Debug/Drivers/GPIO/IOPin.o
                                  0x8 (size before relaxing)
 .ARM.exidx.text._ZN5IOPin22setOpenDrainOutputTypeEv
                0x08004084        0x0 Debug/Drivers/GPIO/IOPin.o
                                  0x8 (size before relaxing)
 .ARM.exidx.text._ZN5IOPin4readEv
                0x08004084        0x0 Debug/Drivers/GPIO/IOPin.o
                                  0x8 (size before relaxing)
 .ARM.exidx.text._ZN5IOPin5writeERKb
                0x08004084        0x0 Debug/Drivers/GPIO/IOPin.o
                                  0x8 (size before relaxing)
 .ARM.exidx.text._ZN5IOPin6toggleEv
                0x08004084        0x0 Debug/Drivers/GPIO/IOPin.o
                                  0x8 (size before relaxing)
 .ARM.exidx.text._ZN5IOPin5resetERKb
                0x08004084        0x0 Debug/Drivers/GPIO/IOPin.o
                                  0x8 (size before relaxing)
 .ARM.exidx.text._ZN5IOPin7isReadyEv
                0x08004084        0x0 Debug/Drivers/GPIO/IOPin.o
                                  0x8 (size before relaxing)
 .ARM.exidx.text._ZN5IOPin11isAllocatedERK8GpioPortRK7GpioPin
                0x08004084        0x0 Debug/Drivers/GPIO/IOPin.o
                                  0x8 (size before relaxing)
 .ARM.exidx.text._ZN5IOPin11isAllocatedEPK12GPIO_TypeDefRK7GpioPin
                0x08004084        0x0 Debug/Drivers/GPIO/IOPin.o
                                  0x8 (size before relaxing)
 .ARM.exidx.text._ZN5IOPin8isPinSetEv
                0x08004084        0x0 Debug/Drivers/GPIO/IOPin.o
                                  0x8 (size before relaxing)
 .ARM.exidx.text._ZN5IOPin9isPortSetEv
                0x08004084        0x0 Debug/Drivers/GPIO/IOPin.o
                                  0x8 (size before relaxing)
 .ARM.exidx.text._ZN5IOPin14isReallocatingERK7GpioPin
                0x08004084        0x0 Debug/Drivers/GPIO/IOPin.o
                                  0x8 (size before relaxing)
 .ARM.exidx.text._ZN5IOPin14isReallocatingERK8GpioPort
                0x08004084        0x0 Debug/Drivers/GPIO/IOPin.o
                                  0x8 (size before relaxing)
 .ARM.exidx.text._ZN5IOPin18getGPIOPtrInstanceERK8GpioPort
                0x08004084        0x0 Debug/Drivers/GPIO/IOPin.o
                                  0x8 (size before relaxing)
 .ARM.exidx.text._ZN5IOPin21getPortFromGPIOStructEPK12GPIO_TypeDef
                0x08004084        0x0 Debug/Drivers/GPIO/IOPin.o
                                  0x8 (size before relaxing)
 .ARM.exidx.text._ZN5IOPin11allocatePinEv
                0x08004084        0x0 Debug/Drivers/GPIO/IOPin.o
                                  0x8 (size before relaxing)
 .ARM.exidx.text._ZN5IOPin13deAllocatePinEv
                0x08004084        0x0 Debug/Drivers/GPIO/IOPin.o
                                  0x8 (size before relaxing)
 .ARM.exidx.text._ZN5IOPin4initEv
                0x08004084        0x0 Debug/Drivers/GPIO/IOPin.o
                                  0x8 (size before relaxing)
 .ARM.exidx.text._ZN5IOPin14setInstancePtrEv
                0x08004084        0x0 Debug/Drivers/GPIO/IOPin.o
                                  0x8 (size before relaxing)
 .ARM.exidx.text._ZN5IOPin18setDefaultSettingsEv
                0x08004084        0x0 Debug/Drivers/GPIO/IOPin.o
                                  0x8 (size before relaxing)
 .ARM.exidx.text._ZN5IOPin7preInitEv
                0x08004084        0x0 Debug/Drivers/GPIO/IOPin.o
                                  0x8 (size before relaxing)
 .ARM.exidx.text._ZN9ContainerI15IOPinPropertiesJPF16IOPinStatusCodesRK8GpioPortP14PeripheralBaseIS1_Lj1ES_IS0_JS2_7GpioPin8GpioMode9GpioStateEEJEEEPFS1_RKS6_SB_EPFS1_RKS7_SB_EPFS1_RKS8_SB_EEEC2EOSD_OSH_OSL_OSP_
                0x08004084        0x8 Debug/Drivers/GPIO/IOPin.o
 .ARM.exidx.text._ZN9ContainerI15IOPinPropertiesJPF16IOPinStatusCodesRK8GpioPortP14PeripheralBaseIS1_Lj1ES_IS0_JS2_7GpioPin8GpioMode9GpioStateEEJEEEPFS1_RKS6_SB_EPFS1_RKS7_SB_EPFS1_RKS8_SB_EEED2Ev
                0x0800408c        0x8 Debug/Drivers/GPIO/IOPin.o
 .ARM.exidx.text._ZN9ContainerI15IOPinPropertiesJPF16IOPinStatusCodesRK8GpioPortP14PeripheralBaseIS1_Lj1ES_IS0_JS2_7GpioPin8GpioMode9GpioStateEEJEEEPFS1_RKS6_SB_EPFS1_RKS7_SB_EPFS1_RKS8_SB_EEED0Ev
                0x08004094        0x0 Debug/Drivers/GPIO/IOPin.o
                                  0x8 (size before relaxing)
 .ARM.exidx.text._ZN19STM32PeripheralBaseI12GPIO_TypeDef14PeripheralBaseI16IOPinStatusCodesLj1E9ContainerI15IOPinPropertiesJ8GpioPort7GpioPin8GpioMode9GpioStateEEJEEEC2IJPFS2_RKS5_PSA_EPFS2_RKS6_SF_EPFS2_RKS7_SF_EPFS2_RKS8_SF_EEEERKS3_IS4_JDpT_EE
                0x08004094        0x8 Debug/Drivers/GPIO/IOPin.o
 .ARM.exidx.text._ZN19STM32PeripheralBaseI12GPIO_TypeDef14PeripheralBaseI16IOPinStatusCodesLj1E9ContainerI15IOPinPropertiesJ8GpioPort7GpioPin8GpioMode9GpioStateEEJEEED2Ev
                0x0800409c        0x8 Debug/Drivers/GPIO/IOPin.o
 .ARM.exidx.text._ZN19STM32PeripheralBaseI12GPIO_TypeDef14PeripheralBaseI16IOPinStatusCodesLj1E9ContainerI15IOPinPropertiesJ8GpioPort7GpioPin8GpioMode9GpioStateEEJEEED0Ev
                0x080040a4        0x0 Debug/Drivers/GPIO/IOPin.o
                                  0x8 (size before relaxing)
 .ARM.exidx.text._ZSt7forwardIPF16IOPinStatusCodesRK8GpioPortP14PeripheralBaseIS0_Lj1E9ContainerI15IOPinPropertiesJS1_7GpioPin8GpioMode9GpioStateEEJEEEEOT_RNSt16remove_referenceISF_E4typeE
                0x080040a4        0x0 Debug/Drivers/GPIO/IOPin.o
                                  0x8 (size before relaxing)
 .ARM.exidx.text._ZSt7forwardIPF16IOPinStatusCodesRK7GpioPinP14PeripheralBaseIS0_Lj1E9ContainerI15IOPinPropertiesJ8GpioPortS1_8GpioMode9GpioStateEEJEEEEOT_RNSt16remove_referenceISF_E4typeE
                0x080040a4        0x0 Debug/Drivers/GPIO/IOPin.o
                                  0x8 (size before relaxing)
 .ARM.exidx.text._ZSt7forwardIPF16IOPinStatusCodesRK8GpioModeP14PeripheralBaseIS0_Lj1E9ContainerI15IOPinPropertiesJ8GpioPort7GpioPinS1_9GpioStateEEJEEEEOT_RNSt16remove_referenceISF_E4typeE
                0x080040a4        0x0 Debug/Drivers/GPIO/IOPin.o
                                  0x8 (size before relaxing)
 .ARM.exidx.text._ZSt7forwardIPF16IOPinStatusCodesRK9GpioStateP14PeripheralBaseIS0_Lj1E9ContainerI15IOPinPropertiesJ8GpioPort7GpioPin8GpioModeS1_EEJEEEEOT_RNSt16remove_referenceISF_E4typeE
                0x080040a4        0x0 Debug/Drivers/GPIO/IOPin.o
                                  0x8 (size before relaxing)
 .ARM.exidx.text._ZN13ContainerBaseIJPF16IOPinStatusCodesRK8GpioPortP14PeripheralBaseIS0_Lj1E9ContainerI15IOPinPropertiesJS1_7GpioPin8GpioMode9GpioStateEEJEEEPFS0_RKS7_SC_EPFS0_RKS8_SC_EPFS0_RKS9_SC_EEEC2EOSE_OSI_OSM_OSQ_
                0x080040a4        0x0 Debug/Drivers/GPIO/IOPin.o
                                  0x8 (size before relaxing)
 .ARM.exidx.text._ZN13ContainerBaseIJPF16IOPinStatusCodesRK8GpioPortP14PeripheralBaseIS0_Lj1E9ContainerI15IOPinPropertiesJS1_7GpioPin8GpioMode9GpioStateEEJEEEPFS0_RKS7_SC_EPFS0_RKS8_SC_EPFS0_RKS9_SC_EEED2Ev
                0x080040a4        0x0 Debug/Drivers/GPIO/IOPin.o
                                  0x8 (size before relaxing)
 .ARM.exidx.text._ZN13ContainerBaseIJPF16IOPinStatusCodesRK8GpioPortP14PeripheralBaseIS0_Lj1E9ContainerI15IOPinPropertiesJS1_7GpioPin8GpioMode9GpioStateEEJEEEPFS0_RKS7_SC_EPFS0_RKS8_SC_EPFS0_RKS9_SC_EEED0Ev
                0x080040a4        0x0 Debug/Drivers/GPIO/IOPin.o
                                  0x8 (size before relaxing)
 .ARM.exidx.text._ZN14PeripheralBaseI16IOPinStatusCodesLj1E9ContainerI15IOPinPropertiesJ8GpioPort7GpioPin8GpioMode9GpioStateEEJEEC2IJPFS0_RKS3_PS8_EPFS0_RKS4_SC_EPFS0_RKS5_SC_EPFS0_RKS6_SC_EEEERKS1_IS2_JDpT_EE
                0x080040a4        0x8 Debug/Drivers/GPIO/IOPin.o
 .ARM.exidx.text._ZN14PeripheralBaseI16IOPinStatusCodesLj1E9ContainerI15IOPinPropertiesJ8GpioPort7GpioPin8GpioMode9GpioStateEEJEED2Ev
                0x080040ac        0x8 Debug/Drivers/GPIO/IOPin.o
 .ARM.exidx.text._ZN14PeripheralBaseI16IOPinStatusCodesLj1E9ContainerI15IOPinPropertiesJ8GpioPort7GpioPin8GpioMode9GpioStateEEJEED0Ev
                0x080040b4        0x0 Debug/Drivers/GPIO/IOPin.o
                                  0x8 (size before relaxing)
 .ARM.exidx.text._ZNSt5tupleIJPF16IOPinStatusCodesRK8GpioPortP14PeripheralBaseIS0_Lj1E9ContainerI15IOPinPropertiesJS1_7GpioPin8GpioMode9GpioStateEEJEEEPFS0_RKS7_SC_EPFS0_RKS8_SC_EPFS0_RKS9_SC_EEEC2IJSE_SI_SM_SQ_ELb1ELb1EEEDpOT_
                0x080040b4        0x8 Debug/Drivers/GPIO/IOPin.o
 .ARM.exidx.text._ZN9ContainerI15IOPinPropertiesJ8GpioPort7GpioPin8GpioMode9GpioStateEEC2Ev
                0x080040bc        0x8 Debug/Drivers/GPIO/IOPin.o
 .ARM.exidx.text._ZN14PeripheralBaseI16IOPinStatusCodesLj1E9ContainerI15IOPinPropertiesJ8GpioPort7GpioPin8GpioMode9GpioStateEEJEE15setFunctionsPtrIJPFS0_RKS3_PS8_EPFS0_RKS4_SC_EPFS0_RKS5_SC_EPFS0_RKS6_SC_EEEEvRKS1_IS2_JDpT_EE
                0x080040c4        0x8 Debug/Drivers/GPIO/IOPin.o
 .ARM.exidx.text._ZN9ContainerI15IOPinPropertiesJ8GpioPort7GpioPin8GpioMode9GpioStateEED2Ev
                0x080040cc        0x0 Debug/Drivers/GPIO/IOPin.o
                                  0x8 (size before relaxing)
 .ARM.exidx.text._ZN9ContainerI15IOPinPropertiesJ8GpioPort7GpioPin8GpioMode9GpioStateEED0Ev
                0x080040cc        0x0 Debug/Drivers/GPIO/IOPin.o
                                  0x8 (size before relaxing)
 .ARM.exidx.text._ZNSt11_Tuple_implILj0EJPF16IOPinStatusCodesRK8GpioPortP14PeripheralBaseIS0_Lj1E9ContainerI15IOPinPropertiesJS1_7GpioPin8GpioMode9GpioStateEEJEEEPFS0_RKS7_SC_EPFS0_RKS8_SC_EPFS0_RKS9_SC_EEEC2ISE_JSI_SM_SQ_EvEEOT_DpOT0_
                0x080040cc        0x8 Debug/Drivers/GPIO/IOPin.o
 .ARM.exidx.text._ZN13ContainerBaseIJ8GpioPort7GpioPin8GpioMode9GpioStateEEC2Ev
                0x080040d4        0x8 Debug/Drivers/GPIO/IOPin.o
 .ARM.exidx.text._ZN13ContainerBaseIJ8GpioPort7GpioPin8GpioMode9GpioStateEED2Ev
                0x080040dc        0x0 Debug/Drivers/GPIO/IOPin.o
                                  0x8 (size before relaxing)
 .ARM.exidx.text._ZN13ContainerBaseIJ8GpioPort7GpioPin8GpioMode9GpioStateEED0Ev
                0x080040dc        0x0 Debug/Drivers/GPIO/IOPin.o
                                  0x8 (size before relaxing)
 .ARM.exidx.text._ZN9ContainerI15IOPinPropertiesJPF16IOPinStatusCodesRK8GpioPortP14PeripheralBaseIS1_Lj1ES_IS0_JS2_7GpioPin8GpioMode9GpioStateEEJEEEPFS1_RKS6_SB_EPFS1_RKS7_SB_EPFS1_RKS8_SB_EEEC2Ev
                0x080040dc        0x8 Debug/Drivers/GPIO/IOPin.o
 .ARM.exidx.text._ZN9ContainerI15IOPinPropertiesJPF16IOPinStatusCodesRK8GpioPortP14PeripheralBaseIS1_Lj1ES_IS0_JS2_7GpioPin8GpioMode9GpioStateEEJEEEPFS1_RKS6_SB_EPFS1_RKS7_SB_EPFS1_RKS8_SB_EEEaSERKSQ_
                0x080040e4        0x8 Debug/Drivers/GPIO/IOPin.o
 .ARM.exidx.text._ZNSt11_Tuple_implILj1EJPF16IOPinStatusCodesRK7GpioPinP14PeripheralBaseIS0_Lj1E9ContainerI15IOPinPropertiesJ8GpioPortS1_8GpioMode9GpioStateEEJEEEPFS0_RKS8_SC_EPFS0_RKS9_SC_EEEC2ISE_JSI_SM_EvEEOT_DpOT0_
                0x080040ec        0x8 Debug/Drivers/GPIO/IOPin.o
 .ARM.exidx.text._ZNSt10_Head_baseILj0EPF16IOPinStatusCodesRK8GpioPortP14PeripheralBaseIS0_Lj1E9ContainerI15IOPinPropertiesJS1_7GpioPin8GpioMode9GpioStateEEJEEELb0EEC2ISE_EEOT_
                0x080040f4        0x8 Debug/Drivers/GPIO/IOPin.o
 .ARM.exidx.text._ZNSt5tupleIJ8GpioPort7GpioPin8GpioMode9GpioStateEEC2IvLb1EEEv
                0x080040fc        0x8 Debug/Drivers/GPIO/IOPin.o
 .ARM.exidx.text._ZN13ContainerBaseIJPF16IOPinStatusCodesRK8GpioPortP14PeripheralBaseIS0_Lj1E9ContainerI15IOPinPropertiesJS1_7GpioPin8GpioMode9GpioStateEEJEEEPFS0_RKS7_SC_EPFS0_RKS8_SC_EPFS0_RKS9_SC_EEEC2Ev
                0x08004104        0x8 Debug/Drivers/GPIO/IOPin.o
 .ARM.exidx.text._ZNSt5tupleIJPF16IOPinStatusCodesRK8GpioPortP14PeripheralBaseIS0_Lj1E9ContainerI15IOPinPropertiesJS1_7GpioPin8GpioMode9GpioStateEEJEEEPFS0_RKS7_SC_EPFS0_RKS8_SC_EPFS0_RKS9_SC_EEEaSERKSR_
                0x0800410c        0x8 Debug/Drivers/GPIO/IOPin.o
 .ARM.exidx.text._ZNSt11_Tuple_implILj2EJPF16IOPinStatusCodesRK8GpioModeP14PeripheralBaseIS0_Lj1E9ContainerI15IOPinPropertiesJ8GpioPort7GpioPinS1_9GpioStateEEJEEEPFS0_RKS9_SC_EEEC2ISE_JSI_EvEEOT_DpOT0_
                0x08004114        0x8 Debug/Drivers/GPIO/IOPin.o
 .ARM.exidx.text._ZNSt10_Head_baseILj1EPF16IOPinStatusCodesRK7GpioPinP14PeripheralBaseIS0_Lj1E9ContainerI15IOPinPropertiesJ8GpioPortS1_8GpioMode9GpioStateEEJEEELb0EEC2ISE_EEOT_
                0x0800411c        0x8 Debug/Drivers/GPIO/IOPin.o
 .ARM.exidx.text._ZNSt11_Tuple_implILj0EJ8GpioPort7GpioPin8GpioMode9GpioStateEEC2Ev
                0x08004124        0x8 Debug/Drivers/GPIO/IOPin.o
 .ARM.exidx.text._ZNSt5tupleIJPF16IOPinStatusCodesRK8GpioPortP14PeripheralBaseIS0_Lj1E9ContainerI15IOPinPropertiesJS1_7GpioPin8GpioMode9GpioStateEEJEEEPFS0_RKS7_SC_EPFS0_RKS8_SC_EPFS0_RKS9_SC_EEEC2IvLb1EEEv
                0x0800412c        0x8 Debug/Drivers/GPIO/IOPin.o
 .ARM.exidx.text._ZNSt11_Tuple_implILj0EJPF16IOPinStatusCodesRK8GpioPortP14PeripheralBaseIS0_Lj1E9ContainerI15IOPinPropertiesJS1_7GpioPin8GpioMode9GpioStateEEJEEEPFS0_RKS7_SC_EPFS0_RKS8_SC_EPFS0_RKS9_SC_EEE9_M_assignIJSE_SI_SM_SQ_EEEvRKS_ILj0EJDpT_EE
                0x08004134        0x8 Debug/Drivers/GPIO/IOPin.o
 .ARM.exidx.text._ZNSt11_Tuple_implILj3EJPF16IOPinStatusCodesRK9GpioStateP14PeripheralBaseIS0_Lj1E9ContainerI15IOPinPropertiesJ8GpioPort7GpioPin8GpioModeS1_EEJEEEEEC2ISE_EEOT_
                0x0800413c        0x8 Debug/Drivers/GPIO/IOPin.o
 .ARM.exidx.text._ZNSt10_Head_baseILj2EPF16IOPinStatusCodesRK8GpioModeP14PeripheralBaseIS0_Lj1E9ContainerI15IOPinPropertiesJ8GpioPort7GpioPinS1_9GpioStateEEJEEELb0EEC2ISE_EEOT_
                0x08004144        0x0 Debug/Drivers/GPIO/IOPin.o
                                  0x8 (size before relaxing)
 .ARM.exidx.text._ZNSt11_Tuple_implILj1EJ7GpioPin8GpioMode9GpioStateEEC2Ev
                0x08004144        0x8 Debug/Drivers/GPIO/IOPin.o
 .ARM.exidx.text._ZNSt10_Head_baseILj0E8GpioPortLb0EEC2Ev
                0x0800414c        0x8 Debug/Drivers/GPIO/IOPin.o
 .ARM.exidx.text._ZNSt11_Tuple_implILj0EJPF16IOPinStatusCodesRK8GpioPortP14PeripheralBaseIS0_Lj1E9ContainerI15IOPinPropertiesJS1_7GpioPin8GpioMode9GpioStateEEJEEEPFS0_RKS7_SC_EPFS0_RKS8_SC_EPFS0_RKS9_SC_EEEC2Ev
                0x08004154        0x8 Debug/Drivers/GPIO/IOPin.o
 .ARM.exidx.text._ZNSt11_Tuple_implILj0EJPF16IOPinStatusCodesRK8GpioPortP14PeripheralBaseIS0_Lj1E9ContainerI15IOPinPropertiesJS1_7GpioPin8GpioMode9GpioStateEEJEEEPFS0_RKS7_SC_EPFS0_RKS8_SC_EPFS0_RKS9_SC_EEE7_M_headERSR_
                0x0800415c        0x8 Debug/Drivers/GPIO/IOPin.o
 .ARM.exidx.text._ZNSt11_Tuple_implILj0EJPF16IOPinStatusCodesRK8GpioPortP14PeripheralBaseIS0_Lj1E9ContainerI15IOPinPropertiesJS1_7GpioPin8GpioMode9GpioStateEEJEEEPFS0_RKS7_SC_EPFS0_RKS8_SC_EPFS0_RKS9_SC_EEE7_M_headERKSR_
                0x08004164        0x0 Debug/Drivers/GPIO/IOPin.o
                                  0x8 (size before relaxing)
 .ARM.exidx.text._ZNSt11_Tuple_implILj0EJPF16IOPinStatusCodesRK8GpioPortP14PeripheralBaseIS0_Lj1E9ContainerI15IOPinPropertiesJS1_7GpioPin8GpioMode9GpioStateEEJEEEPFS0_RKS7_SC_EPFS0_RKS8_SC_EPFS0_RKS9_SC_EEE7_M_tailERSR_
                0x08004164        0x0 Debug/Drivers/GPIO/IOPin.o
                                  0x8 (size before relaxing)
 .ARM.exidx.text._ZNSt11_Tuple_implILj0EJPF16IOPinStatusCodesRK8GpioPortP14PeripheralBaseIS0_Lj1E9ContainerI15IOPinPropertiesJS1_7GpioPin8GpioMode9GpioStateEEJEEEPFS0_RKS7_SC_EPFS0_RKS8_SC_EPFS0_RKS9_SC_EEE7_M_tailERKSR_
                0x08004164        0x0 Debug/Drivers/GPIO/IOPin.o
                                  0x8 (size before relaxing)
 .ARM.exidx.text._ZNSt11_Tuple_implILj1EJPF16IOPinStatusCodesRK7GpioPinP14PeripheralBaseIS0_Lj1E9ContainerI15IOPinPropertiesJ8GpioPortS1_8GpioMode9GpioStateEEJEEEPFS0_RKS8_SC_EPFS0_RKS9_SC_EEE9_M_assignIJSE_SI_SM_EEEvRKS_ILj1EJDpT_EE
                0x08004164        0x8 Debug/Drivers/GPIO/IOPin.o
 .ARM.exidx.text._ZNSt10_Head_baseILj3EPF16IOPinStatusCodesRK9GpioStateP14PeripheralBaseIS0_Lj1E9ContainerI15IOPinPropertiesJ8GpioPort7GpioPin8GpioModeS1_EEJEEELb0EEC2ISE_EEOT_
                0x0800416c        0x8 Debug/Drivers/GPIO/IOPin.o
 .ARM.exidx.text._ZNSt11_Tuple_implILj2EJ8GpioMode9GpioStateEEC2Ev
                0x08004174        0x8 Debug/Drivers/GPIO/IOPin.o
 .ARM.exidx.text._ZNSt10_Head_baseILj1E7GpioPinLb0EEC2Ev
                0x0800417c        0x8 Debug/Drivers/GPIO/IOPin.o
 .ARM.exidx.text._ZNSt11_Tuple_implILj1EJPF16IOPinStatusCodesRK7GpioPinP14PeripheralBaseIS0_Lj1E9ContainerI15IOPinPropertiesJ8GpioPortS1_8GpioMode9GpioStateEEJEEEPFS0_RKS8_SC_EPFS0_RKS9_SC_EEEC2Ev
                0x08004184        0x8 Debug/Drivers/GPIO/IOPin.o
 .ARM.exidx.text._ZNSt10_Head_baseILj0EPF16IOPinStatusCodesRK8GpioPortP14PeripheralBaseIS0_Lj1E9ContainerI15IOPinPropertiesJS1_7GpioPin8GpioMode9GpioStateEEJEEELb0EEC2Ev
                0x0800418c        0x8 Debug/Drivers/GPIO/IOPin.o
 .ARM.exidx.text._ZNSt10_Head_baseILj0EPF16IOPinStatusCodesRK8GpioPortP14PeripheralBaseIS0_Lj1E9ContainerI15IOPinPropertiesJS1_7GpioPin8GpioMode9GpioStateEEJEEELb0EE7_M_headERSF_
                0x08004194        0x0 Debug/Drivers/GPIO/IOPin.o
                                  0x8 (size before relaxing)
 .ARM.exidx.text._ZNSt10_Head_baseILj0EPF16IOPinStatusCodesRK8GpioPortP14PeripheralBaseIS0_Lj1E9ContainerI15IOPinPropertiesJS1_7GpioPin8GpioMode9GpioStateEEJEEELb0EE7_M_headERKSF_
                0x08004194        0x0 Debug/Drivers/GPIO/IOPin.o
                                  0x8 (size before relaxing)
 .ARM.exidx.text._ZNSt11_Tuple_implILj1EJPF16IOPinStatusCodesRK7GpioPinP14PeripheralBaseIS0_Lj1E9ContainerI15IOPinPropertiesJ8GpioPortS1_8GpioMode9GpioStateEEJEEEPFS0_RKS8_SC_EPFS0_RKS9_SC_EEE7_M_headERSN_
                0x08004194        0x0 Debug/Drivers/GPIO/IOPin.o
                                  0x8 (size before relaxing)
 .ARM.exidx.text._ZNSt11_Tuple_implILj1EJPF16IOPinStatusCodesRK7GpioPinP14PeripheralBaseIS0_Lj1E9ContainerI15IOPinPropertiesJ8GpioPortS1_8GpioMode9GpioStateEEJEEEPFS0_RKS8_SC_EPFS0_RKS9_SC_EEE7_M_headERKSN_
                0x08004194        0x0 Debug/Drivers/GPIO/IOPin.o
                                  0x8 (size before relaxing)
 .ARM.exidx.text._ZNSt11_Tuple_implILj1EJPF16IOPinStatusCodesRK7GpioPinP14PeripheralBaseIS0_Lj1E9ContainerI15IOPinPropertiesJ8GpioPortS1_8GpioMode9GpioStateEEJEEEPFS0_RKS8_SC_EPFS0_RKS9_SC_EEE7_M_tailERSN_
                0x08004194        0x0 Debug/Drivers/GPIO/IOPin.o
                                  0x8 (size before relaxing)
 .ARM.exidx.text._ZNSt11_Tuple_implILj1EJPF16IOPinStatusCodesRK7GpioPinP14PeripheralBaseIS0_Lj1E9ContainerI15IOPinPropertiesJ8GpioPortS1_8GpioMode9GpioStateEEJEEEPFS0_RKS8_SC_EPFS0_RKS9_SC_EEE7_M_tailERKSN_
                0x08004194        0x0 Debug/Drivers/GPIO/IOPin.o
                                  0x8 (size before relaxing)
 .ARM.exidx.text._ZNSt11_Tuple_implILj2EJPF16IOPinStatusCodesRK8GpioModeP14PeripheralBaseIS0_Lj1E9ContainerI15IOPinPropertiesJ8GpioPort7GpioPinS1_9GpioStateEEJEEEPFS0_RKS9_SC_EEE9_M_assignIJSE_SI_EEEvRKS_ILj2EJDpT_EE
                0x08004194        0x0 Debug/Drivers/GPIO/IOPin.o
                                  0x8 (size before relaxing)
 .ARM.exidx.text._ZNSt11_Tuple_implILj3EJ9GpioStateEEC2Ev
                0x08004194        0x0 Debug/Drivers/GPIO/IOPin.o
                                  0x8 (size before relaxing)
 .ARM.exidx.text._ZNSt10_Head_baseILj2E8GpioModeLb0EEC2Ev
                0x08004194        0x0 Debug/Drivers/GPIO/IOPin.o
                                  0x8 (size before relaxing)
 .ARM.exidx.text._ZNSt11_Tuple_implILj2EJPF16IOPinStatusCodesRK8GpioModeP14PeripheralBaseIS0_Lj1E9ContainerI15IOPinPropertiesJ8GpioPort7GpioPinS1_9GpioStateEEJEEEPFS0_RKS9_SC_EEEC2Ev
                0x08004194        0x8 Debug/Drivers/GPIO/IOPin.o
 .ARM.exidx.text._ZNSt10_Head_baseILj1EPF16IOPinStatusCodesRK7GpioPinP14PeripheralBaseIS0_Lj1E9ContainerI15IOPinPropertiesJ8GpioPortS1_8GpioMode9GpioStateEEJEEELb0EEC2Ev
                0x0800419c        0x8 Debug/Drivers/GPIO/IOPin.o
 .ARM.exidx.text._ZNSt10_Head_baseILj1EPF16IOPinStatusCodesRK7GpioPinP14PeripheralBaseIS0_Lj1E9ContainerI15IOPinPropertiesJ8GpioPortS1_8GpioMode9GpioStateEEJEEELb0EE7_M_headERSF_
                0x080041a4        0x0 Debug/Drivers/GPIO/IOPin.o
                                  0x8 (size before relaxing)
 .ARM.exidx.text._ZNSt10_Head_baseILj1EPF16IOPinStatusCodesRK7GpioPinP14PeripheralBaseIS0_Lj1E9ContainerI15IOPinPropertiesJ8GpioPortS1_8GpioMode9GpioStateEEJEEELb0EE7_M_headERKSF_
                0x080041a4        0x0 Debug/Drivers/GPIO/IOPin.o
                                  0x8 (size before relaxing)
 .ARM.exidx.text._ZNSt11_Tuple_implILj2EJPF16IOPinStatusCodesRK8GpioModeP14PeripheralBaseIS0_Lj1E9ContainerI15IOPinPropertiesJ8GpioPort7GpioPinS1_9GpioStateEEJEEEPFS0_RKS9_SC_EEE7_M_headERSJ_
                0x080041a4        0x0 Debug/Drivers/GPIO/IOPin.o
                                  0x8 (size before relaxing)
 .ARM.exidx.text._ZNSt11_Tuple_implILj2EJPF16IOPinStatusCodesRK8GpioModeP14PeripheralBaseIS0_Lj1E9ContainerI15IOPinPropertiesJ8GpioPort7GpioPinS1_9GpioStateEEJEEEPFS0_RKS9_SC_EEE7_M_headERKSJ_
                0x080041a4        0x0 Debug/Drivers/GPIO/IOPin.o
                                  0x8 (size before relaxing)
 .ARM.exidx.text._ZNSt11_Tuple_implILj2EJPF16IOPinStatusCodesRK8GpioModeP14PeripheralBaseIS0_Lj1E9ContainerI15IOPinPropertiesJ8GpioPort7GpioPinS1_9GpioStateEEJEEEPFS0_RKS9_SC_EEE7_M_tailERSJ_
                0x080041a4        0x0 Debug/Drivers/GPIO/IOPin.o
                                  0x8 (size before relaxing)
 .ARM.exidx.text._ZNSt11_Tuple_implILj2EJPF16IOPinStatusCodesRK8GpioModeP14PeripheralBaseIS0_Lj1E9ContainerI15IOPinPropertiesJ8GpioPort7GpioPinS1_9GpioStateEEJEEEPFS0_RKS9_SC_EEE7_M_tailERKSJ_
                0x080041a4        0x0 Debug/Drivers/GPIO/IOPin.o
                                  0x8 (size before relaxing)
 .ARM.exidx.text._ZNSt11_Tuple_implILj3EJPF16IOPinStatusCodesRK9GpioStateP14PeripheralBaseIS0_Lj1E9ContainerI15IOPinPropertiesJ8GpioPort7GpioPin8GpioModeS1_EEJEEEEE9_M_assignISE_EEvRKS_ILj3EJT_EE
                0x080041a4        0x0 Debug/Drivers/GPIO/IOPin.o
                                  0x8 (size before relaxing)
 .ARM.exidx.text._ZNSt10_Head_baseILj3E9GpioStateLb0EEC2Ev
                0x080041a4        0x0 Debug/Drivers/GPIO/IOPin.o
                                  0x8 (size before relaxing)
 .ARM.exidx.text._ZNSt11_Tuple_implILj3EJPF16IOPinStatusCodesRK9GpioStateP14PeripheralBaseIS0_Lj1E9ContainerI15IOPinPropertiesJ8GpioPort7GpioPin8GpioModeS1_EEJEEEEEC2Ev
                0x080041a4        0x0 Debug/Drivers/GPIO/IOPin.o
                                  0x8 (size before relaxing)
 .ARM.exidx.text._ZNSt10_Head_baseILj2EPF16IOPinStatusCodesRK8GpioModeP14PeripheralBaseIS0_Lj1E9ContainerI15IOPinPropertiesJ8GpioPort7GpioPinS1_9GpioStateEEJEEELb0EEC2Ev
                0x080041a4        0x0 Debug/Drivers/GPIO/IOPin.o
                                  0x8 (size before relaxing)
 .ARM.exidx.text._ZNSt10_Head_baseILj2EPF16IOPinStatusCodesRK8GpioModeP14PeripheralBaseIS0_Lj1E9ContainerI15IOPinPropertiesJ8GpioPort7GpioPinS1_9GpioStateEEJEEELb0EE7_M_headERSF_
                0x080041a4        0x0 Debug/Drivers/GPIO/IOPin.o
                                  0x8 (size before relaxing)
 .ARM.exidx.text._ZNSt10_Head_baseILj2EPF16IOPinStatusCodesRK8GpioModeP14PeripheralBaseIS0_Lj1E9ContainerI15IOPinPropertiesJ8GpioPort7GpioPinS1_9GpioStateEEJEEELb0EE7_M_headERKSF_
                0x080041a4        0x0 Debug/Drivers/GPIO/IOPin.o
                                  0x8 (size before relaxing)
 .ARM.exidx.text._ZNSt11_Tuple_implILj3EJPF16IOPinStatusCodesRK9GpioStateP14PeripheralBaseIS0_Lj1E9ContainerI15IOPinPropertiesJ8GpioPort7GpioPin8GpioModeS1_EEJEEEEE7_M_headERSF_
                0x080041a4        0x0 Debug/Drivers/GPIO/IOPin.o
                                  0x8 (size before relaxing)
 .ARM.exidx.text._ZNSt11_Tuple_implILj3EJPF16IOPinStatusCodesRK9GpioStateP14PeripheralBaseIS0_Lj1E9ContainerI15IOPinPropertiesJ8GpioPort7GpioPin8GpioModeS1_EEJEEEEE7_M_headERKSF_
                0x080041a4        0x0 Debug/Drivers/GPIO/IOPin.o
                                  0x8 (size before relaxing)
 .ARM.exidx.text._ZNSt10_Head_baseILj3EPF16IOPinStatusCodesRK9GpioStateP14PeripheralBaseIS0_Lj1E9ContainerI15IOPinPropertiesJ8GpioPort7GpioPin8GpioModeS1_EEJEEELb0EEC2Ev
                0x080041a4        0x0 Debug/Drivers/GPIO/IOPin.o
                                  0x8 (size before relaxing)
 .ARM.exidx.text._ZNSt10_Head_baseILj3EPF16IOPinStatusCodesRK9GpioStateP14PeripheralBaseIS0_Lj1E9ContainerI15IOPinPropertiesJ8GpioPort7GpioPin8GpioModeS1_EEJEEELb0EE7_M_headERSF_
                0x080041a4        0x0 Debug/Drivers/GPIO/IOPin.o
                                  0x8 (size before relaxing)
 .ARM.exidx.text._ZNSt10_Head_baseILj3EPF16IOPinStatusCodesRK9GpioStateP14PeripheralBaseIS0_Lj1E9ContainerI15IOPinPropertiesJ8GpioPort7GpioPin8GpioModeS1_EEJEEELb0EE7_M_headERKSF_
                0x080041a4        0x0 Debug/Drivers/GPIO/IOPin.o
                                  0x8 (size before relaxing)
 .ARM.exidx.text._Z41__static_initialization_and_destruction_0ii
                0x080041a4        0x8 Debug/Drivers/GPIO/IOPin.o
 .ARM.exidx.text._ZN9ContainerI15IOPinPropertiesJ8GpioPort7GpioPin8GpioMode9GpioStateEE7getSizeEv
                0x080041ac        0x8 Debug/Drivers/GPIO/IOPin.o
 .ARM.exidx.text._ZN9ContainerI15IOPinPropertiesJPF16IOPinStatusCodesRK8GpioPortP14PeripheralBaseIS1_Lj1ES_IS0_JS2_7GpioPin8GpioMode9GpioStateEEJEEEPFS1_RKS6_SB_EPFS1_RKS7_SB_EPFS1_RKS8_SB_EEE7getSizeEv
                0x080041b4        0x0 Debug/Drivers/GPIO/IOPin.o
                                  0x8 (size before relaxing)
 .ARM.exidx.text._GLOBAL__sub_I__ZN5IOPinC2Ev
                0x080041b4        0x0 Debug/Drivers/GPIO/IOPin.o
                                  0x8 (size before relaxing)
 .ARM.exidx.text.main
                0x080041b4        0x0 Debug/Src/main.o
                                  0x8 (size before relaxing)
 .ARM.exidx.text.initialise_monitor_handles
                0x080041b4        0x0 Debug/Src/syscalls.o
                                  0x8 (size before relaxing)
 .ARM.exidx.text._getpid
                0x080041b4        0x0 Debug/Src/syscalls.o
                                  0x8 (size before relaxing)
 .ARM.exidx.text._kill
                0x080041b4        0x8 Debug/Src/syscalls.o
 .ARM.exidx.text._exit
                0x080041bc        0x8 Debug/Src/syscalls.o
 .ARM.exidx.text._read
                0x080041c4        0x8 Debug/Src/syscalls.o
 .ARM.exidx.text._write
                0x080041cc        0x8 Debug/Src/syscalls.o
 .ARM.exidx.text._close
                0x080041d4        0x8 Debug/Src/syscalls.o
 .ARM.exidx.text._fstat
                0x080041dc        0x0 Debug/Src/syscalls.o
                                  0x8 (size before relaxing)
 .ARM.exidx.text._isatty
                0x080041dc        0x0 Debug/Src/syscalls.o
                                  0x8 (size before relaxing)
 .ARM.exidx.text._lseek
                0x080041dc        0x0 Debug/Src/syscalls.o
                                  0x8 (size before relaxing)
 .ARM.exidx.text._open
                0x080041dc        0x0 Debug/Src/syscalls.o
                                  0x8 (size before relaxing)
 .ARM.exidx.text._wait
                0x080041dc        0x8 Debug/Src/syscalls.o
 .ARM.exidx.text._unlink
                0x080041e4        0x8 Debug/Src/syscalls.o
 .ARM.exidx.text._times
                0x080041ec        0x8 Debug/Src/syscalls.o
 .ARM.exidx.text._stat
                0x080041f4        0x0 Debug/Src/syscalls.o
                                  0x8 (size before relaxing)
 .ARM.exidx.text._link
                0x080041f4        0x8 Debug/Src/syscalls.o
 .ARM.exidx.text._fork
                0x080041fc        0x8 Debug/Src/syscalls.o
 .ARM.exidx.text._execve
                0x08004204        0x8 Debug/Src/syscalls.o
 .ARM.exidx.text._sbrk
                0x0800420c       0x10 Debug/Src/sysmem.o
                                  0x8 (size before relaxing)
 .ARM.exidx.text.selfrel_offset31
                0x0800421c        0x0 /usr/bin/../lib/gcc/arm-none-eabi/12.2.1/thumb/v7e-m+fp/hard/libgcc.a(unwind-arm.o)
                                  0x8 (size before relaxing)
 .ARM.exidx.text.search_EIT_table
                0x0800421c        0x0 /usr/bin/../lib/gcc/arm-none-eabi/12.2.1/thumb/v7e-m+fp/hard/libgcc.a(unwind-arm.o)
                                  0x8 (size before relaxing)
 .ARM.exidx.text.__gnu_unwind_get_pr_addr
                0x0800421c        0x0 /usr/bin/../lib/gcc/arm-none-eabi/12.2.1/thumb/v7e-m+fp/hard/libgcc.a(unwind-arm.o)
                                  0x8 (size before relaxing)
 .ARM.exidx.text.get_eit_entry
                0x0800421c        0x8 /usr/bin/../lib/gcc/arm-none-eabi/12.2.1/thumb/v7e-m+fp/hard/libgcc.a(unwind-arm.o)
 .ARM.exidx.text.restore_non_core_regs
                0x08004224        0x8 /usr/bin/../lib/gcc/arm-none-eabi/12.2.1/thumb/v7e-m+fp/hard/libgcc.a(unwind-arm.o)
 .ARM.exidx.text.__gnu_unwind_24bit.constprop.0
                0x0800422c        0x8 /usr/bin/../lib/gcc/arm-none-eabi/12.2.1/thumb/v7e-m+fp/hard/libgcc.a(unwind-arm.o)
 .ARM.exidx.text._Unwind_decode_typeinfo_ptr.constprop.0
                0x08004234        0x0 /usr/bin/../lib/gcc/arm-none-eabi/12.2.1/thumb/v7e-m+fp/hard/libgcc.a(unwind-arm.o)
                                  0x8 (size before relaxing)
 .ARM.exidx.text._Unwind_DebugHook
                0x08004234        0x0 /usr/bin/../lib/gcc/arm-none-eabi/12.2.1/thumb/v7e-m+fp/hard/libgcc.a(unwind-arm.o)
                                  0x8 (size before relaxing)
 .ARM.exidx.text.unwind_phase2
                0x08004234        0x8 /usr/bin/../lib/gcc/arm-none-eabi/12.2.1/thumb/v7e-m+fp/hard/libgcc.a(unwind-arm.o)
 .ARM.exidx.text.unwind_phase2_forced
                0x0800423c        0x8 /usr/bin/../lib/gcc/arm-none-eabi/12.2.1/thumb/v7e-m+fp/hard/libgcc.a(unwind-arm.o)
 .ARM.exidx.text._Unwind_GetCFA
                0x08004244        0x8 /usr/bin/../lib/gcc/arm-none-eabi/12.2.1/thumb/v7e-m+fp/hard/libgcc.a(unwind-arm.o)
 .ARM.exidx.text.__gnu_Unwind_RaiseException
                0x0800424c        0x8 /usr/bin/../lib/gcc/arm-none-eabi/12.2.1/thumb/v7e-m+fp/hard/libgcc.a(unwind-arm.o)
 .ARM.exidx.text.__gnu_Unwind_ForcedUnwind
                0x08004254        0x8 /usr/bin/../lib/gcc/arm-none-eabi/12.2.1/thumb/v7e-m+fp/hard/libgcc.a(unwind-arm.o)
 .ARM.exidx.text.__gnu_Unwind_Resume
                0x0800425c        0x8 /usr/bin/../lib/gcc/arm-none-eabi/12.2.1/thumb/v7e-m+fp/hard/libgcc.a(unwind-arm.o)
 .ARM.exidx.text.__gnu_Unwind_Resume_or_Rethrow
                0x08004264        0x8 /usr/bin/../lib/gcc/arm-none-eabi/12.2.1/thumb/v7e-m+fp/hard/libgcc.a(unwind-arm.o)
 .ARM.exidx.text._Unwind_Complete
                0x0800426c        0x0 /usr/bin/../lib/gcc/arm-none-eabi/12.2.1/thumb/v7e-m+fp/hard/libgcc.a(unwind-arm.o)
                                  0x8 (size before relaxing)
 .ARM.exidx.text._Unwind_DeleteException
                0x0800426c        0x0 /usr/bin/../lib/gcc/arm-none-eabi/12.2.1/thumb/v7e-m+fp/hard/libgcc.a(unwind-arm.o)
                                  0x8 (size before relaxing)
 .ARM.exidx.text._Unwind_VRS_Get
                0x0800426c        0x0 /usr/bin/../lib/gcc/arm-none-eabi/12.2.1/thumb/v7e-m+fp/hard/libgcc.a(unwind-arm.o)
                                  0x8 (size before relaxing)
 .ARM.exidx.text._Unwind_GetGR
                0x0800426c        0x0 /usr/bin/../lib/gcc/arm-none-eabi/12.2.1/thumb/v7e-m+fp/hard/libgcc.a(unwind-arm.o)
                                  0x8 (size before relaxing)
 .ARM.exidx.text._Unwind_VRS_Set
                0x0800426c        0x0 /usr/bin/../lib/gcc/arm-none-eabi/12.2.1/thumb/v7e-m+fp/hard/libgcc.a(unwind-arm.o)
                                  0x8 (size before relaxing)
 .ARM.exidx.text._Unwind_SetGR
                0x0800426c        0x0 /usr/bin/../lib/gcc/arm-none-eabi/12.2.1/thumb/v7e-m+fp/hard/libgcc.a(unwind-arm.o)
                                  0x8 (size before relaxing)
 .ARM.exidx.text.__gnu_Unwind_Backtrace
                0x0800426c        0x8 /usr/bin/../lib/gcc/arm-none-eabi/12.2.1/thumb/v7e-m+fp/hard/libgcc.a(unwind-arm.o)
 .ARM.exidx.text.__gnu_unwind_pr_common
                0x08004274        0x8 /usr/bin/../lib/gcc/arm-none-eabi/12.2.1/thumb/v7e-m+fp/hard/libgcc.a(unwind-arm.o)
 .ARM.exidx.text.__aeabi_unwind_cpp_pr0
                0x0800427c        0x8 /usr/bin/../lib/gcc/arm-none-eabi/12.2.1/thumb/v7e-m+fp/hard/libgcc.a(unwind-arm.o)
 .ARM.exidx.text.__aeabi_unwind_cpp_pr1
                0x08004284        0x0 /usr/bin/../lib/gcc/arm-none-eabi/12.2.1/thumb/v7e-m+fp/hard/libgcc.a(unwind-arm.o)
                                  0x8 (size before relaxing)
 .ARM.exidx.text.__aeabi_unwind_cpp_pr2
                0x08004284        0x0 /usr/bin/../lib/gcc/arm-none-eabi/12.2.1/thumb/v7e-m+fp/hard/libgcc.a(unwind-arm.o)
                                  0x8 (size before relaxing)
 .ARM.exidx.text._Unwind_VRS_Pop
                0x08004284        0x8 /usr/bin/../lib/gcc/arm-none-eabi/12.2.1/thumb/v7e-m+fp/hard/libgcc.a(unwind-arm.o)
 .ARM.exidx.text.next_unwind_byte
                0x0800428c        0x8 /usr/bin/../lib/gcc/arm-none-eabi/12.2.1/thumb/v7e-m+fp/hard/libgcc.a(pr-support.o)
 .ARM.exidx.text._Unwind_GetGR.constprop.0
                0x08004294        0x8 /usr/bin/../lib/gcc/arm-none-eabi/12.2.1/thumb/v7e-m+fp/hard/libgcc.a(pr-support.o)
 .ARM.exidx.text.unwind_UCB_from_context
                0x0800429c        0x8 /usr/bin/../lib/gcc/arm-none-eabi/12.2.1/thumb/v7e-m+fp/hard/libgcc.a(pr-support.o)
 .ARM.exidx.text.__gnu_unwind_execute
                0x080042a4        0x8 /usr/bin/../lib/gcc/arm-none-eabi/12.2.1/thumb/v7e-m+fp/hard/libgcc.a(pr-support.o)
 .ARM.exidx.text.__gnu_unwind_frame
                0x080042ac        0x8 /usr/bin/../lib/gcc/arm-none-eabi/12.2.1/thumb/v7e-m+fp/hard/libgcc.a(pr-support.o)
 .ARM.exidx.text._Unwind_GetRegionStart
                0x080042b4        0x8 /usr/bin/../lib/gcc/arm-none-eabi/12.2.1/thumb/v7e-m+fp/hard/libgcc.a(pr-support.o)
 .ARM.exidx.text._Unwind_GetLanguageSpecificData
                0x080042bc        0x8 /usr/bin/../lib/gcc/arm-none-eabi/12.2.1/thumb/v7e-m+fp/hard/libgcc.a(pr-support.o)
 .ARM.exidx.text.unlikely._Unwind_GetDataRelBase
                0x080042c4        0x8 /usr/bin/../lib/gcc/arm-none-eabi/12.2.1/thumb/v7e-m+fp/hard/libgcc.a(pr-support.o)
 .ARM.exidx.text.unlikely._Unwind_GetTextRelBase
                0x080042cc        0x0 /usr/bin/../lib/gcc/arm-none-eabi/12.2.1/thumb/v7e-m+fp/hard/libgcc.a(pr-support.o)
                                  0x8 (size before relaxing)
                0x080042cc                        __exidx_end = .
                0x080042cc                        . = ALIGN (0x4)

.rel.dyn        0x080042cc        0x0
 .rel.iplt      0x080042cc        0x0 /usr/bin/../lib/gcc/arm-none-eabi/12.2.1/thumb/v7e-m+fp/hard/crtbegin.o

.preinit_array  0x080042cc        0x0
                0x080042cc                        . = ALIGN (0x4)
                0x080042cc                        PROVIDE (__preinit_array_start = .)
 *(.preinit_array*)
                0x080042cc                        PROVIDE (__preinit_array_end = .)
                0x080042cc                        . = ALIGN (0x4)

.init_array     0x080042cc        0xc
                0x080042cc                        . = ALIGN (0x4)
                0x080042cc                        PROVIDE (__init_array_start = .)
 *(SORT_BY_NAME(.init_array.*))
 *(.init_array*)
 .init_array    0x080042cc        0x4 /usr/bin/../lib/gcc/arm-none-eabi/12.2.1/thumb/v7e-m+fp/hard/crtbegin.o
 .init_array    0x080042d0        0x4 Debug/Drivers/GPIO/IOPin.o
 .init_array    0x080042d4        0x4 /usr/bin/../lib/gcc/arm-none-eabi/12.2.1/../../../../arm-none-eabi/lib/thumb/v7e-m+fp/hard/libstdc++_nano.a(eh_globals.o)
                0x080042d8                        PROVIDE (__init_array_end = .)
                0x080042d8                        . = ALIGN (0x4)

.fini_array     0x080042d8        0x4
                0x080042d8                        . = ALIGN (0x4)
                [!provide]                        PROVIDE (__fini_array_start = .)
 *(SORT_BY_NAME(.fini_array.*))
 *(.fini_array*)
 .fini_array    0x080042d8        0x4 /usr/bin/../lib/gcc/arm-none-eabi/12.2.1/thumb/v7e-m+fp/hard/crtbegin.o
                [!provide]                        PROVIDE (__fini_array_end = .)
                0x080042dc                        . = ALIGN (0x4)
                0x080042dc                        _sidata = LOADADDR (.data)

.data           0x20000000       0x6c load address 0x080042dc
                0x20000000                        . = ALIGN (0x4)
                0x20000000                        _sdata = .
 *(.data)
 .data          0x20000000        0x0 /usr/bin/../lib/gcc/arm-none-eabi/12.2.1/thumb/v7e-m+fp/hard/crti.o
 .data          0x20000000        0x0 /usr/bin/../lib/gcc/arm-none-eabi/12.2.1/thumb/v7e-m+fp/hard/crtbegin.o
 .data          0x20000000        0x0 /usr/bin/../lib/gcc/arm-none-eabi/12.2.1/../../../../arm-none-eabi/lib/thumb/v7e-m+fp/hard/crt0.o
 .data          0x20000000        0x0 Debug/Drivers/USART/USART.o
 .data          0x20000000        0x0 Debug/Drivers/RCC/RCC.o
 .data          0x20000000        0x0 Debug/Drivers/RCC/PeripheralClocks.o
 .data          0x20000000        0x0 Debug/Drivers/GPIO/IOPin.o
 .data          0x20000000        0x0 Debug/Src/main.o
 .data          0x20000000        0x0 Debug/Src/syscalls.o
 .data          0x20000000        0x0 Debug/Src/sysmem.o
 .data          0x20000000        0x0 Debug/Startup/startup_stm32f411retx.o
 .data          0x20000000        0x0 /usr/bin/../lib/gcc/arm-none-eabi/12.2.1/../../../../arm-none-eabi/lib/thumb/v7e-m+fp/hard/libstdc++_nano.a(del_ops.o)
 .data          0x20000000        0x0 /usr/bin/../lib/gcc/arm-none-eabi/12.2.1/../../../../arm-none-eabi/lib/thumb/v7e-m+fp/hard/libstdc++_nano.a(eh_arm.o)
 .data          0x20000000        0x0 /usr/bin/../lib/gcc/arm-none-eabi/12.2.1/../../../../arm-none-eabi/lib/thumb/v7e-m+fp/hard/libstdc++_nano.a(eh_exception.o)
 .data          0x20000000        0x0 /usr/bin/../lib/gcc/arm-none-eabi/12.2.1/../../../../arm-none-eabi/lib/thumb/v7e-m+fp/hard/libstdc++_nano.a(eh_globals.o)
 .data          0x20000000        0x0 /usr/bin/../lib/gcc/arm-none-eabi/12.2.1/../../../../arm-none-eabi/lib/thumb/v7e-m+fp/hard/libstdc++_nano.a(eh_personality.o)
 .data          0x20000000        0x0 /usr/bin/../lib/gcc/arm-none-eabi/12.2.1/../../../../arm-none-eabi/lib/thumb/v7e-m+fp/hard/libstdc++_nano.a(eh_terminate.o)
 .data          0x20000000        0x0 /usr/bin/../lib/gcc/arm-none-eabi/12.2.1/../../../../arm-none-eabi/lib/thumb/v7e-m+fp/hard/libstdc++_nano.a(eh_unex_handler.o)
 .data          0x20000000        0x0 /usr/bin/../lib/gcc/arm-none-eabi/12.2.1/../../../../arm-none-eabi/lib/thumb/v7e-m+fp/hard/libstdc++_nano.a(new_op.o)
 .data          0x20000000        0x0 /usr/bin/../lib/gcc/arm-none-eabi/12.2.1/../../../../arm-none-eabi/lib/thumb/v7e-m+fp/hard/libstdc++_nano.a(si_class_type_info.o)
 .data          0x20000000        0x0 /usr/bin/../lib/gcc/arm-none-eabi/12.2.1/../../../../arm-none-eabi/lib/thumb/v7e-m+fp/hard/libstdc++_nano.a(tinfo.o)
 .data          0x20000000        0x0 /usr/bin/../lib/gcc/arm-none-eabi/12.2.1/../../../../arm-none-eabi/lib/thumb/v7e-m+fp/hard/libstdc++_nano.a(atexit_arm.o)
 .data          0x20000000        0x0 /usr/bin/../lib/gcc/arm-none-eabi/12.2.1/../../../../arm-none-eabi/lib/thumb/v7e-m+fp/hard/libstdc++_nano.a(class_type_info.o)
 .data          0x20000000        0x0 /usr/bin/../lib/gcc/arm-none-eabi/12.2.1/../../../../arm-none-eabi/lib/thumb/v7e-m+fp/hard/libstdc++_nano.a(del_op.o)
 .data          0x20000000        0x0 /usr/bin/../lib/gcc/arm-none-eabi/12.2.1/../../../../arm-none-eabi/lib/thumb/v7e-m+fp/hard/libstdc++_nano.a(eh_call.o)
 .data          0x20000000        0x0 /usr/bin/../lib/gcc/arm-none-eabi/12.2.1/../../../../arm-none-eabi/lib/thumb/v7e-m+fp/hard/libstdc++_nano.a(eh_catch.o)
 .data          0x20000000        0x0 /usr/bin/../lib/gcc/arm-none-eabi/12.2.1/../../../../arm-none-eabi/lib/thumb/v7e-m+fp/hard/libstdc++_nano.a(eh_term_handler.o)
 .data          0x20000000        0x0 /usr/bin/../lib/gcc/arm-none-eabi/12.2.1/../../../../arm-none-eabi/lib/thumb/v7e-m+fp/hard/libstdc++_nano.a(new_handler.o)
 .data          0x20000000        0x0 /usr/bin/../lib/gcc/arm-none-eabi/12.2.1/../../../../arm-none-eabi/lib/thumb/v7e-m+fp/hard/libc_nano.a(libc_a-exit.o)
 .data          0x20000000        0x0 /usr/bin/../lib/gcc/arm-none-eabi/12.2.1/../../../../arm-none-eabi/lib/thumb/v7e-m+fp/hard/libc_nano.a(libc_a-init.o)
 .data          0x20000000        0x0 /usr/bin/../lib/gcc/arm-none-eabi/12.2.1/../../../../arm-none-eabi/lib/thumb/v7e-m+fp/hard/libc_nano.a(libc_a-strcmp.o)
 .data          0x20000000        0x0 /usr/bin/../lib/gcc/arm-none-eabi/12.2.1/../../../../arm-none-eabi/lib/thumb/v7e-m+fp/hard/libc_nano.a(libc_a-malloc.o)
 .data          0x20000000        0x0 /usr/bin/../lib/gcc/arm-none-eabi/12.2.1/../../../../arm-none-eabi/lib/thumb/v7e-m+fp/hard/libc_nano.a(libc_a-mallocr.o)
 .data          0x20000000        0x0 /usr/bin/../lib/gcc/arm-none-eabi/12.2.1/../../../../arm-none-eabi/lib/thumb/v7e-m+fp/hard/libc_nano.a(libc_a-abort.o)
 .data          0x20000000        0x0 /usr/bin/../lib/gcc/arm-none-eabi/12.2.1/../../../../arm-none-eabi/lib/thumb/v7e-m+fp/hard/libc_nano.a(libc_a-cxa_atexit.o)
 .data          0x20000000        0x0 /usr/bin/../lib/gcc/arm-none-eabi/12.2.1/../../../../arm-none-eabi/lib/thumb/v7e-m+fp/hard/libc_nano.a(libc_a-findfp.o)
 .data          0x20000000        0x0 /usr/bin/../lib/gcc/arm-none-eabi/12.2.1/../../../../arm-none-eabi/lib/thumb/v7e-m+fp/hard/libc_nano.a(libc_a-stdio.o)
 .data          0x20000000        0x0 /usr/bin/../lib/gcc/arm-none-eabi/12.2.1/../../../../arm-none-eabi/lib/thumb/v7e-m+fp/hard/libc_nano.a(libc_a-mlock.o)
 .data          0x20000000        0x0 /usr/bin/../lib/gcc/arm-none-eabi/12.2.1/../../../../arm-none-eabi/lib/thumb/v7e-m+fp/hard/libc_nano.a(libc_a-on_exit_args.o)
 .data          0x20000000        0x0 /usr/bin/../lib/gcc/arm-none-eabi/12.2.1/../../../../arm-none-eabi/lib/thumb/v7e-m+fp/hard/libc_nano.a(libc_a-sbrkr.o)
 .data          0x20000000        0x0 /usr/bin/../lib/gcc/arm-none-eabi/12.2.1/../../../../arm-none-eabi/lib/thumb/v7e-m+fp/hard/libc_nano.a(libc_a-writer.o)
 .data          0x20000000        0x0 /usr/bin/../lib/gcc/arm-none-eabi/12.2.1/../../../../arm-none-eabi/lib/thumb/v7e-m+fp/hard/libc_nano.a(libc_a-errno.o)
 .data          0x20000000        0x0 /usr/bin/../lib/gcc/arm-none-eabi/12.2.1/../../../../arm-none-eabi/lib/thumb/v7e-m+fp/hard/libc_nano.a(libc_a-fwalk.o)
 .data          0x20000000        0x0 /usr/bin/../lib/gcc/arm-none-eabi/12.2.1/../../../../arm-none-eabi/lib/thumb/v7e-m+fp/hard/libc_nano.a(libc_a-memset.o)
 .data          0x20000000        0x0 /usr/bin/../lib/gcc/arm-none-eabi/12.2.1/../../../../arm-none-eabi/lib/thumb/v7e-m+fp/hard/libc_nano.a(libc_a-freer.o)
 .data          0x20000000        0x0 /usr/bin/../lib/gcc/arm-none-eabi/12.2.1/../../../../arm-none-eabi/lib/thumb/v7e-m+fp/hard/libc_nano.a(libc_a-lock.o)
 .data          0x20000000        0x0 /usr/bin/../lib/gcc/arm-none-eabi/12.2.1/../../../../arm-none-eabi/lib/thumb/v7e-m+fp/hard/libc_nano.a(libc_a-closer.o)
 .data          0x20000000        0x0 /usr/bin/../lib/gcc/arm-none-eabi/12.2.1/../../../../arm-none-eabi/lib/thumb/v7e-m+fp/hard/libc_nano.a(libc_a-reent.o)
 .data          0x20000000        0x0 /usr/bin/../lib/gcc/arm-none-eabi/12.2.1/../../../../arm-none-eabi/lib/thumb/v7e-m+fp/hard/libc_nano.a(libc_a-impure.o)
 .data          0x20000000        0x0 /usr/bin/../lib/gcc/arm-none-eabi/12.2.1/../../../../arm-none-eabi/lib/thumb/v7e-m+fp/hard/libc_nano.a(libc_a-fflush.o)
 .data          0x20000000        0x0 /usr/bin/../lib/gcc/arm-none-eabi/12.2.1/../../../../arm-none-eabi/lib/thumb/v7e-m+fp/hard/libc_nano.a(libc_a-signal.o)
 .data          0x20000000        0x0 /usr/bin/../lib/gcc/arm-none-eabi/12.2.1/../../../../arm-none-eabi/lib/thumb/v7e-m+fp/hard/libc_nano.a(libc_a-lseekr.o)
 .data          0x20000000        0x0 /usr/bin/../lib/gcc/arm-none-eabi/12.2.1/../../../../arm-none-eabi/lib/thumb/v7e-m+fp/hard/libc_nano.a(libc_a-readr.o)
 .data          0x20000000        0x0 /usr/bin/../lib/gcc/arm-none-eabi/12.2.1/../../../../arm-none-eabi/lib/thumb/v7e-m+fp/hard/libc_nano.a(libc_a-signalr.o)
 .data          0x20000000        0x0 /usr/bin/../lib/gcc/arm-none-eabi/12.2.1/thumb/v7e-m+fp/hard/libgcc.a(unwind-arm.o)
 .data          0x20000000        0x0 /usr/bin/../lib/gcc/arm-none-eabi/12.2.1/thumb/v7e-m+fp/hard/libgcc.a(libunwind.o)
 .data          0x20000000        0x0 /usr/bin/../lib/gcc/arm-none-eabi/12.2.1/thumb/v7e-m+fp/hard/libgcc.a(pr-support.o)
 .data          0x20000000        0x0 /usr/bin/../lib/gcc/arm-none-eabi/12.2.1/../../../../arm-none-eabi/lib/thumb/v7e-m+fp/hard/libc_nano.a(libc_a-memcpy-stub.o)
 .data          0x20000000        0x0 /usr/bin/../lib/gcc/arm-none-eabi/12.2.1/thumb/v7e-m+fp/hard/crtend.o
 .data          0x20000000        0x0 /usr/bin/../lib/gcc/arm-none-eabi/12.2.1/thumb/v7e-m+fp/hard/crtn.o
 *(.data*)
 .data.__dso_handle
                0x20000000        0x4 /usr/bin/../lib/gcc/arm-none-eabi/12.2.1/thumb/v7e-m+fp/hard/crtbegin.o
                0x20000000                __dso_handle
 .data.environ  0x20000004        0x4 Debug/Src/syscalls.o
                0x20000004                environ
 .data._ZN10__cxxabiv120__unexpected_handlerE
                0x20000008        0x4 /usr/bin/../lib/gcc/arm-none-eabi/12.2.1/../../../../arm-none-eabi/lib/thumb/v7e-m+fp/hard/libstdc++_nano.a(eh_unex_handler.o)
                0x20000008                __cxxabiv1::__unexpected_handler
 .data._ZN10__cxxabiv119__terminate_handlerE
                0x2000000c        0x4 /usr/bin/../lib/gcc/arm-none-eabi/12.2.1/../../../../arm-none-eabi/lib/thumb/v7e-m+fp/hard/libstdc++_nano.a(eh_term_handler.o)
                0x2000000c                __cxxabiv1::__terminate_handler
 .data.__sglue  0x20000010        0xc /usr/bin/../lib/gcc/arm-none-eabi/12.2.1/../../../../arm-none-eabi/lib/thumb/v7e-m+fp/hard/libc_nano.a(libc_a-findfp.o)
                0x20000010                __sglue
 .data._impure_ptr
                0x2000001c        0x4 /usr/bin/../lib/gcc/arm-none-eabi/12.2.1/../../../../arm-none-eabi/lib/thumb/v7e-m+fp/hard/libc_nano.a(libc_a-impure.o)
                0x2000001c                _impure_ptr
 .data._impure_data
                0x20000020       0x4c /usr/bin/../lib/gcc/arm-none-eabi/12.2.1/../../../../arm-none-eabi/lib/thumb/v7e-m+fp/hard/libc_nano.a(libc_a-impure.o)
                0x20000020                _impure_data
 *(.RamFunc)
 *(.RamFunc*)
                0x2000006c                        . = ALIGN (0x4)
                0x2000006c                        _edata = .

.tm_clone_table
                0x2000006c        0x0 load address 0x08004348
 .tm_clone_table
                0x2000006c        0x0 /usr/bin/../lib/gcc/arm-none-eabi/12.2.1/thumb/v7e-m+fp/hard/crtbegin.o
 .tm_clone_table
                0x2000006c        0x0 /usr/bin/../lib/gcc/arm-none-eabi/12.2.1/thumb/v7e-m+fp/hard/crtend.o

.igot.plt       0x2000006c        0x0 load address 0x08004348
 .igot.plt      0x2000006c        0x0 /usr/bin/../lib/gcc/arm-none-eabi/12.2.1/thumb/v7e-m+fp/hard/crtbegin.o
                0x2000006c                        . = ALIGN (0x4)

.bss            0x2000006c      0x298 load address 0x08004348
                0x2000006c                        _sbss = .
                0x2000006c                        __bss_start__ = _sbss
 *(.bss)
 .bss           0x2000006c        0x0 /usr/bin/../lib/gcc/arm-none-eabi/12.2.1/thumb/v7e-m+fp/hard/crti.o
 .bss           0x2000006c        0x0 /usr/bin/../lib/gcc/arm-none-eabi/12.2.1/thumb/v7e-m+fp/hard/crtbegin.o
 .bss           0x2000006c        0x0 /usr/bin/../lib/gcc/arm-none-eabi/12.2.1/../../../../arm-none-eabi/lib/thumb/v7e-m+fp/hard/crt0.o
 .bss           0x2000006c        0x0 Debug/Drivers/USART/USART.o
 .bss           0x2000006c        0x0 Debug/Drivers/RCC/RCC.o
 .bss           0x2000006c        0x0 Debug/Drivers/RCC/PeripheralClocks.o
 .bss           0x2000006c        0x0 Debug/Drivers/GPIO/IOPin.o
 .bss           0x2000006c        0x0 Debug/Src/main.o
 .bss           0x2000006c        0x0 Debug/Src/syscalls.o
 .bss           0x2000006c        0x0 Debug/Src/sysmem.o
 .bss           0x2000006c        0x0 Debug/Startup/startup_stm32f411retx.o
 .bss           0x2000006c        0x0 /usr/bin/../lib/gcc/arm-none-eabi/12.2.1/../../../../arm-none-eabi/lib/thumb/v7e-m+fp/hard/libstdc++_nano.a(del_ops.o)
 .bss           0x2000006c        0x0 /usr/bin/../lib/gcc/arm-none-eabi/12.2.1/../../../../arm-none-eabi/lib/thumb/v7e-m+fp/hard/libstdc++_nano.a(eh_arm.o)
 .bss           0x2000006c        0x0 /usr/bin/../lib/gcc/arm-none-eabi/12.2.1/../../../../arm-none-eabi/lib/thumb/v7e-m+fp/hard/libstdc++_nano.a(eh_exception.o)
 .bss           0x2000006c        0x0 /usr/bin/../lib/gcc/arm-none-eabi/12.2.1/../../../../arm-none-eabi/lib/thumb/v7e-m+fp/hard/libstdc++_nano.a(eh_globals.o)
 .bss           0x2000006c        0x0 /usr/bin/../lib/gcc/arm-none-eabi/12.2.1/../../../../arm-none-eabi/lib/thumb/v7e-m+fp/hard/libstdc++_nano.a(eh_personality.o)
 .bss           0x2000006c        0x0 /usr/bin/../lib/gcc/arm-none-eabi/12.2.1/../../../../arm-none-eabi/lib/thumb/v7e-m+fp/hard/libstdc++_nano.a(eh_terminate.o)
 .bss           0x2000006c        0x0 /usr/bin/../lib/gcc/arm-none-eabi/12.2.1/../../../../arm-none-eabi/lib/thumb/v7e-m+fp/hard/libstdc++_nano.a(eh_unex_handler.o)
 .bss           0x2000006c        0x0 /usr/bin/../lib/gcc/arm-none-eabi/12.2.1/../../../../arm-none-eabi/lib/thumb/v7e-m+fp/hard/libstdc++_nano.a(new_op.o)
 .bss           0x2000006c        0x0 /usr/bin/../lib/gcc/arm-none-eabi/12.2.1/../../../../arm-none-eabi/lib/thumb/v7e-m+fp/hard/libstdc++_nano.a(si_class_type_info.o)
 .bss           0x2000006c        0x0 /usr/bin/../lib/gcc/arm-none-eabi/12.2.1/../../../../arm-none-eabi/lib/thumb/v7e-m+fp/hard/libstdc++_nano.a(tinfo.o)
 .bss           0x2000006c        0x0 /usr/bin/../lib/gcc/arm-none-eabi/12.2.1/../../../../arm-none-eabi/lib/thumb/v7e-m+fp/hard/libstdc++_nano.a(atexit_arm.o)
 .bss           0x2000006c        0x0 /usr/bin/../lib/gcc/arm-none-eabi/12.2.1/../../../../arm-none-eabi/lib/thumb/v7e-m+fp/hard/libstdc++_nano.a(class_type_info.o)
 .bss           0x2000006c        0x0 /usr/bin/../lib/gcc/arm-none-eabi/12.2.1/../../../../arm-none-eabi/lib/thumb/v7e-m+fp/hard/libstdc++_nano.a(del_op.o)
 .bss           0x2000006c        0x0 /usr/bin/../lib/gcc/arm-none-eabi/12.2.1/../../../../arm-none-eabi/lib/thumb/v7e-m+fp/hard/libstdc++_nano.a(eh_call.o)
 .bss           0x2000006c        0x0 /usr/bin/../lib/gcc/arm-none-eabi/12.2.1/../../../../arm-none-eabi/lib/thumb/v7e-m+fp/hard/libstdc++_nano.a(eh_catch.o)
 .bss           0x2000006c        0x0 /usr/bin/../lib/gcc/arm-none-eabi/12.2.1/../../../../arm-none-eabi/lib/thumb/v7e-m+fp/hard/libstdc++_nano.a(eh_term_handler.o)
 .bss           0x2000006c        0x0 /usr/bin/../lib/gcc/arm-none-eabi/12.2.1/../../../../arm-none-eabi/lib/thumb/v7e-m+fp/hard/libstdc++_nano.a(new_handler.o)
 .bss           0x2000006c        0x0 /usr/bin/../lib/gcc/arm-none-eabi/12.2.1/../../../../arm-none-eabi/lib/thumb/v7e-m+fp/hard/libc_nano.a(libc_a-exit.o)
 .bss           0x2000006c        0x0 /usr/bin/../lib/gcc/arm-none-eabi/12.2.1/../../../../arm-none-eabi/lib/thumb/v7e-m+fp/hard/libc_nano.a(libc_a-init.o)
 .bss           0x2000006c        0x0 /usr/bin/../lib/gcc/arm-none-eabi/12.2.1/../../../../arm-none-eabi/lib/thumb/v7e-m+fp/hard/libc_nano.a(libc_a-strcmp.o)
 .bss           0x2000006c        0x0 /usr/bin/../lib/gcc/arm-none-eabi/12.2.1/../../../../arm-none-eabi/lib/thumb/v7e-m+fp/hard/libc_nano.a(libc_a-malloc.o)
 .bss           0x2000006c        0x0 /usr/bin/../lib/gcc/arm-none-eabi/12.2.1/../../../../arm-none-eabi/lib/thumb/v7e-m+fp/hard/libc_nano.a(libc_a-mallocr.o)
 .bss           0x2000006c        0x0 /usr/bin/../lib/gcc/arm-none-eabi/12.2.1/../../../../arm-none-eabi/lib/thumb/v7e-m+fp/hard/libc_nano.a(libc_a-abort.o)
 .bss           0x2000006c        0x0 /usr/bin/../lib/gcc/arm-none-eabi/12.2.1/../../../../arm-none-eabi/lib/thumb/v7e-m+fp/hard/libc_nano.a(libc_a-cxa_atexit.o)
 .bss           0x2000006c        0x0 /usr/bin/../lib/gcc/arm-none-eabi/12.2.1/../../../../arm-none-eabi/lib/thumb/v7e-m+fp/hard/libc_nano.a(libc_a-findfp.o)
 .bss           0x2000006c        0x0 /usr/bin/../lib/gcc/arm-none-eabi/12.2.1/../../../../arm-none-eabi/lib/thumb/v7e-m+fp/hard/libc_nano.a(libc_a-stdio.o)
 .bss           0x2000006c        0x0 /usr/bin/../lib/gcc/arm-none-eabi/12.2.1/../../../../arm-none-eabi/lib/thumb/v7e-m+fp/hard/libc_nano.a(libc_a-mlock.o)
 .bss           0x2000006c        0x0 /usr/bin/../lib/gcc/arm-none-eabi/12.2.1/../../../../arm-none-eabi/lib/thumb/v7e-m+fp/hard/libc_nano.a(libc_a-on_exit_args.o)
 .bss           0x2000006c        0x0 /usr/bin/../lib/gcc/arm-none-eabi/12.2.1/../../../../arm-none-eabi/lib/thumb/v7e-m+fp/hard/libc_nano.a(libc_a-sbrkr.o)
 .bss           0x2000006c        0x0 /usr/bin/../lib/gcc/arm-none-eabi/12.2.1/../../../../arm-none-eabi/lib/thumb/v7e-m+fp/hard/libc_nano.a(libc_a-writer.o)
 .bss           0x2000006c        0x0 /usr/bin/../lib/gcc/arm-none-eabi/12.2.1/../../../../arm-none-eabi/lib/thumb/v7e-m+fp/hard/libc_nano.a(libc_a-errno.o)
 .bss           0x2000006c        0x0 /usr/bin/../lib/gcc/arm-none-eabi/12.2.1/../../../../arm-none-eabi/lib/thumb/v7e-m+fp/hard/libc_nano.a(libc_a-fwalk.o)
 .bss           0x2000006c        0x0 /usr/bin/../lib/gcc/arm-none-eabi/12.2.1/../../../../arm-none-eabi/lib/thumb/v7e-m+fp/hard/libc_nano.a(libc_a-memset.o)
 .bss           0x2000006c        0x0 /usr/bin/../lib/gcc/arm-none-eabi/12.2.1/../../../../arm-none-eabi/lib/thumb/v7e-m+fp/hard/libc_nano.a(libc_a-freer.o)
 .bss           0x2000006c        0x0 /usr/bin/../lib/gcc/arm-none-eabi/12.2.1/../../../../arm-none-eabi/lib/thumb/v7e-m+fp/hard/libc_nano.a(libc_a-lock.o)
 .bss           0x2000006c        0x0 /usr/bin/../lib/gcc/arm-none-eabi/12.2.1/../../../../arm-none-eabi/lib/thumb/v7e-m+fp/hard/libc_nano.a(libc_a-closer.o)
 .bss           0x2000006c        0x0 /usr/bin/../lib/gcc/arm-none-eabi/12.2.1/../../../../arm-none-eabi/lib/thumb/v7e-m+fp/hard/libc_nano.a(libc_a-reent.o)
 .bss           0x2000006c        0x0 /usr/bin/../lib/gcc/arm-none-eabi/12.2.1/../../../../arm-none-eabi/lib/thumb/v7e-m+fp/hard/libc_nano.a(libc_a-impure.o)
 .bss           0x2000006c        0x0 /usr/bin/../lib/gcc/arm-none-eabi/12.2.1/../../../../arm-none-eabi/lib/thumb/v7e-m+fp/hard/libc_nano.a(libc_a-fflush.o)
 .bss           0x2000006c        0x0 /usr/bin/../lib/gcc/arm-none-eabi/12.2.1/../../../../arm-none-eabi/lib/thumb/v7e-m+fp/hard/libc_nano.a(libc_a-signal.o)
 .bss           0x2000006c        0x0 /usr/bin/../lib/gcc/arm-none-eabi/12.2.1/../../../../arm-none-eabi/lib/thumb/v7e-m+fp/hard/libc_nano.a(libc_a-lseekr.o)
 .bss           0x2000006c        0x0 /usr/bin/../lib/gcc/arm-none-eabi/12.2.1/../../../../arm-none-eabi/lib/thumb/v7e-m+fp/hard/libc_nano.a(libc_a-readr.o)
 .bss           0x2000006c        0x0 /usr/bin/../lib/gcc/arm-none-eabi/12.2.1/../../../../arm-none-eabi/lib/thumb/v7e-m+fp/hard/libc_nano.a(libc_a-signalr.o)
 .bss           0x2000006c        0x0 /usr/bin/../lib/gcc/arm-none-eabi/12.2.1/thumb/v7e-m+fp/hard/libgcc.a(unwind-arm.o)
 .bss           0x2000006c        0x0 /usr/bin/../lib/gcc/arm-none-eabi/12.2.1/thumb/v7e-m+fp/hard/libgcc.a(libunwind.o)
 .bss           0x2000006c        0x0 /usr/bin/../lib/gcc/arm-none-eabi/12.2.1/thumb/v7e-m+fp/hard/libgcc.a(pr-support.o)
 .bss           0x2000006c        0x0 /usr/bin/../lib/gcc/arm-none-eabi/12.2.1/../../../../arm-none-eabi/lib/thumb/v7e-m+fp/hard/libc_nano.a(libc_a-memcpy-stub.o)
 .bss           0x2000006c        0x0 /usr/bin/../lib/gcc/arm-none-eabi/12.2.1/thumb/v7e-m+fp/hard/crtend.o
 .bss           0x2000006c        0x0 /usr/bin/../lib/gcc/arm-none-eabi/12.2.1/thumb/v7e-m+fp/hard/crtn.o
 *(.bss*)
 .bss.completed.1
                0x2000006c        0x1 /usr/bin/../lib/gcc/arm-none-eabi/12.2.1/thumb/v7e-m+fp/hard/crtbegin.o
 *fill*         0x2000006d        0x3 
 .bss.object.0  0x20000070       0x18 /usr/bin/../lib/gcc/arm-none-eabi/12.2.1/thumb/v7e-m+fp/hard/crtbegin.o
 .bss._ZN14PeripheralBaseI16IOPinStatusCodesLj1E9ContainerI15IOPinPropertiesJ8GpioPort7GpioPin8GpioMode9GpioStateEEJEE9functionsE
                0x20000088        0x4 Debug/Drivers/GPIO/IOPin.o
                0x20000088                PeripheralBase<IOPinStatusCodes, 1u, Container<IOPinProperties, GpioPort, GpioPin, GpioMode, GpioState>>::functions
 .bss._ZGVN14PeripheralBaseI16IOPinStatusCodesLj1E9ContainerI15IOPinPropertiesJ8GpioPort7GpioPin8GpioMode9GpioStateEEJEE9functionsE
                0x2000008c        0x4 Debug/Drivers/GPIO/IOPin.o
                0x2000008c                guard variable for PeripheralBase<IOPinStatusCodes, 1u, Container<IOPinProperties, GpioPort, GpioPin, GpioMode, GpioState>>::functions
 .bss._ZN14PeripheralBaseI16IOPinStatusCodesLj1E9ContainerI15IOPinPropertiesJ8GpioPort7GpioPin8GpioMode9GpioStateEEJEE13staticManagerE
                0x20000090        0x4 Debug/Drivers/GPIO/IOPin.o
                0x20000090                PeripheralBase<IOPinStatusCodes, 1u, Container<IOPinProperties, GpioPort, GpioPin, GpioMode, GpioState>>::staticManager
 .bss.__env     0x20000094        0x4 Debug/Src/syscalls.o
                0x20000094                __env
 .bss.__sbrk_heap_end
                0x20000098        0x4 Debug/Src/sysmem.o
 .bss._ZN12_GLOBAL__N_110eh_globalsE
                0x2000009c        0xc /usr/bin/../lib/gcc/arm-none-eabi/12.2.1/../../../../arm-none-eabi/lib/thumb/v7e-m+fp/hard/libstdc++_nano.a(eh_globals.o)
 .bss._ZN12_GLOBAL__N_113__new_handlerE
                0x200000a8        0x4 /usr/bin/../lib/gcc/arm-none-eabi/12.2.1/../../../../arm-none-eabi/lib/thumb/v7e-m+fp/hard/libstdc++_nano.a(new_handler.o)
 .bss.__malloc_sbrk_start
                0x200000ac        0x4 /usr/bin/../lib/gcc/arm-none-eabi/12.2.1/../../../../arm-none-eabi/lib/thumb/v7e-m+fp/hard/libc_nano.a(libc_a-mallocr.o)
                0x200000ac                __malloc_sbrk_start
 .bss.__malloc_free_list
                0x200000b0        0x4 /usr/bin/../lib/gcc/arm-none-eabi/12.2.1/../../../../arm-none-eabi/lib/thumb/v7e-m+fp/hard/libc_nano.a(libc_a-mallocr.o)
                0x200000b0                __malloc_free_list
 .bss.__sf      0x200000b4      0x138 /usr/bin/../lib/gcc/arm-none-eabi/12.2.1/../../../../arm-none-eabi/lib/thumb/v7e-m+fp/hard/libc_nano.a(libc_a-findfp.o)
                0x200000b4                __sf
 .bss.__stdio_exit_handler
                0x200001ec        0x4 /usr/bin/../lib/gcc/arm-none-eabi/12.2.1/../../../../arm-none-eabi/lib/thumb/v7e-m+fp/hard/libc_nano.a(libc_a-findfp.o)
                0x200001ec                __stdio_exit_handler
 .bss._on_exit_args_instance
                0x200001f0      0x108 /usr/bin/../lib/gcc/arm-none-eabi/12.2.1/../../../../arm-none-eabi/lib/thumb/v7e-m+fp/hard/libc_nano.a(libc_a-on_exit_args.o)
 .bss.__lock___arc4random_mutex
                0x200002f8        0x1 /usr/bin/../lib/gcc/arm-none-eabi/12.2.1/../../../../arm-none-eabi/lib/thumb/v7e-m+fp/hard/libc_nano.a(libc_a-lock.o)
                0x200002f8                __lock___arc4random_mutex
 .bss.__lock___dd_hash_mutex
                0x200002f9        0x1 /usr/bin/../lib/gcc/arm-none-eabi/12.2.1/../../../../arm-none-eabi/lib/thumb/v7e-m+fp/hard/libc_nano.a(libc_a-lock.o)
                0x200002f9                __lock___dd_hash_mutex
 .bss.__lock___tz_mutex
                0x200002fa        0x1 /usr/bin/../lib/gcc/arm-none-eabi/12.2.1/../../../../arm-none-eabi/lib/thumb/v7e-m+fp/hard/libc_nano.a(libc_a-lock.o)
                0x200002fa                __lock___tz_mutex
 .bss.__lock___env_recursive_mutex
                0x200002fb        0x1 /usr/bin/../lib/gcc/arm-none-eabi/12.2.1/../../../../arm-none-eabi/lib/thumb/v7e-m+fp/hard/libc_nano.a(libc_a-lock.o)
                0x200002fb                __lock___env_recursive_mutex
 .bss.__lock___malloc_recursive_mutex
                0x200002fc        0x1 /usr/bin/../lib/gcc/arm-none-eabi/12.2.1/../../../../arm-none-eabi/lib/thumb/v7e-m+fp/hard/libc_nano.a(libc_a-lock.o)
                0x200002fc                __lock___malloc_recursive_mutex
 .bss.__lock___at_quick_exit_mutex
                0x200002fd        0x1 /usr/bin/../lib/gcc/arm-none-eabi/12.2.1/../../../../arm-none-eabi/lib/thumb/v7e-m+fp/hard/libc_nano.a(libc_a-lock.o)
                0x200002fd                __lock___at_quick_exit_mutex
 .bss.__lock___atexit_recursive_mutex
                0x200002fe        0x1 /usr/bin/../lib/gcc/arm-none-eabi/12.2.1/../../../../arm-none-eabi/lib/thumb/v7e-m+fp/hard/libc_nano.a(libc_a-lock.o)
                0x200002fe                __lock___atexit_recursive_mutex
 .bss.__lock___sfp_recursive_mutex
                0x200002ff        0x1 /usr/bin/../lib/gcc/arm-none-eabi/12.2.1/../../../../arm-none-eabi/lib/thumb/v7e-m+fp/hard/libc_nano.a(libc_a-lock.o)
                0x200002ff                __lock___sfp_recursive_mutex
 .bss.errno     0x20000300        0x4 /usr/bin/../lib/gcc/arm-none-eabi/12.2.1/../../../../arm-none-eabi/lib/thumb/v7e-m+fp/hard/libc_nano.a(libc_a-reent.o)
                0x20000300                errno
 *(COMMON)
                0x20000304                        . = ALIGN (0x4)
                0x20000304                        _ebss = .
                0x20000304                        __bss_end__ = _ebss

._user_heap_stack
                0x20000304      0x604 load address 0x08004348
                0x20000308                        . = ALIGN (0x8)
 *fill*         0x20000304        0x4 
                [!provide]                        PROVIDE (end = .)
                0x20000308                        PROVIDE (_end = .)
                0x20000508                        . = (. + _Min_Heap_Size)
 *fill*         0x20000308      0x200 
                0x20000908                        . = (. + _Min_Stack_Size)
 *fill*         0x20000508      0x400 
                0x20000908                        . = ALIGN (0x8)

/DISCARD/
 libc.a(*)
 libm.a(*)
 libgcc.a(*)

.ARM.attributes
                0x00000000       0x30
 *(.ARM.attributes)
 .ARM.attributes
                0x00000000       0x22 /usr/bin/../lib/gcc/arm-none-eabi/12.2.1/thumb/v7e-m+fp/hard/crti.o
 .ARM.attributes
                0x00000022       0x34 /usr/bin/../lib/gcc/arm-none-eabi/12.2.1/thumb/v7e-m+fp/hard/crtbegin.o
 .ARM.attributes
                0x00000056       0x20 /usr/bin/../lib/gcc/arm-none-eabi/12.2.1/../../../../arm-none-eabi/lib/thumb/v7e-m+fp/hard/crt0.o
 .ARM.attributes
                0x00000076       0x34 Debug/Drivers/USART/USART.o
 .ARM.attributes
                0x000000aa       0x34 Debug/Drivers/RCC/RCC.o
 .ARM.attributes
                0x000000de       0x34 Debug/Drivers/RCC/PeripheralClocks.o
 .ARM.attributes
                0x00000112       0x34 Debug/Drivers/GPIO/IOPin.o
 .ARM.attributes
                0x00000146       0x34 Debug/Src/main.o
 .ARM.attributes
                0x0000017a       0x34 Debug/Src/syscalls.o
 .ARM.attributes
                0x000001ae       0x34 Debug/Src/sysmem.o
 .ARM.attributes
                0x000001e2       0x21 Debug/Startup/startup_stm32f411retx.o
 .ARM.attributes
                0x00000203       0x34 /usr/bin/../lib/gcc/arm-none-eabi/12.2.1/../../../../arm-none-eabi/lib/thumb/v7e-m+fp/hard/libstdc++_nano.a(del_ops.o)
 .ARM.attributes
                0x00000237       0x34 /usr/bin/../lib/gcc/arm-none-eabi/12.2.1/../../../../arm-none-eabi/lib/thumb/v7e-m+fp/hard/libstdc++_nano.a(eh_arm.o)
 .ARM.attributes
                0x0000026b       0x34 /usr/bin/../lib/gcc/arm-none-eabi/12.2.1/../../../../arm-none-eabi/lib/thumb/v7e-m+fp/hard/libstdc++_nano.a(eh_exception.o)
 .ARM.attributes
                0x0000029f       0x34 /usr/bin/../lib/gcc/arm-none-eabi/12.2.1/../../../../arm-none-eabi/lib/thumb/v7e-m+fp/hard/libstdc++_nano.a(eh_globals.o)
 .ARM.attributes
                0x000002d3       0x34 /usr/bin/../lib/gcc/arm-none-eabi/12.2.1/../../../../arm-none-eabi/lib/thumb/v7e-m+fp/hard/libstdc++_nano.a(eh_personality.o)
 .ARM.attributes
                0x00000307       0x34 /usr/bin/../lib/gcc/arm-none-eabi/12.2.1/../../../../arm-none-eabi/lib/thumb/v7e-m+fp/hard/libstdc++_nano.a(eh_terminate.o)
 .ARM.attributes
                0x0000033b       0x34 /usr/bin/../lib/gcc/arm-none-eabi/12.2.1/../../../../arm-none-eabi/lib/thumb/v7e-m+fp/hard/libstdc++_nano.a(eh_unex_handler.o)
 .ARM.attributes
                0x0000036f       0x34 /usr/bin/../lib/gcc/arm-none-eabi/12.2.1/../../../../arm-none-eabi/lib/thumb/v7e-m+fp/hard/libstdc++_nano.a(new_op.o)
 .ARM.attributes
                0x000003a3       0x34 /usr/bin/../lib/gcc/arm-none-eabi/12.2.1/../../../../arm-none-eabi/lib/thumb/v7e-m+fp/hard/libstdc++_nano.a(si_class_type_info.o)
 .ARM.attributes
                0x000003d7       0x34 /usr/bin/../lib/gcc/arm-none-eabi/12.2.1/../../../../arm-none-eabi/lib/thumb/v7e-m+fp/hard/libstdc++_nano.a(tinfo.o)
 .ARM.attributes
                0x0000040b       0x34 /usr/bin/../lib/gcc/arm-none-eabi/12.2.1/../../../../arm-none-eabi/lib/thumb/v7e-m+fp/hard/libstdc++_nano.a(atexit_arm.o)
 .ARM.attributes
                0x0000043f       0x34 /usr/bin/../lib/gcc/arm-none-eabi/12.2.1/../../../../arm-none-eabi/lib/thumb/v7e-m+fp/hard/libstdc++_nano.a(class_type_info.o)
 .ARM.attributes
                0x00000473       0x34 /usr/bin/../lib/gcc/arm-none-eabi/12.2.1/../../../../arm-none-eabi/lib/thumb/v7e-m+fp/hard/libstdc++_nano.a(del_op.o)
 .ARM.attributes
                0x000004a7       0x34 /usr/bin/../lib/gcc/arm-none-eabi/12.2.1/../../../../arm-none-eabi/lib/thumb/v7e-m+fp/hard/libstdc++_nano.a(eh_call.o)
 .ARM.attributes
                0x000004db       0x34 /usr/bin/../lib/gcc/arm-none-eabi/12.2.1/../../../../arm-none-eabi/lib/thumb/v7e-m+fp/hard/libstdc++_nano.a(eh_catch.o)
 .ARM.attributes
                0x0000050f       0x34 /usr/bin/../lib/gcc/arm-none-eabi/12.2.1/../../../../arm-none-eabi/lib/thumb/v7e-m+fp/hard/libstdc++_nano.a(eh_term_handler.o)
 .ARM.attributes
                0x00000543       0x34 /usr/bin/../lib/gcc/arm-none-eabi/12.2.1/../../../../arm-none-eabi/lib/thumb/v7e-m+fp/hard/libstdc++_nano.a(new_handler.o)
 .ARM.attributes
                0x00000577       0x34 /usr/bin/../lib/gcc/arm-none-eabi/12.2.1/../../../../arm-none-eabi/lib/thumb/v7e-m+fp/hard/libc_nano.a(libc_a-exit.o)
 .ARM.attributes
                0x000005ab       0x34 /usr/bin/../lib/gcc/arm-none-eabi/12.2.1/../../../../arm-none-eabi/lib/thumb/v7e-m+fp/hard/libc_nano.a(libc_a-init.o)
 .ARM.attributes
                0x000005df       0x20 /usr/bin/../lib/gcc/arm-none-eabi/12.2.1/../../../../arm-none-eabi/lib/thumb/v7e-m+fp/hard/libc_nano.a(libc_a-strcmp.o)
 .ARM.attributes
                0x000005ff       0x34 /usr/bin/../lib/gcc/arm-none-eabi/12.2.1/../../../../arm-none-eabi/lib/thumb/v7e-m+fp/hard/libc_nano.a(libc_a-malloc.o)
 .ARM.attributes
                0x00000633       0x34 /usr/bin/../lib/gcc/arm-none-eabi/12.2.1/../../../../arm-none-eabi/lib/thumb/v7e-m+fp/hard/libc_nano.a(libc_a-mallocr.o)
 .ARM.attributes
                0x00000667       0x34 /usr/bin/../lib/gcc/arm-none-eabi/12.2.1/../../../../arm-none-eabi/lib/thumb/v7e-m+fp/hard/libc_nano.a(libc_a-abort.o)
 .ARM.attributes
                0x0000069b       0x34 /usr/bin/../lib/gcc/arm-none-eabi/12.2.1/../../../../arm-none-eabi/lib/thumb/v7e-m+fp/hard/libc_nano.a(libc_a-cxa_atexit.o)
 .ARM.attributes
                0x000006cf       0x34 /usr/bin/../lib/gcc/arm-none-eabi/12.2.1/../../../../arm-none-eabi/lib/thumb/v7e-m+fp/hard/libc_nano.a(libc_a-findfp.o)
 .ARM.attributes
                0x00000703       0x34 /usr/bin/../lib/gcc/arm-none-eabi/12.2.1/../../../../arm-none-eabi/lib/thumb/v7e-m+fp/hard/libc_nano.a(libc_a-stdio.o)
 .ARM.attributes
                0x00000737       0x34 /usr/bin/../lib/gcc/arm-none-eabi/12.2.1/../../../../arm-none-eabi/lib/thumb/v7e-m+fp/hard/libc_nano.a(libc_a-mlock.o)
 .ARM.attributes
                0x0000076b       0x34 /usr/bin/../lib/gcc/arm-none-eabi/12.2.1/../../../../arm-none-eabi/lib/thumb/v7e-m+fp/hard/libc_nano.a(libc_a-on_exit_args.o)
 .ARM.attributes
                0x0000079f       0x34 /usr/bin/../lib/gcc/arm-none-eabi/12.2.1/../../../../arm-none-eabi/lib/thumb/v7e-m+fp/hard/libc_nano.a(libc_a-sbrkr.o)
 .ARM.attributes
                0x000007d3       0x34 /usr/bin/../lib/gcc/arm-none-eabi/12.2.1/../../../../arm-none-eabi/lib/thumb/v7e-m+fp/hard/libc_nano.a(libc_a-writer.o)
 .ARM.attributes
                0x00000807       0x34 /usr/bin/../lib/gcc/arm-none-eabi/12.2.1/../../../../arm-none-eabi/lib/thumb/v7e-m+fp/hard/libc_nano.a(libc_a-errno.o)
 .ARM.attributes
                0x0000083b       0x34 /usr/bin/../lib/gcc/arm-none-eabi/12.2.1/../../../../arm-none-eabi/lib/thumb/v7e-m+fp/hard/libc_nano.a(libc_a-fwalk.o)
 .ARM.attributes
                0x0000086f       0x34 /usr/bin/../lib/gcc/arm-none-eabi/12.2.1/../../../../arm-none-eabi/lib/thumb/v7e-m+fp/hard/libc_nano.a(libc_a-memset.o)
 .ARM.attributes
                0x000008a3       0x34 /usr/bin/../lib/gcc/arm-none-eabi/12.2.1/../../../../arm-none-eabi/lib/thumb/v7e-m+fp/hard/libc_nano.a(libc_a-freer.o)
 .ARM.attributes
                0x000008d7       0x34 /usr/bin/../lib/gcc/arm-none-eabi/12.2.1/../../../../arm-none-eabi/lib/thumb/v7e-m+fp/hard/libc_nano.a(libc_a-lock.o)
 .ARM.attributes
                0x0000090b       0x34 /usr/bin/../lib/gcc/arm-none-eabi/12.2.1/../../../../arm-none-eabi/lib/thumb/v7e-m+fp/hard/libc_nano.a(libc_a-closer.o)
 .ARM.attributes
                0x0000093f       0x34 /usr/bin/../lib/gcc/arm-none-eabi/12.2.1/../../../../arm-none-eabi/lib/thumb/v7e-m+fp/hard/libc_nano.a(libc_a-reent.o)
 .ARM.attributes
                0x00000973       0x34 /usr/bin/../lib/gcc/arm-none-eabi/12.2.1/../../../../arm-none-eabi/lib/thumb/v7e-m+fp/hard/libc_nano.a(libc_a-impure.o)
 .ARM.attributes
                0x000009a7       0x34 /usr/bin/../lib/gcc/arm-none-eabi/12.2.1/../../../../arm-none-eabi/lib/thumb/v7e-m+fp/hard/libc_nano.a(libc_a-fflush.o)
 .ARM.attributes
                0x000009db       0x34 /usr/bin/../lib/gcc/arm-none-eabi/12.2.1/../../../../arm-none-eabi/lib/thumb/v7e-m+fp/hard/libc_nano.a(libc_a-signal.o)
 .ARM.attributes
                0x00000a0f       0x34 /usr/bin/../lib/gcc/arm-none-eabi/12.2.1/../../../../arm-none-eabi/lib/thumb/v7e-m+fp/hard/libc_nano.a(libc_a-lseekr.o)
 .ARM.attributes
                0x00000a43       0x34 /usr/bin/../lib/gcc/arm-none-eabi/12.2.1/../../../../arm-none-eabi/lib/thumb/v7e-m+fp/hard/libc_nano.a(libc_a-readr.o)
 .ARM.attributes
                0x00000a77       0x34 /usr/bin/../lib/gcc/arm-none-eabi/12.2.1/../../../../arm-none-eabi/lib/thumb/v7e-m+fp/hard/libc_nano.a(libc_a-signalr.o)
 .ARM.attributes
                0x00000aab       0x34 /usr/bin/../lib/gcc/arm-none-eabi/12.2.1/thumb/v7e-m+fp/hard/libgcc.a(unwind-arm.o)
 .ARM.attributes
                0x00000adf       0x22 /usr/bin/../lib/gcc/arm-none-eabi/12.2.1/thumb/v7e-m+fp/hard/libgcc.a(libunwind.o)
 .ARM.attributes
                0x00000b01       0x34 /usr/bin/../lib/gcc/arm-none-eabi/12.2.1/thumb/v7e-m+fp/hard/libgcc.a(pr-support.o)
 .ARM.attributes
                0x00000b35       0x34 /usr/bin/../lib/gcc/arm-none-eabi/12.2.1/../../../../arm-none-eabi/lib/thumb/v7e-m+fp/hard/libc_nano.a(libc_a-memcpy-stub.o)
 .ARM.attributes
                0x00000b69       0x34 /usr/bin/../lib/gcc/arm-none-eabi/12.2.1/thumb/v7e-m+fp/hard/crtend.o
 .ARM.attributes
                0x00000b9d       0x22 /usr/bin/../lib/gcc/arm-none-eabi/12.2.1/thumb/v7e-m+fp/hard/crtn.o
OUTPUT(Debug/stm32F411-libs.elf elf32-littlearm)
LOAD linker stubs
LOAD /usr/bin/../lib/gcc/arm-none-eabi/12.2.1/../../../../arm-none-eabi/lib/thumb/v7e-m+fp/hard/libc.a
LOAD /usr/bin/../lib/gcc/arm-none-eabi/12.2.1/../../../../arm-none-eabi/lib/thumb/v7e-m+fp/hard/libm.a
LOAD /usr/bin/../lib/gcc/arm-none-eabi/12.2.1/thumb/v7e-m+fp/hard/libgcc.a

.debug_line_str
                0x00000000      0x2a8
 .debug_line_str
                0x00000000       0xdf /usr/bin/../lib/gcc/arm-none-eabi/12.2.1/../../../../arm-none-eabi/lib/thumb/v7e-m+fp/hard/crt0.o
 .debug_line_str
                0x000000df       0xf3 /usr/bin/../lib/gcc/arm-none-eabi/12.2.1/../../../../arm-none-eabi/lib/thumb/v7e-m+fp/hard/libc_nano.a(libc_a-strcmp.o)
 .debug_line_str
                0x000001d2       0xd6 /usr/bin/../lib/gcc/arm-none-eabi/12.2.1/thumb/v7e-m+fp/hard/libgcc.a(libunwind.o)

.debug_info     0x00000000     0xc972
 .debug_info    0x00000000       0x22 Debug/Drivers/USART/USART.o
 .debug_info    0x00000022       0x22 Debug/Drivers/RCC/RCC.o
 .debug_info    0x00000044       0x22 Debug/Drivers/RCC/PeripheralClocks.o
 .debug_info    0x00000066     0xa257 Debug/Drivers/GPIO/IOPin.o
 .debug_info    0x0000a2bd     0x1eaa Debug/Src/main.o
 .debug_info    0x0000c167      0x6a3 Debug/Src/syscalls.o
 .debug_info    0x0000c80a      0x168 Debug/Src/sysmem.o

.debug_abbrev   0x00000000      0xf25
 .debug_abbrev  0x00000000       0x12 Debug/Drivers/USART/USART.o
 .debug_abbrev  0x00000012       0x12 Debug/Drivers/RCC/RCC.o
 .debug_abbrev  0x00000024       0x12 Debug/Drivers/RCC/PeripheralClocks.o
 .debug_abbrev  0x00000036      0x9a5 Debug/Drivers/GPIO/IOPin.o
 .debug_abbrev  0x000009db      0x2d8 Debug/Src/main.o
 .debug_abbrev  0x00000cb3      0x1b6 Debug/Src/syscalls.o
 .debug_abbrev  0x00000e69       0xbc Debug/Src/sysmem.o

.debug_aranges  0x00000000      0x548
 .debug_aranges
                0x00000000       0x18 Debug/Drivers/USART/USART.o
 .debug_aranges
                0x00000018       0x18 Debug/Drivers/RCC/RCC.o
 .debug_aranges
                0x00000030       0x18 Debug/Drivers/RCC/PeripheralClocks.o
 .debug_aranges
                0x00000048      0x418 Debug/Drivers/GPIO/IOPin.o
 .debug_aranges
                0x00000460       0x20 Debug/Src/main.o
 .debug_aranges
                0x00000480       0xa8 Debug/Src/syscalls.o
 .debug_aranges
                0x00000528       0x20 Debug/Src/sysmem.o

.debug_macro    0x00000000    0x12e83
 .debug_macro   0x00000000       0x11 Debug/Drivers/USART/USART.o
 .debug_macro   0x00000011      0xc70 Debug/Drivers/USART/USART.o
 .debug_macro   0x00000c81       0x1b Debug/Drivers/RCC/RCC.o
 .debug_macro   0x00000c9c       0x1b Debug/Drivers/RCC/PeripheralClocks.o
 .debug_macro   0x00000cb7      0x6c1 Debug/Drivers/GPIO/IOPin.o
 .debug_macro   0x00001378       0x1c Debug/Drivers/GPIO/IOPin.o
 .debug_macro   0x00001394       0x22 Debug/Drivers/GPIO/IOPin.o
 .debug_macro   0x000013b6       0x8e Debug/Drivers/GPIO/IOPin.o
 .debug_macro   0x00001444       0x51 Debug/Drivers/GPIO/IOPin.o
 .debug_macro   0x00001495      0x103 Debug/Drivers/GPIO/IOPin.o
 .debug_macro   0x00001598       0x6a Debug/Drivers/GPIO/IOPin.o
 .debug_macro   0x00001602      0x1df Debug/Drivers/GPIO/IOPin.o
 .debug_macro   0x000017e1      0x1d5 Debug/Drivers/GPIO/IOPin.o
 .debug_macro   0x000019b6       0x10 Debug/Drivers/GPIO/IOPin.o
 .debug_macro   0x000019c6       0xcf Debug/Drivers/GPIO/IOPin.o
 .debug_macro   0x00001a95      0x103 Debug/Drivers/GPIO/IOPin.o
 .debug_macro   0x00001b98      0x345 Debug/Drivers/GPIO/IOPin.o
 .debug_macro   0x00001edd       0x9c Debug/Drivers/GPIO/IOPin.o
 .debug_macro   0x00001f79       0x28 Debug/Drivers/GPIO/IOPin.o
 .debug_macro   0x00001fa1       0x1c Debug/Drivers/GPIO/IOPin.o
 .debug_macro   0x00001fbd       0x22 Debug/Drivers/GPIO/IOPin.o
 .debug_macro   0x00001fdf       0xd9 Debug/Drivers/GPIO/IOPin.o
 .debug_macro   0x000020b8     0x102d Debug/Drivers/GPIO/IOPin.o
 .debug_macro   0x000030e5      0x11f Debug/Drivers/GPIO/IOPin.o
 .debug_macro   0x00003204     0xb953 Debug/Drivers/GPIO/IOPin.o
 .debug_macro   0x0000eb57       0x26 Debug/Drivers/GPIO/IOPin.o
 .debug_macro   0x0000eb7d       0x18 Debug/Drivers/GPIO/IOPin.o
 .debug_macro   0x0000eb95       0x10 Debug/Drivers/GPIO/IOPin.o
 .debug_macro   0x0000eba5       0x11 Debug/Drivers/GPIO/IOPin.o
 .debug_macro   0x0000ebb6       0x1f Debug/Drivers/GPIO/IOPin.o
 .debug_macro   0x0000ebd5       0x11 Debug/Drivers/GPIO/IOPin.o
 .debug_macro   0x0000ebe6       0x19 Debug/Drivers/GPIO/IOPin.o
 .debug_macro   0x0000ebff       0x11 Debug/Drivers/GPIO/IOPin.o
 .debug_macro   0x0000ec10       0x22 Debug/Drivers/GPIO/IOPin.o
 .debug_macro   0x0000ec32       0x10 Debug/Drivers/GPIO/IOPin.o
 .debug_macro   0x0000ec42       0x1c Debug/Drivers/GPIO/IOPin.o
 .debug_macro   0x0000ec5e       0x32 Debug/Drivers/GPIO/IOPin.o
 .debug_macro   0x0000ec90       0x11 Debug/Drivers/GPIO/IOPin.o
 .debug_macro   0x0000eca1       0x17 Debug/Drivers/GPIO/IOPin.o
 .debug_macro   0x0000ecb8       0x10 Debug/Drivers/GPIO/IOPin.o
 .debug_macro   0x0000ecc8       0x28 Debug/Drivers/GPIO/IOPin.o
 .debug_macro   0x0000ecf0       0x2e Debug/Drivers/GPIO/IOPin.o
 .debug_macro   0x0000ed1e       0x18 Debug/Drivers/GPIO/IOPin.o
 .debug_macro   0x0000ed36       0x49 Debug/Drivers/GPIO/IOPin.o
 .debug_macro   0x0000ed7f       0x11 Debug/Drivers/GPIO/IOPin.o
 .debug_macro   0x0000ed90       0x2b Debug/Drivers/GPIO/IOPin.o
 .debug_macro   0x0000edbb       0x88 Debug/Drivers/GPIO/IOPin.o
 .debug_macro   0x0000ee43       0x19 Debug/Drivers/GPIO/IOPin.o
 .debug_macro   0x0000ee5c       0x10 Debug/Drivers/GPIO/IOPin.o
 .debug_macro   0x0000ee6c       0x11 Debug/Drivers/GPIO/IOPin.o
 .debug_macro   0x0000ee7d       0x18 Debug/Drivers/GPIO/IOPin.o
 .debug_macro   0x0000ee95       0x10 Debug/Drivers/GPIO/IOPin.o
 .debug_macro   0x0000eea5       0x1e Debug/Drivers/GPIO/IOPin.o
 .debug_macro   0x0000eec3       0x33 Debug/Drivers/GPIO/IOPin.o
 .debug_macro   0x0000eef6       0x26 Debug/Drivers/GPIO/IOPin.o
 .debug_macro   0x0000ef1c       0x11 Debug/Drivers/GPIO/IOPin.o
 .debug_macro   0x0000ef2d       0x11 Debug/Drivers/GPIO/IOPin.o
 .debug_macro   0x0000ef3e       0x10 Debug/Drivers/GPIO/IOPin.o
 .debug_macro   0x0000ef4e       0x2a Debug/Drivers/GPIO/IOPin.o
 .debug_macro   0x0000ef78       0x61 Debug/Drivers/GPIO/IOPin.o
 .debug_macro   0x0000efd9       0x43 Debug/Drivers/GPIO/IOPin.o
 .debug_macro   0x0000f01c       0x34 Debug/Drivers/GPIO/IOPin.o
 .debug_macro   0x0000f050       0x16 Debug/Drivers/GPIO/IOPin.o
 .debug_macro   0x0000f066      0x11c Debug/Drivers/GPIO/IOPin.o
 .debug_macro   0x0000f182       0x9b Debug/Drivers/GPIO/IOPin.o
 .debug_macro   0x0000f21d       0x16 Debug/Drivers/GPIO/IOPin.o
 .debug_macro   0x0000f233       0x43 Debug/Drivers/GPIO/IOPin.o
 .debug_macro   0x0000f276       0x34 Debug/Drivers/GPIO/IOPin.o
 .debug_macro   0x0000f2aa       0x10 Debug/Drivers/GPIO/IOPin.o
 .debug_macro   0x0000f2ba       0x58 Debug/Drivers/GPIO/IOPin.o
 .debug_macro   0x0000f312       0x8e Debug/Drivers/GPIO/IOPin.o
 .debug_macro   0x0000f3a0       0x16 Debug/Drivers/GPIO/IOPin.o
 .debug_macro   0x0000f3b6      0x177 Debug/Drivers/GPIO/IOPin.o
 .debug_macro   0x0000f52d      0x38c Debug/Drivers/GPIO/IOPin.o
 .debug_macro   0x0000f8b9       0x16 Debug/Drivers/GPIO/IOPin.o
 .debug_macro   0x0000f8cf       0x29 Debug/Drivers/GPIO/IOPin.o
 .debug_macro   0x0000f8f8       0x1c Debug/Drivers/GPIO/IOPin.o
 .debug_macro   0x0000f914       0xde Debug/Drivers/GPIO/IOPin.o
 .debug_macro   0x0000f9f2       0x12 Debug/Drivers/GPIO/IOPin.o
 .debug_macro   0x0000fa04       0x41 Debug/Drivers/GPIO/IOPin.o
 .debug_macro   0x0000fa45       0x22 Debug/Drivers/GPIO/IOPin.o
 .debug_macro   0x0000fa67       0x3c Debug/Drivers/GPIO/IOPin.o
 .debug_macro   0x0000faa3       0x10 Debug/Drivers/GPIO/IOPin.o
 .debug_macro   0x0000fab3       0x10 Debug/Drivers/GPIO/IOPin.o
 .debug_macro   0x0000fac3       0x33 Debug/Drivers/GPIO/IOPin.o
 .debug_macro   0x0000faf6      0x173 Debug/Drivers/GPIO/IOPin.o
 .debug_macro   0x0000fc69       0x11 Debug/Drivers/GPIO/IOPin.o
 .debug_macro   0x0000fc7a       0x10 Debug/Drivers/GPIO/IOPin.o
 .debug_macro   0x0000fc8a       0x35 Debug/Drivers/GPIO/IOPin.o
 .debug_macro   0x0000fcbf       0x5e Debug/Drivers/GPIO/IOPin.o
 .debug_macro   0x0000fd1d       0x16 Debug/Drivers/GPIO/IOPin.o
 .debug_macro   0x0000fd33       0x52 Debug/Drivers/GPIO/IOPin.o
 .debug_macro   0x0000fd85       0x5e Debug/Drivers/GPIO/IOPin.o
 .debug_macro   0x0000fde3       0x10 Debug/Drivers/GPIO/IOPin.o
 .debug_macro   0x0000fdf3       0x17 Debug/Drivers/GPIO/IOPin.o
 .debug_macro   0x0000fe0a       0x1c Debug/Drivers/GPIO/IOPin.o
 .debug_macro   0x0000fe26       0x10 Debug/Drivers/GPIO/IOPin.o
 .debug_macro   0x0000fe36       0x16 Debug/Drivers/GPIO/IOPin.o
 .debug_macro   0x0000fe4c      0x131 Debug/Drivers/GPIO/IOPin.o
 .debug_macro   0x0000ff7d      0x11d Debug/Drivers/GPIO/IOPin.o
 .debug_macro   0x0001009a       0x10 Debug/Drivers/GPIO/IOPin.o
 .debug_macro   0x000100aa      0x242 Debug/Drivers/GPIO/IOPin.o
 .debug_macro   0x000102ec       0x19 Debug/Drivers/GPIO/IOPin.o
 .debug_macro   0x00010305       0x18 Debug/Drivers/GPIO/IOPin.o
 .debug_macro   0x0001031d       0x2b Debug/Drivers/GPIO/IOPin.o
 .debug_macro   0x00010348       0x10 Debug/Drivers/GPIO/IOPin.o
 .debug_macro   0x00010358      0x6e8 Debug/Src/main.o
 .debug_macro   0x00010a40       0x5b Debug/Src/main.o
 .debug_macro   0x00010a9b       0x94 Debug/Src/main.o
 .debug_macro   0x00010b2f      0x190 Debug/Src/main.o
 .debug_macro   0x00010cbf       0x57 Debug/Src/main.o
 .debug_macro   0x00010d16       0x1c Debug/Src/main.o
 .debug_macro   0x00010d32       0x1c Debug/Src/main.o
 .debug_macro   0x00010d4e       0xa2 Debug/Src/main.o
 .debug_macro   0x00010df0      0x1d1 Debug/Src/main.o
 .debug_macro   0x00010fc1       0x2c Debug/Src/main.o
 .debug_macro   0x00010fed       0x25 Debug/Src/main.o
 .debug_macro   0x00011012       0x4f Debug/Src/main.o
 .debug_macro   0x00011061       0x1c Debug/Src/main.o
 .debug_macro   0x0001107d       0x12 Debug/Src/main.o
 .debug_macro   0x0001108f       0x17 Debug/Src/main.o
 .debug_macro   0x000110a6       0x31 Debug/Src/main.o
 .debug_macro   0x000110d7      0x274 Debug/Src/syscalls.o
 .debug_macro   0x0001134b      0xac0 Debug/Src/syscalls.o
 .debug_macro   0x00011e0b       0x34 Debug/Src/syscalls.o
 .debug_macro   0x00011e3f      0x189 Debug/Src/syscalls.o
 .debug_macro   0x00011fc8      0x369 Debug/Src/syscalls.o
 .debug_macro   0x00012331       0x43 Debug/Src/syscalls.o
 .debug_macro   0x00012374       0x1c Debug/Src/syscalls.o
 .debug_macro   0x00012390       0x10 Debug/Src/syscalls.o
 .debug_macro   0x000123a0       0x35 Debug/Src/syscalls.o
 .debug_macro   0x000123d5       0x10 Debug/Src/syscalls.o
 .debug_macro   0x000123e5       0x10 Debug/Src/syscalls.o
 .debug_macro   0x000123f5       0x10 Debug/Src/syscalls.o
 .debug_macro   0x00012405       0x1c Debug/Src/syscalls.o
 .debug_macro   0x00012421       0x52 Debug/Src/syscalls.o
 .debug_macro   0x00012473       0x22 Debug/Src/syscalls.o
 .debug_macro   0x00012495       0x10 Debug/Src/syscalls.o
 .debug_macro   0x000124a5       0x52 Debug/Src/syscalls.o
 .debug_macro   0x000124f7       0xcf Debug/Src/syscalls.o
 .debug_macro   0x000125c6       0x1c Debug/Src/syscalls.o
 .debug_macro   0x000125e2       0x3d Debug/Src/syscalls.o
 .debug_macro   0x0001261f       0x35 Debug/Src/syscalls.o
 .debug_macro   0x00012654      0x12c Debug/Src/syscalls.o
 .debug_macro   0x00012780       0x10 Debug/Src/syscalls.o
 .debug_macro   0x00012790      0x146 Debug/Src/syscalls.o
 .debug_macro   0x000128d6      0x18a Debug/Src/syscalls.o
 .debug_macro   0x00012a60       0x16 Debug/Src/syscalls.o
 .debug_macro   0x00012a76       0xce Debug/Src/syscalls.o
 .debug_macro   0x00012b44      0x103 Debug/Src/sysmem.o
 .debug_macro   0x00012c47      0x23c Debug/Src/sysmem.o

.debug_line     0x00000000     0x2cff
 .debug_line    0x00000000       0x3d Debug/Drivers/USART/USART.o
 .debug_line    0x0000003d       0x43 Debug/Drivers/RCC/RCC.o
 .debug_line    0x00000080       0x5d Debug/Drivers/RCC/PeripheralClocks.o
 .debug_line    0x000000dd     0x18eb Debug/Drivers/GPIO/IOPin.o
 .debug_line    0x000019c8      0xbe4 Debug/Src/main.o
 .debug_line    0x000025ac      0x541 Debug/Src/syscalls.o
 .debug_line    0x00002aed      0x212 Debug/Src/sysmem.o

.debug_str      0x00000000    0x6d3ad
 .debug_str     0x00000000     0x36bf Debug/Drivers/USART/USART.o
 .debug_str     0x000036bf       0x24 Debug/Drivers/RCC/RCC.o
                               0x36c6 (size before relaxing)
 .debug_str     0x000036e3       0x3e Debug/Drivers/RCC/PeripheralClocks.o
                               0x36e0 (size before relaxing)
 .debug_str     0x00003721    0x67d1e Debug/Drivers/GPIO/IOPin.o
                              0x6bdac (size before relaxing)
 .debug_str     0x0006b43f       0x89 Debug/Src/main.o
                              0x59a29 (size before relaxing)
 .debug_str     0x0006b4c8     0x1e7d Debug/Src/syscalls.o
                               0x98ed (size before relaxing)
 .debug_str     0x0006d345       0x68 Debug/Src/sysmem.o
                               0x60da (size before relaxing)

.comment        0x00000000       0x55
 .comment       0x00000000       0x55 Debug/Drivers/USART/USART.o
                                 0x56 (size before relaxing)
 .comment       0x00000055       0x56 Debug/Drivers/RCC/RCC.o
 .comment       0x00000055       0x56 Debug/Drivers/RCC/PeripheralClocks.o
 .comment       0x00000055       0x56 Debug/Drivers/GPIO/IOPin.o
 .comment       0x00000055       0x56 Debug/Src/main.o
 .comment       0x00000055       0x56 Debug/Src/syscalls.o
 .comment       0x00000055       0x56 Debug/Src/sysmem.o

.debug_rnglists
                0x00000000      0x3ad
 .debug_rnglists
                0x00000000      0x30e Debug/Drivers/GPIO/IOPin.o
 .debug_rnglists
                0x0000030e       0x13 Debug/Src/main.o
 .debug_rnglists
                0x00000321       0x79 Debug/Src/syscalls.o
 .debug_rnglists
                0x0000039a       0x13 Debug/Src/sysmem.o

.debug_frame    0x00000000     0x28b4
 .debug_frame   0x00000000     0x135c Debug/Drivers/GPIO/IOPin.o
 .debug_frame   0x0000135c       0x28 Debug/Src/main.o
 .debug_frame   0x00001384      0x2ac Debug/Src/syscalls.o
 .debug_frame   0x00001630       0x34 Debug/Src/sysmem.o
 .debug_frame   0x00001664       0x20 /usr/bin/../lib/gcc/arm-none-eabi/12.2.1/../../../../arm-none-eabi/lib/thumb/v7e-m+fp/hard/libstdc++_nano.a(del_ops.o)
 .debug_frame   0x00001684       0x78 /usr/bin/../lib/gcc/arm-none-eabi/12.2.1/../../../../arm-none-eabi/lib/thumb/v7e-m+fp/hard/libstdc++_nano.a(eh_arm.o)
 .debug_frame   0x000016fc       0xf0 /usr/bin/../lib/gcc/arm-none-eabi/12.2.1/../../../../arm-none-eabi/lib/thumb/v7e-m+fp/hard/libstdc++_nano.a(eh_exception.o)
 .debug_frame   0x000017ec       0x50 /usr/bin/../lib/gcc/arm-none-eabi/12.2.1/../../../../arm-none-eabi/lib/thumb/v7e-m+fp/hard/libstdc++_nano.a(eh_globals.o)
 .debug_frame   0x0000183c      0x12c /usr/bin/../lib/gcc/arm-none-eabi/12.2.1/../../../../arm-none-eabi/lib/thumb/v7e-m+fp/hard/libstdc++_nano.a(eh_personality.o)
 .debug_frame   0x00001968       0xb0 /usr/bin/../lib/gcc/arm-none-eabi/12.2.1/../../../../arm-none-eabi/lib/thumb/v7e-m+fp/hard/libstdc++_nano.a(eh_terminate.o)
 .debug_frame   0x00001a18       0x28 /usr/bin/../lib/gcc/arm-none-eabi/12.2.1/../../../../arm-none-eabi/lib/thumb/v7e-m+fp/hard/libstdc++_nano.a(new_op.o)
 .debug_frame   0x00001a40       0xd4 /usr/bin/../lib/gcc/arm-none-eabi/12.2.1/../../../../arm-none-eabi/lib/thumb/v7e-m+fp/hard/libstdc++_nano.a(si_class_type_info.o)
 .debug_frame   0x00001b14       0x80 /usr/bin/../lib/gcc/arm-none-eabi/12.2.1/../../../../arm-none-eabi/lib/thumb/v7e-m+fp/hard/libstdc++_nano.a(tinfo.o)
 .debug_frame   0x00001b94       0x20 /usr/bin/../lib/gcc/arm-none-eabi/12.2.1/../../../../arm-none-eabi/lib/thumb/v7e-m+fp/hard/libstdc++_nano.a(atexit_arm.o)
 .debug_frame   0x00001bb4       0xd8 /usr/bin/../lib/gcc/arm-none-eabi/12.2.1/../../../../arm-none-eabi/lib/thumb/v7e-m+fp/hard/libstdc++_nano.a(class_type_info.o)
 .debug_frame   0x00001c8c       0x20 /usr/bin/../lib/gcc/arm-none-eabi/12.2.1/../../../../arm-none-eabi/lib/thumb/v7e-m+fp/hard/libstdc++_nano.a(del_op.o)
 .debug_frame   0x00001cac       0x50 /usr/bin/../lib/gcc/arm-none-eabi/12.2.1/../../../../arm-none-eabi/lib/thumb/v7e-m+fp/hard/libstdc++_nano.a(eh_call.o)
 .debug_frame   0x00001cfc       0x8c /usr/bin/../lib/gcc/arm-none-eabi/12.2.1/../../../../arm-none-eabi/lib/thumb/v7e-m+fp/hard/libstdc++_nano.a(eh_catch.o)
 .debug_frame   0x00001d88       0x30 /usr/bin/../lib/gcc/arm-none-eabi/12.2.1/../../../../arm-none-eabi/lib/thumb/v7e-m+fp/hard/libstdc++_nano.a(new_handler.o)
 .debug_frame   0x00001db8       0x28 /usr/bin/../lib/gcc/arm-none-eabi/12.2.1/../../../../arm-none-eabi/lib/thumb/v7e-m+fp/hard/libc_nano.a(libc_a-exit.o)
 .debug_frame   0x00001de0       0x2c /usr/bin/../lib/gcc/arm-none-eabi/12.2.1/../../../../arm-none-eabi/lib/thumb/v7e-m+fp/hard/libc_nano.a(libc_a-init.o)
 .debug_frame   0x00001e0c       0x20 /usr/bin/../lib/gcc/arm-none-eabi/12.2.1/../../../../arm-none-eabi/lib/thumb/v7e-m+fp/hard/libc_nano.a(libc_a-strcmp.o)
 .debug_frame   0x00001e2c       0x30 /usr/bin/../lib/gcc/arm-none-eabi/12.2.1/../../../../arm-none-eabi/lib/thumb/v7e-m+fp/hard/libc_nano.a(libc_a-malloc.o)
 .debug_frame   0x00001e5c       0x50 /usr/bin/../lib/gcc/arm-none-eabi/12.2.1/../../../../arm-none-eabi/lib/thumb/v7e-m+fp/hard/libc_nano.a(libc_a-mallocr.o)
 .debug_frame   0x00001eac       0x28 /usr/bin/../lib/gcc/arm-none-eabi/12.2.1/../../../../arm-none-eabi/lib/thumb/v7e-m+fp/hard/libc_nano.a(libc_a-abort.o)
 .debug_frame   0x00001ed4       0x28 /usr/bin/../lib/gcc/arm-none-eabi/12.2.1/../../../../arm-none-eabi/lib/thumb/v7e-m+fp/hard/libc_nano.a(libc_a-cxa_atexit.o)
 .debug_frame   0x00001efc      0x144 /usr/bin/../lib/gcc/arm-none-eabi/12.2.1/../../../../arm-none-eabi/lib/thumb/v7e-m+fp/hard/libc_nano.a(libc_a-findfp.o)
 .debug_frame   0x00002040       0x88 /usr/bin/../lib/gcc/arm-none-eabi/12.2.1/../../../../arm-none-eabi/lib/thumb/v7e-m+fp/hard/libc_nano.a(libc_a-stdio.o)
 .debug_frame   0x000020c8       0x30 /usr/bin/../lib/gcc/arm-none-eabi/12.2.1/../../../../arm-none-eabi/lib/thumb/v7e-m+fp/hard/libc_nano.a(libc_a-mlock.o)
 .debug_frame   0x000020f8       0x2c /usr/bin/../lib/gcc/arm-none-eabi/12.2.1/../../../../arm-none-eabi/lib/thumb/v7e-m+fp/hard/libc_nano.a(libc_a-sbrkr.o)
 .debug_frame   0x00002124       0x2c /usr/bin/../lib/gcc/arm-none-eabi/12.2.1/../../../../arm-none-eabi/lib/thumb/v7e-m+fp/hard/libc_nano.a(libc_a-writer.o)
 .debug_frame   0x00002150       0x20 /usr/bin/../lib/gcc/arm-none-eabi/12.2.1/../../../../arm-none-eabi/lib/thumb/v7e-m+fp/hard/libc_nano.a(libc_a-errno.o)
 .debug_frame   0x00002170       0x34 /usr/bin/../lib/gcc/arm-none-eabi/12.2.1/../../../../arm-none-eabi/lib/thumb/v7e-m+fp/hard/libc_nano.a(libc_a-fwalk.o)
 .debug_frame   0x000021a4       0x20 /usr/bin/../lib/gcc/arm-none-eabi/12.2.1/../../../../arm-none-eabi/lib/thumb/v7e-m+fp/hard/libc_nano.a(libc_a-memset.o)
 .debug_frame   0x000021c4       0x38 /usr/bin/../lib/gcc/arm-none-eabi/12.2.1/../../../../arm-none-eabi/lib/thumb/v7e-m+fp/hard/libc_nano.a(libc_a-freer.o)
 .debug_frame   0x000021fc       0xb0 /usr/bin/../lib/gcc/arm-none-eabi/12.2.1/../../../../arm-none-eabi/lib/thumb/v7e-m+fp/hard/libc_nano.a(libc_a-lock.o)
 .debug_frame   0x000022ac       0x2c /usr/bin/../lib/gcc/arm-none-eabi/12.2.1/../../../../arm-none-eabi/lib/thumb/v7e-m+fp/hard/libc_nano.a(libc_a-closer.o)
 .debug_frame   0x000022d8       0x38 /usr/bin/../lib/gcc/arm-none-eabi/12.2.1/../../../../arm-none-eabi/lib/thumb/v7e-m+fp/hard/libc_nano.a(libc_a-reent.o)
 .debug_frame   0x00002310       0x5c /usr/bin/../lib/gcc/arm-none-eabi/12.2.1/../../../../arm-none-eabi/lib/thumb/v7e-m+fp/hard/libc_nano.a(libc_a-fflush.o)
 .debug_frame   0x0000236c       0xcc /usr/bin/../lib/gcc/arm-none-eabi/12.2.1/../../../../arm-none-eabi/lib/thumb/v7e-m+fp/hard/libc_nano.a(libc_a-signal.o)
 .debug_frame   0x00002438       0x2c /usr/bin/../lib/gcc/arm-none-eabi/12.2.1/../../../../arm-none-eabi/lib/thumb/v7e-m+fp/hard/libc_nano.a(libc_a-lseekr.o)
 .debug_frame   0x00002464       0x2c /usr/bin/../lib/gcc/arm-none-eabi/12.2.1/../../../../arm-none-eabi/lib/thumb/v7e-m+fp/hard/libc_nano.a(libc_a-readr.o)
 .debug_frame   0x00002490       0x3c /usr/bin/../lib/gcc/arm-none-eabi/12.2.1/../../../../arm-none-eabi/lib/thumb/v7e-m+fp/hard/libc_nano.a(libc_a-signalr.o)
 .debug_frame   0x000024cc      0x2bc /usr/bin/../lib/gcc/arm-none-eabi/12.2.1/thumb/v7e-m+fp/hard/libgcc.a(unwind-arm.o)
 .debug_frame   0x00002788      0x104 /usr/bin/../lib/gcc/arm-none-eabi/12.2.1/thumb/v7e-m+fp/hard/libgcc.a(pr-support.o)
 .debug_frame   0x0000288c       0x28 /usr/bin/../lib/gcc/arm-none-eabi/12.2.1/../../../../arm-none-eabi/lib/thumb/v7e-m+fp/hard/libc_nano.a(libc_a-memcpy-stub.o)

Cross Reference Table

Symbol                                            File
ADC_IRQHandler                                    Debug/Startup/startup_stm32f411retx.o
BusFault_Handler                                  Debug/Startup/startup_stm32f411retx.o
Container<IOPinProperties, GpioPort, GpioPin, GpioMode, GpioState>::Container() Debug/Drivers/GPIO/IOPin.o
Container<IOPinProperties, GpioPort, GpioPin, GpioMode, GpioState>::Container() Debug/Drivers/GPIO/IOPin.o
Container<IOPinProperties, GpioPort, GpioPin, GpioMode, GpioState>::getSize() Debug/Drivers/GPIO/IOPin.o
Container<IOPinProperties, GpioPort, GpioPin, GpioMode, GpioState>::~Container() Debug/Drivers/GPIO/IOPin.o
Container<IOPinProperties, GpioPort, GpioPin, GpioMode, GpioState>::~Container() Debug/Drivers/GPIO/IOPin.o
Container<IOPinProperties, GpioPort, GpioPin, GpioMode, GpioState>::~Container() Debug/Drivers/GPIO/IOPin.o
Container<IOPinProperties, IOPinStatusCodes (*)(GpioPort const&, PeripheralBase<IOPinStatusCodes, 1u, Container<IOPinProperties, GpioPort, GpioPin, GpioMode, GpioState>>*), IOPinStatusCodes (*)(GpioPin const&, PeripheralBase<IOPinStatusCodes, 1u, Container<IOPinProperties, GpioPort, GpioPin, GpioMode, GpioState>>*), IOPinStatusCodes (*)(GpioMode const&, PeripheralBase<IOPinStatusCodes, 1u, Container<IOPinProperties, GpioPort, GpioPin, GpioMode, GpioState>>*), IOPinStatusCodes (*)(GpioState const&, PeripheralBase<IOPinStatusCodes, 1u, Container<IOPinProperties, GpioPort, GpioPin, GpioMode, GpioState>>*)>::Container() Debug/Drivers/GPIO/IOPin.o
Container<IOPinProperties, IOPinStatusCodes (*)(GpioPort const&, PeripheralBase<IOPinStatusCodes, 1u, Container<IOPinProperties, GpioPort, GpioPin, GpioMode, GpioState>>*), IOPinStatusCodes (*)(GpioPin const&, PeripheralBase<IOPinStatusCodes, 1u, Container<IOPinProperties, GpioPort, GpioPin, GpioMode, GpioState>>*), IOPinStatusCodes (*)(GpioMode const&, PeripheralBase<IOPinStatusCodes, 1u, Container<IOPinProperties, GpioPort, GpioPin, GpioMode, GpioState>>*), IOPinStatusCodes (*)(GpioState const&, PeripheralBase<IOPinStatusCodes, 1u, Container<IOPinProperties, GpioPort, GpioPin, GpioMode, GpioState>>*)>::Container() Debug/Drivers/GPIO/IOPin.o
Container<IOPinProperties, IOPinStatusCodes (*)(GpioPort const&, PeripheralBase<IOPinStatusCodes, 1u, Container<IOPinProperties, GpioPort, GpioPin, GpioMode, GpioState>>*), IOPinStatusCodes (*)(GpioPin const&, PeripheralBase<IOPinStatusCodes, 1u, Container<IOPinProperties, GpioPort, GpioPin, GpioMode, GpioState>>*), IOPinStatusCodes (*)(GpioMode const&, PeripheralBase<IOPinStatusCodes, 1u, Container<IOPinProperties, GpioPort, GpioPin, GpioMode, GpioState>>*), IOPinStatusCodes (*)(GpioState const&, PeripheralBase<IOPinStatusCodes, 1u, Container<IOPinProperties, GpioPort, GpioPin, GpioMode, GpioState>>*)>::Container(IOPinStatusCodes (*&&)(GpioPort const&, PeripheralBase<IOPinStatusCodes, 1u, Container<IOPinProperties, GpioPort, GpioPin, GpioMode, GpioState>>*), IOPinStatusCodes (*&&)(GpioPin const&, PeripheralBase<IOPinStatusCodes, 1u, Container<IOPinProperties, GpioPort, GpioPin, GpioMode, GpioState>>*), IOPinStatusCodes (*&&)(GpioMode const&, PeripheralBase<IOPinStatusCodes, 1u, Container<IOPinProperties, GpioPort, GpioPin, GpioMode, GpioState>>*), IOPinStatusCodes (*&&)(GpioState const&, PeripheralBase<IOPinStatusCodes, 1u, Container<IOPinProperties, GpioPort, GpioPin, GpioMode, GpioState>>*)) Debug/Drivers/GPIO/IOPin.o
Container<IOPinProperties, IOPinStatusCodes (*)(GpioPort const&, PeripheralBase<IOPinStatusCodes, 1u, Container<IOPinProperties, GpioPort, GpioPin, GpioMode, GpioState>>*), IOPinStatusCodes (*)(GpioPin const&, PeripheralBase<IOPinStatusCodes, 1u, Container<IOPinProperties, GpioPort, GpioPin, GpioMode, GpioState>>*), IOPinStatusCodes (*)(GpioMode const&, PeripheralBase<IOPinStatusCodes, 1u, Container<IOPinProperties, GpioPort, GpioPin, GpioMode, GpioState>>*), IOPinStatusCodes (*)(GpioState const&, PeripheralBase<IOPinStatusCodes, 1u, Container<IOPinProperties, GpioPort, GpioPin, GpioMode, GpioState>>*)>::Container(IOPinStatusCodes (*&&)(GpioPort const&, PeripheralBase<IOPinStatusCodes, 1u, Container<IOPinProperties, GpioPort, GpioPin, GpioMode, GpioState>>*), IOPinStatusCodes (*&&)(GpioPin const&, PeripheralBase<IOPinStatusCodes, 1u, Container<IOPinProperties, GpioPort, GpioPin, GpioMode, GpioState>>*), IOPinStatusCodes (*&&)(GpioMode const&, PeripheralBase<IOPinStatusCodes, 1u, Container<IOPinProperties, GpioPort, GpioPin, GpioMode, GpioState>>*), IOPinStatusCodes (*&&)(GpioState const&, PeripheralBase<IOPinStatusCodes, 1u, Container<IOPinProperties, GpioPort, GpioPin, GpioMode, GpioState>>*)) Debug/Drivers/GPIO/IOPin.o
Container<IOPinProperties, IOPinStatusCodes (*)(GpioPort const&, PeripheralBase<IOPinStatusCodes, 1u, Container<IOPinProperties, GpioPort, GpioPin, GpioMode, GpioState>>*), IOPinStatusCodes (*)(GpioPin const&, PeripheralBase<IOPinStatusCodes, 1u, Container<IOPinProperties, GpioPort, GpioPin, GpioMode, GpioState>>*), IOPinStatusCodes (*)(GpioMode const&, PeripheralBase<IOPinStatusCodes, 1u, Container<IOPinProperties, GpioPort, GpioPin, GpioMode, GpioState>>*), IOPinStatusCodes (*)(GpioState const&, PeripheralBase<IOPinStatusCodes, 1u, Container<IOPinProperties, GpioPort, GpioPin, GpioMode, GpioState>>*)>::getSize() Debug/Drivers/GPIO/IOPin.o
Container<IOPinProperties, IOPinStatusCodes (*)(GpioPort const&, PeripheralBase<IOPinStatusCodes, 1u, Container<IOPinProperties, GpioPort, GpioPin, GpioMode, GpioState>>*), IOPinStatusCodes (*)(GpioPin const&, PeripheralBase<IOPinStatusCodes, 1u, Container<IOPinProperties, GpioPort, GpioPin, GpioMode, GpioState>>*), IOPinStatusCodes (*)(GpioMode const&, PeripheralBase<IOPinStatusCodes, 1u, Container<IOPinProperties, GpioPort, GpioPin, GpioMode, GpioState>>*), IOPinStatusCodes (*)(GpioState const&, PeripheralBase<IOPinStatusCodes, 1u, Container<IOPinProperties, GpioPort, GpioPin, GpioMode, GpioState>>*)>::operator=(Container<IOPinProperties, IOPinStatusCodes (*)(GpioPort const&, PeripheralBase<IOPinStatusCodes, 1u, Container<IOPinProperties, GpioPort, GpioPin, GpioMode, GpioState>>*), IOPinStatusCodes (*)(GpioPin const&, PeripheralBase<IOPinStatusCodes, 1u, Container<IOPinProperties, GpioPort, GpioPin, GpioMode, GpioState>>*), IOPinStatusCodes (*)(GpioMode const&, PeripheralBase<IOPinStatusCodes, 1u, Container<IOPinProperties, GpioPort, GpioPin, GpioMode, GpioState>>*), IOPinStatusCodes (*)(GpioState const&, PeripheralBase<IOPinStatusCodes, 1u, Container<IOPinProperties, GpioPort, GpioPin, GpioMode, GpioState>>*)> const&) Debug/Drivers/GPIO/IOPin.o
Container<IOPinProperties, IOPinStatusCodes (*)(GpioPort const&, PeripheralBase<IOPinStatusCodes, 1u, Container<IOPinProperties, GpioPort, GpioPin, GpioMode, GpioState>>*), IOPinStatusCodes (*)(GpioPin const&, PeripheralBase<IOPinStatusCodes, 1u, Container<IOPinProperties, GpioPort, GpioPin, GpioMode, GpioState>>*), IOPinStatusCodes (*)(GpioMode const&, PeripheralBase<IOPinStatusCodes, 1u, Container<IOPinProperties, GpioPort, GpioPin, GpioMode, GpioState>>*), IOPinStatusCodes (*)(GpioState const&, PeripheralBase<IOPinStatusCodes, 1u, Container<IOPinProperties, GpioPort, GpioPin, GpioMode, GpioState>>*)>::~Container() Debug/Drivers/GPIO/IOPin.o
Container<IOPinProperties, IOPinStatusCodes (*)(GpioPort const&, PeripheralBase<IOPinStatusCodes, 1u, Container<IOPinProperties, GpioPort, GpioPin, GpioMode, GpioState>>*), IOPinStatusCodes (*)(GpioPin const&, PeripheralBase<IOPinStatusCodes, 1u, Container<IOPinProperties, GpioPort, GpioPin, GpioMode, GpioState>>*), IOPinStatusCodes (*)(GpioMode const&, PeripheralBase<IOPinStatusCodes, 1u, Container<IOPinProperties, GpioPort, GpioPin, GpioMode, GpioState>>*), IOPinStatusCodes (*)(GpioState const&, PeripheralBase<IOPinStatusCodes, 1u, Container<IOPinProperties, GpioPort, GpioPin, GpioMode, GpioState>>*)>::~Container() Debug/Drivers/GPIO/IOPin.o
Container<IOPinProperties, IOPinStatusCodes (*)(GpioPort const&, PeripheralBase<IOPinStatusCodes, 1u, Container<IOPinProperties, GpioPort, GpioPin, GpioMode, GpioState>>*), IOPinStatusCodes (*)(GpioPin const&, PeripheralBase<IOPinStatusCodes, 1u, Container<IOPinProperties, GpioPort, GpioPin, GpioMode, GpioState>>*), IOPinStatusCodes (*)(GpioMode const&, PeripheralBase<IOPinStatusCodes, 1u, Container<IOPinProperties, GpioPort, GpioPin, GpioMode, GpioState>>*), IOPinStatusCodes (*)(GpioState const&, PeripheralBase<IOPinStatusCodes, 1u, Container<IOPinProperties, GpioPort, GpioPin, GpioMode, GpioState>>*)>::~Container() Debug/Drivers/GPIO/IOPin.o
ContainerBase<GpioPort, GpioPin, GpioMode, GpioState>::ContainerBase() Debug/Drivers/GPIO/IOPin.o
ContainerBase<GpioPort, GpioPin, GpioMode, GpioState>::ContainerBase() Debug/Drivers/GPIO/IOPin.o
ContainerBase<GpioPort, GpioPin, GpioMode, GpioState>::~ContainerBase() Debug/Drivers/GPIO/IOPin.o
ContainerBase<GpioPort, GpioPin, GpioMode, GpioState>::~ContainerBase() Debug/Drivers/GPIO/IOPin.o
ContainerBase<GpioPort, GpioPin, GpioMode, GpioState>::~ContainerBase() Debug/Drivers/GPIO/IOPin.o
ContainerBase<IOPinStatusCodes (*)(GpioPort const&, PeripheralBase<IOPinStatusCodes, 1u, Container<IOPinProperties, GpioPort, GpioPin, GpioMode, GpioState>>*), IOPinStatusCodes (*)(GpioPin const&, PeripheralBase<IOPinStatusCodes, 1u, Container<IOPinProperties, GpioPort, GpioPin, GpioMode, GpioState>>*), IOPinStatusCodes (*)(GpioMode const&, PeripheralBase<IOPinStatusCodes, 1u, Container<IOPinProperties, GpioPort, GpioPin, GpioMode, GpioState>>*), IOPinStatusCodes (*)(GpioState const&, PeripheralBase<IOPinStatusCodes, 1u, Container<IOPinProperties, GpioPort, GpioPin, GpioMode, GpioState>>*)>::ContainerBase() Debug/Drivers/GPIO/IOPin.o
ContainerBase<IOPinStatusCodes (*)(GpioPort const&, PeripheralBase<IOPinStatusCodes, 1u, Container<IOPinProperties, GpioPort, GpioPin, GpioMode, GpioState>>*), IOPinStatusCodes (*)(GpioPin const&, PeripheralBase<IOPinStatusCodes, 1u, Container<IOPinProperties, GpioPort, GpioPin, GpioMode, GpioState>>*), IOPinStatusCodes (*)(GpioMode const&, PeripheralBase<IOPinStatusCodes, 1u, Container<IOPinProperties, GpioPort, GpioPin, GpioMode, GpioState>>*), IOPinStatusCodes (*)(GpioState const&, PeripheralBase<IOPinStatusCodes, 1u, Container<IOPinProperties, GpioPort, GpioPin, GpioMode, GpioState>>*)>::ContainerBase() Debug/Drivers/GPIO/IOPin.o
ContainerBase<IOPinStatusCodes (*)(GpioPort const&, PeripheralBase<IOPinStatusCodes, 1u, Container<IOPinProperties, GpioPort, GpioPin, GpioMode, GpioState>>*), IOPinStatusCodes (*)(GpioPin const&, PeripheralBase<IOPinStatusCodes, 1u, Container<IOPinProperties, GpioPort, GpioPin, GpioMode, GpioState>>*), IOPinStatusCodes (*)(GpioMode const&, PeripheralBase<IOPinStatusCodes, 1u, Container<IOPinProperties, GpioPort, GpioPin, GpioMode, GpioState>>*), IOPinStatusCodes (*)(GpioState const&, PeripheralBase<IOPinStatusCodes, 1u, Container<IOPinProperties, GpioPort, GpioPin, GpioMode, GpioState>>*)>::ContainerBase(IOPinStatusCodes (*&&)(GpioPort const&, PeripheralBase<IOPinStatusCodes, 1u, Container<IOPinProperties, GpioPort, GpioPin, GpioMode, GpioState>>*), IOPinStatusCodes (*&&)(GpioPin const&, PeripheralBase<IOPinStatusCodes, 1u, Container<IOPinProperties, GpioPort, GpioPin, GpioMode, GpioState>>*), IOPinStatusCodes (*&&)(GpioMode const&, PeripheralBase<IOPinStatusCodes, 1u, Container<IOPinProperties, GpioPort, GpioPin, GpioMode, GpioState>>*), IOPinStatusCodes (*&&)(GpioState const&, PeripheralBase<IOPinStatusCodes, 1u, Container<IOPinProperties, GpioPort, GpioPin, GpioMode, GpioState>>*)) Debug/Drivers/GPIO/IOPin.o
ContainerBase<IOPinStatusCodes (*)(GpioPort const&, PeripheralBase<IOPinStatusCodes, 1u, Container<IOPinProperties, GpioPort, GpioPin, GpioMode, GpioState>>*), IOPinStatusCodes (*)(GpioPin const&, PeripheralBase<IOPinStatusCodes, 1u, Container<IOPinProperties, GpioPort, GpioPin, GpioMode, GpioState>>*), IOPinStatusCodes (*)(GpioMode const&, PeripheralBase<IOPinStatusCodes, 1u, Container<IOPinProperties, GpioPort, GpioPin, GpioMode, GpioState>>*), IOPinStatusCodes (*)(GpioState const&, PeripheralBase<IOPinStatusCodes, 1u, Container<IOPinProperties, GpioPort, GpioPin, GpioMode, GpioState>>*)>::ContainerBase(IOPinStatusCodes (*&&)(GpioPort const&, PeripheralBase<IOPinStatusCodes, 1u, Container<IOPinProperties, GpioPort, GpioPin, GpioMode, GpioState>>*), IOPinStatusCodes (*&&)(GpioPin const&, PeripheralBase<IOPinStatusCodes, 1u, Container<IOPinProperties, GpioPort, GpioPin, GpioMode, GpioState>>*), IOPinStatusCodes (*&&)(GpioMode const&, PeripheralBase<IOPinStatusCodes, 1u, Container<IOPinProperties, GpioPort, GpioPin, GpioMode, GpioState>>*), IOPinStatusCodes (*&&)(GpioState const&, PeripheralBase<IOPinStatusCodes, 1u, Container<IOPinProperties, GpioPort, GpioPin, GpioMode, GpioState>>*)) Debug/Drivers/GPIO/IOPin.o
ContainerBase<IOPinStatusCodes (*)(GpioPort const&, PeripheralBase<IOPinStatusCodes, 1u, Container<IOPinProperties, GpioPort, GpioPin, GpioMode, GpioState>>*), IOPinStatusCodes (*)(GpioPin const&, PeripheralBase<IOPinStatusCodes, 1u, Container<IOPinProperties, GpioPort, GpioPin, GpioMode, GpioState>>*), IOPinStatusCodes (*)(GpioMode const&, PeripheralBase<IOPinStatusCodes, 1u, Container<IOPinProperties, GpioPort, GpioPin, GpioMode, GpioState>>*), IOPinStatusCodes (*)(GpioState const&, PeripheralBase<IOPinStatusCodes, 1u, Container<IOPinProperties, GpioPort, GpioPin, GpioMode, GpioState>>*)>::~ContainerBase() Debug/Drivers/GPIO/IOPin.o
ContainerBase<IOPinStatusCodes (*)(GpioPort const&, PeripheralBase<IOPinStatusCodes, 1u, Container<IOPinProperties, GpioPort, GpioPin, GpioMode, GpioState>>*), IOPinStatusCodes (*)(GpioPin const&, PeripheralBase<IOPinStatusCodes, 1u, Container<IOPinProperties, GpioPort, GpioPin, GpioMode, GpioState>>*), IOPinStatusCodes (*)(GpioMode const&, PeripheralBase<IOPinStatusCodes, 1u, Container<IOPinProperties, GpioPort, GpioPin, GpioMode, GpioState>>*), IOPinStatusCodes (*)(GpioState const&, PeripheralBase<IOPinStatusCodes, 1u, Container<IOPinProperties, GpioPort, GpioPin, GpioMode, GpioState>>*)>::~ContainerBase() Debug/Drivers/GPIO/IOPin.o
ContainerBase<IOPinStatusCodes (*)(GpioPort const&, PeripheralBase<IOPinStatusCodes, 1u, Container<IOPinProperties, GpioPort, GpioPin, GpioMode, GpioState>>*), IOPinStatusCodes (*)(GpioPin const&, PeripheralBase<IOPinStatusCodes, 1u, Container<IOPinProperties, GpioPort, GpioPin, GpioMode, GpioState>>*), IOPinStatusCodes (*)(GpioMode const&, PeripheralBase<IOPinStatusCodes, 1u, Container<IOPinProperties, GpioPort, GpioPin, GpioMode, GpioState>>*), IOPinStatusCodes (*)(GpioState const&, PeripheralBase<IOPinStatusCodes, 1u, Container<IOPinProperties, GpioPort, GpioPin, GpioMode, GpioState>>*)>::~ContainerBase() Debug/Drivers/GPIO/IOPin.o
DMA1_Stream0_IRQHandler                           Debug/Startup/startup_stm32f411retx.o
DMA1_Stream1_IRQHandler                           Debug/Startup/startup_stm32f411retx.o
DMA1_Stream2_IRQHandler                           Debug/Startup/startup_stm32f411retx.o
DMA1_Stream3_IRQHandler                           Debug/Startup/startup_stm32f411retx.o
DMA1_Stream4_IRQHandler                           Debug/Startup/startup_stm32f411retx.o
DMA1_Stream5_IRQHandler                           Debug/Startup/startup_stm32f411retx.o
DMA1_Stream6_IRQHandler                           Debug/Startup/startup_stm32f411retx.o
DMA1_Stream7_IRQHandler                           Debug/Startup/startup_stm32f411retx.o
DMA2_Stream0_IRQHandler                           Debug/Startup/startup_stm32f411retx.o
DMA2_Stream1_IRQHandler                           Debug/Startup/startup_stm32f411retx.o
DMA2_Stream2_IRQHandler                           Debug/Startup/startup_stm32f411retx.o
DMA2_Stream3_IRQHandler                           Debug/Startup/startup_stm32f411retx.o
DMA2_Stream4_IRQHandler                           Debug/Startup/startup_stm32f411retx.o
DMA2_Stream5_IRQHandler                           Debug/Startup/startup_stm32f411retx.o
DMA2_Stream6_IRQHandler                           Debug/Startup/startup_stm32f411retx.o
DMA2_Stream7_IRQHandler                           Debug/Startup/startup_stm32f411retx.o
DebugMon_Handler                                  Debug/Startup/startup_stm32f411retx.o
Default_Handler                                   Debug/Startup/startup_stm32f411retx.o
EXTI0_IRQHandler                                  Debug/Startup/startup_stm32f411retx.o
EXTI15_10_IRQHandler                              Debug/Startup/startup_stm32f411retx.o
EXTI1_IRQHandler                                  Debug/Startup/startup_stm32f411retx.o
EXTI2_IRQHandler                                  Debug/Startup/startup_stm32f411retx.o
EXTI3_IRQHandler                                  Debug/Startup/startup_stm32f411retx.o
EXTI4_IRQHandler                                  Debug/Startup/startup_stm32f411retx.o
EXTI9_5_IRQHandler                                Debug/Startup/startup_stm32f411retx.o
FLASH_IRQHandler                                  Debug/Startup/startup_stm32f411retx.o
FPU_IRQHandler                                    Debug/Startup/startup_stm32f411retx.o
HardFault_Handler                                 Debug/Startup/startup_stm32f411retx.o
I2C1_ER_IRQHandler                                Debug/Startup/startup_stm32f411retx.o
I2C1_EV_IRQHandler                                Debug/Startup/startup_stm32f411retx.o
I2C2_ER_IRQHandler                                Debug/Startup/startup_stm32f411retx.o
I2C2_EV_IRQHandler                                Debug/Startup/startup_stm32f411retx.o
I2C3_ER_IRQHandler                                Debug/Startup/startup_stm32f411retx.o
I2C3_EV_IRQHandler                                Debug/Startup/startup_stm32f411retx.o
IOPin::IOPin()                                    Debug/Drivers/GPIO/IOPin.o
IOPin::IOPin()                                    Debug/Drivers/GPIO/IOPin.o
IOPin::IOPin(IOPin const&)                        Debug/Drivers/GPIO/IOPin.o
IOPin::IOPin(IOPin const&)                        Debug/Drivers/GPIO/IOPin.o
IOPin::IOPin(IOPin const&, GpioPin const&)        Debug/Drivers/GPIO/IOPin.o
IOPin::IOPin(IOPin const&, GpioPin const&)        Debug/Drivers/GPIO/IOPin.o
IOPin::IOPin(IOPin const&, GpioPort const&)       Debug/Drivers/GPIO/IOPin.o
IOPin::IOPin(IOPin const&, GpioPort const&)       Debug/Drivers/GPIO/IOPin.o
IOPin::IOPin(IOPin&&)                             Debug/Drivers/GPIO/IOPin.o
IOPin::IOPin(IOPin&&)                             Debug/Drivers/GPIO/IOPin.o
IOPin::allocatePin()                              Debug/Drivers/GPIO/IOPin.o
IOPin::configMode(GpioMode const&, PeripheralBase<IOPinStatusCodes, 1u, Container<IOPinProperties, GpioPort, GpioPin, GpioMode, GpioState>>*) Debug/Drivers/GPIO/IOPin.o
IOPin::configPin(GpioPin const&, PeripheralBase<IOPinStatusCodes, 1u, Container<IOPinProperties, GpioPort, GpioPin, GpioMode, GpioState>>*) Debug/Drivers/GPIO/IOPin.o
IOPin::configPort(GpioPort const&, PeripheralBase<IOPinStatusCodes, 1u, Container<IOPinProperties, GpioPort, GpioPin, GpioMode, GpioState>>*) Debug/Drivers/GPIO/IOPin.o
IOPin::configState(GpioState const&, PeripheralBase<IOPinStatusCodes, 1u, Container<IOPinProperties, GpioPort, GpioPin, GpioMode, GpioState>>*) Debug/Drivers/GPIO/IOPin.o
IOPin::deAllocatePin()                            Debug/Drivers/GPIO/IOPin.o
IOPin::getGPIOPtrInstance(GpioPort const&)        Debug/Drivers/GPIO/IOPin.o
IOPin::getPortFromGPIOStruct(GPIO_TypeDef const*) Debug/Drivers/GPIO/IOPin.o
IOPin::init()                                     Debug/Drivers/GPIO/IOPin.o
IOPin::isAllocated(GPIO_TypeDef const*, GpioPin const&) Debug/Drivers/GPIO/IOPin.o
IOPin::isAllocated(GpioPort const&, GpioPin const&) Debug/Drivers/GPIO/IOPin.o
IOPin::isPinSet()                                 Debug/Drivers/GPIO/IOPin.o
IOPin::isPortSet()                                Debug/Drivers/GPIO/IOPin.o
IOPin::isReady()                                  Debug/Drivers/GPIO/IOPin.o
IOPin::isReallocating(GpioPin const&)             Debug/Drivers/GPIO/IOPin.o
IOPin::isReallocating(GpioPort const&)            Debug/Drivers/GPIO/IOPin.o
IOPin::operator=(IOPin const&)                    Debug/Drivers/GPIO/IOPin.o
IOPin::operator=(IOPin&&)                         Debug/Drivers/GPIO/IOPin.o
IOPin::preInit()                                  Debug/Drivers/GPIO/IOPin.o
IOPin::read()                                     Debug/Drivers/GPIO/IOPin.o
IOPin::reset(bool const&)                         Debug/Drivers/GPIO/IOPin.o
IOPin::setDefaultSettings()                       Debug/Drivers/GPIO/IOPin.o
IOPin::setInputMode()                             Debug/Drivers/GPIO/IOPin.o
IOPin::setInstancePtr()                           Debug/Drivers/GPIO/IOPin.o
IOPin::setMode(GpioMode const&)                   Debug/Drivers/GPIO/IOPin.o
IOPin::setOpenDrainOutputType()                   Debug/Drivers/GPIO/IOPin.o
IOPin::setOutputMode()                            Debug/Drivers/GPIO/IOPin.o
IOPin::setOutputSpeed(GpioOutputSpeed const&)     Debug/Drivers/GPIO/IOPin.o
IOPin::setOutputType(GpioOutputType const&)       Debug/Drivers/GPIO/IOPin.o
IOPin::setPUPD(GpioPUPD const&)                   Debug/Drivers/GPIO/IOPin.o
IOPin::setPin(GpioPin const&)                     Debug/Drivers/GPIO/IOPin.o
IOPin::setPort(GpioPort const&)                   Debug/Drivers/GPIO/IOPin.o
IOPin::setPullPushOutputType()                    Debug/Drivers/GPIO/IOPin.o
IOPin::setPulldown()                              Debug/Drivers/GPIO/IOPin.o
IOPin::setPullup()                                Debug/Drivers/GPIO/IOPin.o
IOPin::toggle()                                   Debug/Drivers/GPIO/IOPin.o
IOPin::write(bool const&)                         Debug/Drivers/GPIO/IOPin.o
IOPin::~IOPin()                                   Debug/Drivers/GPIO/IOPin.o
IOPin::~IOPin()                                   Debug/Drivers/GPIO/IOPin.o
IOPin::~IOPin()                                   Debug/Drivers/GPIO/IOPin.o
IOPinStatusCodes (*&&std::forward<IOPinStatusCodes (*)(GpioMode const&, PeripheralBase<IOPinStatusCodes, 1u, Container<IOPinProperties, GpioPort, GpioPin, GpioMode, GpioState>>*)>(std::remove_reference<IOPinStatusCodes (*)(GpioMode const&, PeripheralBase<IOPinStatusCodes, 1u, Container<IOPinProperties, GpioPort, GpioPin, GpioMode, GpioState>>*)>::type&))(GpioMode const&, PeripheralBase<IOPinStatusCodes, 1u, Container<IOPinProperties, GpioPort, GpioPin, GpioMode, GpioState>>*) Debug/Drivers/GPIO/IOPin.o
IOPinStatusCodes (*&&std::forward<IOPinStatusCodes (*)(GpioPin const&, PeripheralBase<IOPinStatusCodes, 1u, Container<IOPinProperties, GpioPort, GpioPin, GpioMode, GpioState>>*)>(std::remove_reference<IOPinStatusCodes (*)(GpioPin const&, PeripheralBase<IOPinStatusCodes, 1u, Container<IOPinProperties, GpioPort, GpioPin, GpioMode, GpioState>>*)>::type&))(GpioPin const&, PeripheralBase<IOPinStatusCodes, 1u, Container<IOPinProperties, GpioPort, GpioPin, GpioMode, GpioState>>*) Debug/Drivers/GPIO/IOPin.o
IOPinStatusCodes (*&&std::forward<IOPinStatusCodes (*)(GpioPort const&, PeripheralBase<IOPinStatusCodes, 1u, Container<IOPinProperties, GpioPort, GpioPin, GpioMode, GpioState>>*)>(std::remove_reference<IOPinStatusCodes (*)(GpioPort const&, PeripheralBase<IOPinStatusCodes, 1u, Container<IOPinProperties, GpioPort, GpioPin, GpioMode, GpioState>>*)>::type&))(GpioPort const&, PeripheralBase<IOPinStatusCodes, 1u, Container<IOPinProperties, GpioPort, GpioPin, GpioMode, GpioState>>*) Debug/Drivers/GPIO/IOPin.o
IOPinStatusCodes (*&&std::forward<IOPinStatusCodes (*)(GpioState const&, PeripheralBase<IOPinStatusCodes, 1u, Container<IOPinProperties, GpioPort, GpioPin, GpioMode, GpioState>>*)>(std::remove_reference<IOPinStatusCodes (*)(GpioState const&, PeripheralBase<IOPinStatusCodes, 1u, Container<IOPinProperties, GpioPort, GpioPin, GpioMode, GpioState>>*)>::type&))(GpioState const&, PeripheralBase<IOPinStatusCodes, 1u, Container<IOPinProperties, GpioPort, GpioPin, GpioMode, GpioState>>*) Debug/Drivers/GPIO/IOPin.o
MemManage_Handler                                 Debug/Startup/startup_stm32f411retx.o
NMI_Handler                                       Debug/Startup/startup_stm32f411retx.o
OTG_FS_IRQHandler                                 Debug/Startup/startup_stm32f411retx.o
OTG_FS_WKUP_IRQHandler                            Debug/Startup/startup_stm32f411retx.o
PVD_IRQHandler                                    Debug/Startup/startup_stm32f411retx.o
PendSV_Handler                                    Debug/Startup/startup_stm32f411retx.o
PeripheralBase<IOPinStatusCodes, 1u, Container<IOPinProperties, GpioPort, GpioPin, GpioMode, GpioState>>::PeripheralBase<IOPinStatusCodes (*)(GpioPort const&, PeripheralBase<IOPinStatusCodes, 1u, Container<IOPinProperties, GpioPort, GpioPin, GpioMode, GpioState>>*), IOPinStatusCodes (*)(GpioPin const&, PeripheralBase<IOPinStatusCodes, 1u, Container<IOPinProperties, GpioPort, GpioPin, GpioMode, GpioState>>*), IOPinStatusCodes (*)(GpioMode const&, PeripheralBase<IOPinStatusCodes, 1u, Container<IOPinProperties, GpioPort, GpioPin, GpioMode, GpioState>>*), IOPinStatusCodes (*)(GpioState const&, PeripheralBase<IOPinStatusCodes, 1u, Container<IOPinProperties, GpioPort, GpioPin, GpioMode, GpioState>>*)>(Container<IOPinProperties, IOPinStatusCodes (*)(GpioPort const&, PeripheralBase<IOPinStatusCodes, 1u, Container<IOPinProperties, GpioPort, GpioPin, GpioMode, GpioState>>*), IOPinStatusCodes (*)(GpioPin const&, PeripheralBase<IOPinStatusCodes, 1u, Container<IOPinProperties, GpioPort, GpioPin, GpioMode, GpioState>>*), IOPinStatusCodes (*)(GpioMode const&, PeripheralBase<IOPinStatusCodes, 1u, Container<IOPinProperties, GpioPort, GpioPin, GpioMode, GpioState>>*), IOPinStatusCodes (*)(GpioState const&, PeripheralBase<IOPinStatusCodes, 1u, Container<IOPinProperties, GpioPort, GpioPin, GpioMode, GpioState>>*)> const&) Debug/Drivers/GPIO/IOPin.o
PeripheralBase<IOPinStatusCodes, 1u, Container<IOPinProperties, GpioPort, GpioPin, GpioMode, GpioState>>::PeripheralBase<IOPinStatusCodes (*)(GpioPort const&, PeripheralBase<IOPinStatusCodes, 1u, Container<IOPinProperties, GpioPort, GpioPin, GpioMode, GpioState>>*), IOPinStatusCodes (*)(GpioPin const&, PeripheralBase<IOPinStatusCodes, 1u, Container<IOPinProperties, GpioPort, GpioPin, GpioMode, GpioState>>*), IOPinStatusCodes (*)(GpioMode const&, PeripheralBase<IOPinStatusCodes, 1u, Container<IOPinProperties, GpioPort, GpioPin, GpioMode, GpioState>>*), IOPinStatusCodes (*)(GpioState const&, PeripheralBase<IOPinStatusCodes, 1u, Container<IOPinProperties, GpioPort, GpioPin, GpioMode, GpioState>>*)>(Container<IOPinProperties, IOPinStatusCodes (*)(GpioPort const&, PeripheralBase<IOPinStatusCodes, 1u, Container<IOPinProperties, GpioPort, GpioPin, GpioMode, GpioState>>*), IOPinStatusCodes (*)(GpioPin const&, PeripheralBase<IOPinStatusCodes, 1u, Container<IOPinProperties, GpioPort, GpioPin, GpioMode, GpioState>>*), IOPinStatusCodes (*)(GpioMode const&, PeripheralBase<IOPinStatusCodes, 1u, Container<IOPinProperties, GpioPort, GpioPin, GpioMode, GpioState>>*), IOPinStatusCodes (*)(GpioState const&, PeripheralBase<IOPinStatusCodes, 1u, Container<IOPinProperties, GpioPort, GpioPin, GpioMode, GpioState>>*)> const&) Debug/Drivers/GPIO/IOPin.o
PeripheralBase<IOPinStatusCodes, 1u, Container<IOPinProperties, GpioPort, GpioPin, GpioMode, GpioState>>::functions Debug/Drivers/GPIO/IOPin.o
PeripheralBase<IOPinStatusCodes, 1u, Container<IOPinProperties, GpioPort, GpioPin, GpioMode, GpioState>>::staticManager Debug/Drivers/GPIO/IOPin.o
PeripheralBase<IOPinStatusCodes, 1u, Container<IOPinProperties, GpioPort, GpioPin, GpioMode, GpioState>>::~PeripheralBase() Debug/Drivers/GPIO/IOPin.o
PeripheralBase<IOPinStatusCodes, 1u, Container<IOPinProperties, GpioPort, GpioPin, GpioMode, GpioState>>::~PeripheralBase() Debug/Drivers/GPIO/IOPin.o
PeripheralBase<IOPinStatusCodes, 1u, Container<IOPinProperties, GpioPort, GpioPin, GpioMode, GpioState>>::~PeripheralBase() Debug/Drivers/GPIO/IOPin.o
RCC_IRQHandler                                    Debug/Startup/startup_stm32f411retx.o
RTC_Alarm_IRQHandler                              Debug/Startup/startup_stm32f411retx.o
RTC_WKUP_IRQHandler                               Debug/Startup/startup_stm32f411retx.o
Reset_Handler                                     Debug/Startup/startup_stm32f411retx.o
SDIO_IRQHandler                                   Debug/Startup/startup_stm32f411retx.o
SPI1_IRQHandler                                   Debug/Startup/startup_stm32f411retx.o
SPI2_IRQHandler                                   Debug/Startup/startup_stm32f411retx.o
SPI3_IRQHandler                                   Debug/Startup/startup_stm32f411retx.o
SPI4_IRQHandler                                   Debug/Startup/startup_stm32f411retx.o
SPI5_IRQHandler                                   Debug/Startup/startup_stm32f411retx.o
STM32PeripheralBase<GPIO_TypeDef, PeripheralBase<IOPinStatusCodes, 1u, Container<IOPinProperties, GpioPort, GpioPin, GpioMode, GpioState>> >::STM32PeripheralBase<IOPinStatusCodes (*)(GpioPort const&, PeripheralBase<IOPinStatusCodes, 1u, Container<IOPinProperties, GpioPort, GpioPin, GpioMode, GpioState>>*), IOPinStatusCodes (*)(GpioPin const&, PeripheralBase<IOPinStatusCodes, 1u, Container<IOPinProperties, GpioPort, GpioPin, GpioMode, GpioState>>*), IOPinStatusCodes (*)(GpioMode const&, PeripheralBase<IOPinStatusCodes, 1u, Container<IOPinProperties, GpioPort, GpioPin, GpioMode, GpioState>>*), IOPinStatusCodes (*)(GpioState const&, PeripheralBase<IOPinStatusCodes, 1u, Container<IOPinProperties, GpioPort, GpioPin, GpioMode, GpioState>>*)>(Container<IOPinProperties, IOPinStatusCodes (*)(GpioPort const&, PeripheralBase<IOPinStatusCodes, 1u, Container<IOPinProperties, GpioPort, GpioPin, GpioMode, GpioState>>*), IOPinStatusCodes (*)(GpioPin const&, PeripheralBase<IOPinStatusCodes, 1u, Container<IOPinProperties, GpioPort, GpioPin, GpioMode, GpioState>>*), IOPinStatusCodes (*)(GpioMode const&, PeripheralBase<IOPinStatusCodes, 1u, Container<IOPinProperties, GpioPort, GpioPin, GpioMode, GpioState>>*), IOPinStatusCodes (*)(GpioState const&, PeripheralBase<IOPinStatusCodes, 1u, Container<IOPinProperties, GpioPort, GpioPin, GpioMode, GpioState>>*)> const&) Debug/Drivers/GPIO/IOPin.o
STM32PeripheralBase<GPIO_TypeDef, PeripheralBase<IOPinStatusCodes, 1u, Container<IOPinProperties, GpioPort, GpioPin, GpioMode, GpioState>> >::STM32PeripheralBase<IOPinStatusCodes (*)(GpioPort const&, PeripheralBase<IOPinStatusCodes, 1u, Container<IOPinProperties, GpioPort, GpioPin, GpioMode, GpioState>>*), IOPinStatusCodes (*)(GpioPin const&, PeripheralBase<IOPinStatusCodes, 1u, Container<IOPinProperties, GpioPort, GpioPin, GpioMode, GpioState>>*), IOPinStatusCodes (*)(GpioMode const&, PeripheralBase<IOPinStatusCodes, 1u, Container<IOPinProperties, GpioPort, GpioPin, GpioMode, GpioState>>*), IOPinStatusCodes (*)(GpioState const&, PeripheralBase<IOPinStatusCodes, 1u, Container<IOPinProperties, GpioPort, GpioPin, GpioMode, GpioState>>*)>(Container<IOPinProperties, IOPinStatusCodes (*)(GpioPort const&, PeripheralBase<IOPinStatusCodes, 1u, Container<IOPinProperties, GpioPort, GpioPin, GpioMode, GpioState>>*), IOPinStatusCodes (*)(GpioPin const&, PeripheralBase<IOPinStatusCodes, 1u, Container<IOPinProperties, GpioPort, GpioPin, GpioMode, GpioState>>*), IOPinStatusCodes (*)(GpioMode const&, PeripheralBase<IOPinStatusCodes, 1u, Container<IOPinProperties, GpioPort, GpioPin, GpioMode, GpioState>>*), IOPinStatusCodes (*)(GpioState const&, PeripheralBase<IOPinStatusCodes, 1u, Container<IOPinProperties, GpioPort, GpioPin, GpioMode, GpioState>>*)> const&) Debug/Drivers/GPIO/IOPin.o
STM32PeripheralBase<GPIO_TypeDef, PeripheralBase<IOPinStatusCodes, 1u, Container<IOPinProperties, GpioPort, GpioPin, GpioMode, GpioState>> >::~STM32PeripheralBase() Debug/Drivers/GPIO/IOPin.o
STM32PeripheralBase<GPIO_TypeDef, PeripheralBase<IOPinStatusCodes, 1u, Container<IOPinProperties, GpioPort, GpioPin, GpioMode, GpioState>> >::~STM32PeripheralBase() Debug/Drivers/GPIO/IOPin.o
STM32PeripheralBase<GPIO_TypeDef, PeripheralBase<IOPinStatusCodes, 1u, Container<IOPinProperties, GpioPort, GpioPin, GpioMode, GpioState>> >::~STM32PeripheralBase() Debug/Drivers/GPIO/IOPin.o
SVC_Handler                                       Debug/Startup/startup_stm32f411retx.o
SysTick_Handler                                   Debug/Startup/startup_stm32f411retx.o
TAMP_STAMP_IRQHandler                             Debug/Startup/startup_stm32f411retx.o
TIM1_BRK_TIM9_IRQHandler                          Debug/Startup/startup_stm32f411retx.o
TIM1_CC_IRQHandler                                Debug/Startup/startup_stm32f411retx.o
TIM1_TRG_COM_TIM11_IRQHandler                     Debug/Startup/startup_stm32f411retx.o
TIM1_UP_TIM10_IRQHandler                          Debug/Startup/startup_stm32f411retx.o
TIM2_IRQHandler                                   Debug/Startup/startup_stm32f411retx.o
TIM3_IRQHandler                                   Debug/Startup/startup_stm32f411retx.o
TIM4_IRQHandler                                   Debug/Startup/startup_stm32f411retx.o
TIM5_IRQHandler                                   Debug/Startup/startup_stm32f411retx.o
USART1_IRQHandler                                 Debug/Startup/startup_stm32f411retx.o
USART2_IRQHandler                                 Debug/Startup/startup_stm32f411retx.o
USART6_IRQHandler                                 Debug/Startup/startup_stm32f411retx.o
UsageFault_Handler                                Debug/Startup/startup_stm32f411retx.o
WWDG_IRQHandler                                   Debug/Startup/startup_stm32f411retx.o
_ITM_deregisterTMCloneTable                       /usr/bin/../lib/gcc/arm-none-eabi/12.2.1/thumb/v7e-m+fp/hard/crtbegin.o
_ITM_registerTMCloneTable                         /usr/bin/../lib/gcc/arm-none-eabi/12.2.1/thumb/v7e-m+fp/hard/crtbegin.o
_Min_Stack_Size                                   Debug/Src/sysmem.o
_Unwind_Backtrace                                 /usr/bin/../lib/gcc/arm-none-eabi/12.2.1/thumb/v7e-m+fp/hard/libgcc.a(libunwind.o)
_Unwind_Complete                                  /usr/bin/../lib/gcc/arm-none-eabi/12.2.1/thumb/v7e-m+fp/hard/libgcc.a(unwind-arm.o)
                                                  /usr/bin/../lib/gcc/arm-none-eabi/12.2.1/../../../../arm-none-eabi/lib/thumb/v7e-m+fp/hard/libstdc++_nano.a(eh_catch.o)
_Unwind_DeleteException                           /usr/bin/../lib/gcc/arm-none-eabi/12.2.1/thumb/v7e-m+fp/hard/libgcc.a(unwind-arm.o)
                                                  /usr/bin/../lib/gcc/arm-none-eabi/12.2.1/../../../../arm-none-eabi/lib/thumb/v7e-m+fp/hard/libstdc++_nano.a(eh_catch.o)
_Unwind_ForcedUnwind                              /usr/bin/../lib/gcc/arm-none-eabi/12.2.1/thumb/v7e-m+fp/hard/libgcc.a(libunwind.o)
_Unwind_GetCFA                                    /usr/bin/../lib/gcc/arm-none-eabi/12.2.1/thumb/v7e-m+fp/hard/libgcc.a(unwind-arm.o)
_Unwind_GetDataRelBase                            /usr/bin/../lib/gcc/arm-none-eabi/12.2.1/thumb/v7e-m+fp/hard/libgcc.a(pr-support.o)
                                                  /usr/bin/../lib/gcc/arm-none-eabi/12.2.1/../../../../arm-none-eabi/lib/thumb/v7e-m+fp/hard/libstdc++_nano.a(eh_personality.o)
_Unwind_GetLanguageSpecificData                   /usr/bin/../lib/gcc/arm-none-eabi/12.2.1/thumb/v7e-m+fp/hard/libgcc.a(pr-support.o)
                                                  /usr/bin/../lib/gcc/arm-none-eabi/12.2.1/../../../../arm-none-eabi/lib/thumb/v7e-m+fp/hard/libstdc++_nano.a(eh_personality.o)
_Unwind_GetRegionStart                            /usr/bin/../lib/gcc/arm-none-eabi/12.2.1/thumb/v7e-m+fp/hard/libgcc.a(pr-support.o)
                                                  /usr/bin/../lib/gcc/arm-none-eabi/12.2.1/../../../../arm-none-eabi/lib/thumb/v7e-m+fp/hard/libstdc++_nano.a(eh_personality.o)
_Unwind_GetTextRelBase                            /usr/bin/../lib/gcc/arm-none-eabi/12.2.1/thumb/v7e-m+fp/hard/libgcc.a(pr-support.o)
                                                  /usr/bin/../lib/gcc/arm-none-eabi/12.2.1/../../../../arm-none-eabi/lib/thumb/v7e-m+fp/hard/libstdc++_nano.a(eh_personality.o)
_Unwind_RaiseException                            /usr/bin/../lib/gcc/arm-none-eabi/12.2.1/thumb/v7e-m+fp/hard/libgcc.a(libunwind.o)
_Unwind_Resume                                    /usr/bin/../lib/gcc/arm-none-eabi/12.2.1/thumb/v7e-m+fp/hard/libgcc.a(libunwind.o)
                                                  /usr/bin/../lib/gcc/arm-none-eabi/12.2.1/../../../../arm-none-eabi/lib/thumb/v7e-m+fp/hard/libstdc++_nano.a(eh_arm.o)
_Unwind_Resume_or_Rethrow                         /usr/bin/../lib/gcc/arm-none-eabi/12.2.1/thumb/v7e-m+fp/hard/libgcc.a(libunwind.o)
_Unwind_VRS_Get                                   /usr/bin/../lib/gcc/arm-none-eabi/12.2.1/thumb/v7e-m+fp/hard/libgcc.a(unwind-arm.o)
                                                  /usr/bin/../lib/gcc/arm-none-eabi/12.2.1/thumb/v7e-m+fp/hard/libgcc.a(pr-support.o)
                                                  /usr/bin/../lib/gcc/arm-none-eabi/12.2.1/../../../../arm-none-eabi/lib/thumb/v7e-m+fp/hard/libstdc++_nano.a(eh_personality.o)
_Unwind_VRS_Pop                                   /usr/bin/../lib/gcc/arm-none-eabi/12.2.1/thumb/v7e-m+fp/hard/libgcc.a(unwind-arm.o)
                                                  /usr/bin/../lib/gcc/arm-none-eabi/12.2.1/thumb/v7e-m+fp/hard/libgcc.a(pr-support.o)
_Unwind_VRS_Set                                   /usr/bin/../lib/gcc/arm-none-eabi/12.2.1/thumb/v7e-m+fp/hard/libgcc.a(unwind-arm.o)
                                                  /usr/bin/../lib/gcc/arm-none-eabi/12.2.1/thumb/v7e-m+fp/hard/libgcc.a(pr-support.o)
                                                  /usr/bin/../lib/gcc/arm-none-eabi/12.2.1/../../../../arm-none-eabi/lib/thumb/v7e-m+fp/hard/libstdc++_nano.a(eh_personality.o)
__TMC_END__                                       /usr/bin/../lib/gcc/arm-none-eabi/12.2.1/thumb/v7e-m+fp/hard/crtend.o
                                                  /usr/bin/../lib/gcc/arm-none-eabi/12.2.1/thumb/v7e-m+fp/hard/crtbegin.o
___Unwind_Backtrace                               /usr/bin/../lib/gcc/arm-none-eabi/12.2.1/thumb/v7e-m+fp/hard/libgcc.a(libunwind.o)
___Unwind_ForcedUnwind                            /usr/bin/../lib/gcc/arm-none-eabi/12.2.1/thumb/v7e-m+fp/hard/libgcc.a(libunwind.o)
___Unwind_RaiseException                          /usr/bin/../lib/gcc/arm-none-eabi/12.2.1/thumb/v7e-m+fp/hard/libgcc.a(libunwind.o)
___Unwind_Resume                                  /usr/bin/../lib/gcc/arm-none-eabi/12.2.1/thumb/v7e-m+fp/hard/libgcc.a(libunwind.o)
___Unwind_Resume_or_Rethrow                       /usr/bin/../lib/gcc/arm-none-eabi/12.2.1/thumb/v7e-m+fp/hard/libgcc.a(libunwind.o)
__aeabi_atexit                                    /usr/bin/../lib/gcc/arm-none-eabi/12.2.1/../../../../arm-none-eabi/lib/thumb/v7e-m+fp/hard/libstdc++_nano.a(atexit_arm.o)
                                                  /usr/bin/../lib/gcc/arm-none-eabi/12.2.1/../../../../arm-none-eabi/lib/thumb/v7e-m+fp/hard/libstdc++_nano.a(eh_globals.o)
__aeabi_unwind_cpp_pr0                            /usr/bin/../lib/gcc/arm-none-eabi/12.2.1/thumb/v7e-m+fp/hard/libgcc.a(unwind-arm.o)
                                                  /usr/bin/../lib/gcc/arm-none-eabi/12.2.1/thumb/v7e-m+fp/hard/libgcc.a(pr-support.o)
                                                  Debug/Src/syscalls.o
                                                  Debug/Drivers/GPIO/IOPin.o
__aeabi_unwind_cpp_pr1                            /usr/bin/../lib/gcc/arm-none-eabi/12.2.1/thumb/v7e-m+fp/hard/libgcc.a(unwind-arm.o)
                                                  /usr/bin/../lib/gcc/arm-none-eabi/12.2.1/thumb/v7e-m+fp/hard/libgcc.a(pr-support.o)
                                                  Debug/Src/sysmem.o
                                                  Debug/Src/syscalls.o
                                                  Debug/Drivers/GPIO/IOPin.o
__aeabi_unwind_cpp_pr2                            /usr/bin/../lib/gcc/arm-none-eabi/12.2.1/thumb/v7e-m+fp/hard/libgcc.a(unwind-arm.o)
__bss_end__                                       /usr/bin/../lib/gcc/arm-none-eabi/12.2.1/../../../../arm-none-eabi/lib/thumb/v7e-m+fp/hard/crt0.o
__bss_start__                                     /usr/bin/../lib/gcc/arm-none-eabi/12.2.1/../../../../arm-none-eabi/lib/thumb/v7e-m+fp/hard/crt0.o
__call_exitprocs                                  /usr/bin/../lib/gcc/arm-none-eabi/12.2.1/../../../../arm-none-eabi/lib/thumb/v7e-m+fp/hard/libc_nano.a(libc_a-exit.o)
__cxa_atexit                                      /usr/bin/../lib/gcc/arm-none-eabi/12.2.1/../../../../arm-none-eabi/lib/thumb/v7e-m+fp/hard/libc_nano.a(libc_a-cxa_atexit.o)
                                                  /usr/bin/../lib/gcc/arm-none-eabi/12.2.1/../../../../arm-none-eabi/lib/thumb/v7e-m+fp/hard/libstdc++_nano.a(atexit_arm.o)
__cxa_atexit_dummy                                /usr/bin/../lib/gcc/arm-none-eabi/12.2.1/../../../../arm-none-eabi/lib/thumb/v7e-m+fp/hard/libc_nano.a(libc_a-cxa_atexit.o)
__cxa_begin_catch                                 /usr/bin/../lib/gcc/arm-none-eabi/12.2.1/../../../../arm-none-eabi/lib/thumb/v7e-m+fp/hard/libstdc++_nano.a(eh_catch.o)
                                                  /usr/bin/../lib/gcc/arm-none-eabi/12.2.1/../../../../arm-none-eabi/lib/thumb/v7e-m+fp/hard/libstdc++_nano.a(eh_call.o)
__cxa_begin_cleanup                               /usr/bin/../lib/gcc/arm-none-eabi/12.2.1/../../../../arm-none-eabi/lib/thumb/v7e-m+fp/hard/libstdc++_nano.a(eh_arm.o)
                                                  /usr/bin/../lib/gcc/arm-none-eabi/12.2.1/thumb/v7e-m+fp/hard/libgcc.a(unwind-arm.o)
                                                  /usr/bin/../lib/gcc/arm-none-eabi/12.2.1/../../../../arm-none-eabi/lib/thumb/v7e-m+fp/hard/libstdc++_nano.a(eh_personality.o)
__cxa_call_terminate                              /usr/bin/../lib/gcc/arm-none-eabi/12.2.1/../../../../arm-none-eabi/lib/thumb/v7e-m+fp/hard/libstdc++_nano.a(eh_call.o)
                                                  /usr/bin/../lib/gcc/arm-none-eabi/12.2.1/../../../../arm-none-eabi/lib/thumb/v7e-m+fp/hard/libstdc++_nano.a(eh_personality.o)
__cxa_call_unexpected                             /usr/bin/../lib/gcc/arm-none-eabi/12.2.1/../../../../arm-none-eabi/lib/thumb/v7e-m+fp/hard/libstdc++_nano.a(eh_call.o)
                                                  /usr/bin/../lib/gcc/arm-none-eabi/12.2.1/thumb/v7e-m+fp/hard/libgcc.a(unwind-arm.o)
__cxa_end_catch                                   /usr/bin/../lib/gcc/arm-none-eabi/12.2.1/../../../../arm-none-eabi/lib/thumb/v7e-m+fp/hard/libstdc++_nano.a(eh_catch.o)
__cxa_end_cleanup                                 /usr/bin/../lib/gcc/arm-none-eabi/12.2.1/../../../../arm-none-eabi/lib/thumb/v7e-m+fp/hard/libstdc++_nano.a(eh_arm.o)
                                                  Debug/Drivers/GPIO/IOPin.o
__cxa_get_exception_ptr                           /usr/bin/../lib/gcc/arm-none-eabi/12.2.1/../../../../arm-none-eabi/lib/thumb/v7e-m+fp/hard/libstdc++_nano.a(eh_catch.o)
__cxa_get_globals                                 /usr/bin/../lib/gcc/arm-none-eabi/12.2.1/../../../../arm-none-eabi/lib/thumb/v7e-m+fp/hard/libstdc++_nano.a(eh_globals.o)
                                                  /usr/bin/../lib/gcc/arm-none-eabi/12.2.1/../../../../arm-none-eabi/lib/thumb/v7e-m+fp/hard/libstdc++_nano.a(eh_catch.o)
                                                  /usr/bin/../lib/gcc/arm-none-eabi/12.2.1/../../../../arm-none-eabi/lib/thumb/v7e-m+fp/hard/libstdc++_nano.a(eh_arm.o)
__cxa_get_globals_fast                            /usr/bin/../lib/gcc/arm-none-eabi/12.2.1/../../../../arm-none-eabi/lib/thumb/v7e-m+fp/hard/libstdc++_nano.a(eh_globals.o)
                                                  /usr/bin/../lib/gcc/arm-none-eabi/12.2.1/../../../../arm-none-eabi/lib/thumb/v7e-m+fp/hard/libstdc++_nano.a(eh_catch.o)
__cxa_pure_virtual                                /usr/bin/../lib/gcc/arm-none-eabi/12.2.1/../../../../arm-none-eabi/lib/thumb/v7e-m+fp/hard/libstdc++_nano.a(eh_exception.o)
                                                  Debug/Drivers/GPIO/IOPin.o
__cxa_type_match                                  /usr/bin/../lib/gcc/arm-none-eabi/12.2.1/../../../../arm-none-eabi/lib/thumb/v7e-m+fp/hard/libstdc++_nano.a(eh_arm.o)
                                                  /usr/bin/../lib/gcc/arm-none-eabi/12.2.1/thumb/v7e-m+fp/hard/libgcc.a(unwind-arm.o)
                                                  /usr/bin/../lib/gcc/arm-none-eabi/12.2.1/../../../../arm-none-eabi/lib/thumb/v7e-m+fp/hard/libstdc++_nano.a(eh_personality.o)
__cxxabiv1::__class_type_info::__do_catch(std::type_info const*, void**, unsigned int) const /usr/bin/../lib/gcc/arm-none-eabi/12.2.1/../../../../arm-none-eabi/lib/thumb/v7e-m+fp/hard/libstdc++_nano.a(class_type_info.o)
                                                  /usr/bin/../lib/gcc/arm-none-eabi/12.2.1/../../../../arm-none-eabi/lib/thumb/v7e-m+fp/hard/libstdc++_nano.a(si_class_type_info.o)
__cxxabiv1::__class_type_info::__do_dyncast(int, __cxxabiv1::__class_type_info::__sub_kind, __cxxabiv1::__class_type_info const*, void const*, __cxxabiv1::__class_type_info const*, void const*, __cxxabiv1::__class_type_info::__dyncast_result&) const /usr/bin/../lib/gcc/arm-none-eabi/12.2.1/../../../../arm-none-eabi/lib/thumb/v7e-m+fp/hard/libstdc++_nano.a(class_type_info.o)
__cxxabiv1::__class_type_info::__do_find_public_src(int, void const*, __cxxabiv1::__class_type_info const*, void const*) const /usr/bin/../lib/gcc/arm-none-eabi/12.2.1/../../../../arm-none-eabi/lib/thumb/v7e-m+fp/hard/libstdc++_nano.a(class_type_info.o)
__cxxabiv1::__class_type_info::__do_upcast(__cxxabiv1::__class_type_info const*, void const*, __cxxabiv1::__class_type_info::__upcast_result&) const /usr/bin/../lib/gcc/arm-none-eabi/12.2.1/../../../../arm-none-eabi/lib/thumb/v7e-m+fp/hard/libstdc++_nano.a(class_type_info.o)
                                                  /usr/bin/../lib/gcc/arm-none-eabi/12.2.1/../../../../arm-none-eabi/lib/thumb/v7e-m+fp/hard/libstdc++_nano.a(si_class_type_info.o)
__cxxabiv1::__class_type_info::__do_upcast(__cxxabiv1::__class_type_info const*, void**) const /usr/bin/../lib/gcc/arm-none-eabi/12.2.1/../../../../arm-none-eabi/lib/thumb/v7e-m+fp/hard/libstdc++_nano.a(class_type_info.o)
                                                  /usr/bin/../lib/gcc/arm-none-eabi/12.2.1/../../../../arm-none-eabi/lib/thumb/v7e-m+fp/hard/libstdc++_nano.a(si_class_type_info.o)
__cxxabiv1::__class_type_info::~__class_type_info() /usr/bin/../lib/gcc/arm-none-eabi/12.2.1/../../../../arm-none-eabi/lib/thumb/v7e-m+fp/hard/libstdc++_nano.a(class_type_info.o)
__cxxabiv1::__class_type_info::~__class_type_info() /usr/bin/../lib/gcc/arm-none-eabi/12.2.1/../../../../arm-none-eabi/lib/thumb/v7e-m+fp/hard/libstdc++_nano.a(class_type_info.o)
                                                  /usr/bin/../lib/gcc/arm-none-eabi/12.2.1/../../../../arm-none-eabi/lib/thumb/v7e-m+fp/hard/libstdc++_nano.a(si_class_type_info.o)
__cxxabiv1::__class_type_info::~__class_type_info() /usr/bin/../lib/gcc/arm-none-eabi/12.2.1/../../../../arm-none-eabi/lib/thumb/v7e-m+fp/hard/libstdc++_nano.a(class_type_info.o)
__cxxabiv1::__forced_unwind::~__forced_unwind()   /usr/bin/../lib/gcc/arm-none-eabi/12.2.1/../../../../arm-none-eabi/lib/thumb/v7e-m+fp/hard/libstdc++_nano.a(eh_exception.o)
__cxxabiv1::__forced_unwind::~__forced_unwind()   /usr/bin/../lib/gcc/arm-none-eabi/12.2.1/../../../../arm-none-eabi/lib/thumb/v7e-m+fp/hard/libstdc++_nano.a(eh_exception.o)
__cxxabiv1::__forced_unwind::~__forced_unwind()   /usr/bin/../lib/gcc/arm-none-eabi/12.2.1/../../../../arm-none-eabi/lib/thumb/v7e-m+fp/hard/libstdc++_nano.a(eh_exception.o)
__cxxabiv1::__foreign_exception::~__foreign_exception() /usr/bin/../lib/gcc/arm-none-eabi/12.2.1/../../../../arm-none-eabi/lib/thumb/v7e-m+fp/hard/libstdc++_nano.a(eh_exception.o)
__cxxabiv1::__foreign_exception::~__foreign_exception() /usr/bin/../lib/gcc/arm-none-eabi/12.2.1/../../../../arm-none-eabi/lib/thumb/v7e-m+fp/hard/libstdc++_nano.a(eh_exception.o)
__cxxabiv1::__foreign_exception::~__foreign_exception() /usr/bin/../lib/gcc/arm-none-eabi/12.2.1/../../../../arm-none-eabi/lib/thumb/v7e-m+fp/hard/libstdc++_nano.a(eh_exception.o)
__cxxabiv1::__si_class_type_info::__do_dyncast(int, __cxxabiv1::__class_type_info::__sub_kind, __cxxabiv1::__class_type_info const*, void const*, __cxxabiv1::__class_type_info const*, void const*, __cxxabiv1::__class_type_info::__dyncast_result&) const /usr/bin/../lib/gcc/arm-none-eabi/12.2.1/../../../../arm-none-eabi/lib/thumb/v7e-m+fp/hard/libstdc++_nano.a(si_class_type_info.o)
__cxxabiv1::__si_class_type_info::__do_find_public_src(int, void const*, __cxxabiv1::__class_type_info const*, void const*) const /usr/bin/../lib/gcc/arm-none-eabi/12.2.1/../../../../arm-none-eabi/lib/thumb/v7e-m+fp/hard/libstdc++_nano.a(si_class_type_info.o)
__cxxabiv1::__si_class_type_info::__do_upcast(__cxxabiv1::__class_type_info const*, void const*, __cxxabiv1::__class_type_info::__upcast_result&) const /usr/bin/../lib/gcc/arm-none-eabi/12.2.1/../../../../arm-none-eabi/lib/thumb/v7e-m+fp/hard/libstdc++_nano.a(si_class_type_info.o)
__cxxabiv1::__si_class_type_info::~__si_class_type_info() /usr/bin/../lib/gcc/arm-none-eabi/12.2.1/../../../../arm-none-eabi/lib/thumb/v7e-m+fp/hard/libstdc++_nano.a(si_class_type_info.o)
__cxxabiv1::__si_class_type_info::~__si_class_type_info() /usr/bin/../lib/gcc/arm-none-eabi/12.2.1/../../../../arm-none-eabi/lib/thumb/v7e-m+fp/hard/libstdc++_nano.a(si_class_type_info.o)
__cxxabiv1::__si_class_type_info::~__si_class_type_info() /usr/bin/../lib/gcc/arm-none-eabi/12.2.1/../../../../arm-none-eabi/lib/thumb/v7e-m+fp/hard/libstdc++_nano.a(si_class_type_info.o)
__cxxabiv1::__terminate(void (*)())               /usr/bin/../lib/gcc/arm-none-eabi/12.2.1/../../../../arm-none-eabi/lib/thumb/v7e-m+fp/hard/libstdc++_nano.a(eh_terminate.o)
                                                  /usr/bin/../lib/gcc/arm-none-eabi/12.2.1/../../../../arm-none-eabi/lib/thumb/v7e-m+fp/hard/libstdc++_nano.a(eh_call.o)
__cxxabiv1::__terminate_handler                   /usr/bin/../lib/gcc/arm-none-eabi/12.2.1/../../../../arm-none-eabi/lib/thumb/v7e-m+fp/hard/libstdc++_nano.a(eh_term_handler.o)
                                                  /usr/bin/../lib/gcc/arm-none-eabi/12.2.1/../../../../arm-none-eabi/lib/thumb/v7e-m+fp/hard/libstdc++_nano.a(eh_terminate.o)
__cxxabiv1::__unexpected(void (*)())              /usr/bin/../lib/gcc/arm-none-eabi/12.2.1/../../../../arm-none-eabi/lib/thumb/v7e-m+fp/hard/libstdc++_nano.a(eh_terminate.o)
                                                  /usr/bin/../lib/gcc/arm-none-eabi/12.2.1/../../../../arm-none-eabi/lib/thumb/v7e-m+fp/hard/libstdc++_nano.a(eh_call.o)
__cxxabiv1::__unexpected_handler                  /usr/bin/../lib/gcc/arm-none-eabi/12.2.1/../../../../arm-none-eabi/lib/thumb/v7e-m+fp/hard/libstdc++_nano.a(eh_unex_handler.o)
                                                  /usr/bin/../lib/gcc/arm-none-eabi/12.2.1/../../../../arm-none-eabi/lib/thumb/v7e-m+fp/hard/libstdc++_nano.a(eh_terminate.o)
__deregister_frame_info                           /usr/bin/../lib/gcc/arm-none-eabi/12.2.1/thumb/v7e-m+fp/hard/crtbegin.o
__dso_handle                                      /usr/bin/../lib/gcc/arm-none-eabi/12.2.1/thumb/v7e-m+fp/hard/crtbegin.o
                                                  /usr/bin/../lib/gcc/arm-none-eabi/12.2.1/../../../../arm-none-eabi/lib/thumb/v7e-m+fp/hard/libstdc++_nano.a(eh_globals.o)
__env                                             Debug/Src/syscalls.o
__errno                                           /usr/bin/../lib/gcc/arm-none-eabi/12.2.1/../../../../arm-none-eabi/lib/thumb/v7e-m+fp/hard/libc_nano.a(libc_a-errno.o)
                                                  Debug/Src/sysmem.o
                                                  Debug/Src/syscalls.o
__exidx_end                                       /usr/bin/../lib/gcc/arm-none-eabi/12.2.1/thumb/v7e-m+fp/hard/libgcc.a(unwind-arm.o)
__exidx_start                                     /usr/bin/../lib/gcc/arm-none-eabi/12.2.1/thumb/v7e-m+fp/hard/libgcc.a(unwind-arm.o)
__fp_lock_all                                     /usr/bin/../lib/gcc/arm-none-eabi/12.2.1/../../../../arm-none-eabi/lib/thumb/v7e-m+fp/hard/libc_nano.a(libc_a-findfp.o)
__fp_unlock_all                                   /usr/bin/../lib/gcc/arm-none-eabi/12.2.1/../../../../arm-none-eabi/lib/thumb/v7e-m+fp/hard/libc_nano.a(libc_a-findfp.o)
__gnu_Unwind_Backtrace                            /usr/bin/../lib/gcc/arm-none-eabi/12.2.1/thumb/v7e-m+fp/hard/libgcc.a(unwind-arm.o)
                                                  /usr/bin/../lib/gcc/arm-none-eabi/12.2.1/thumb/v7e-m+fp/hard/libgcc.a(libunwind.o)
__gnu_Unwind_Find_exidx                           /usr/bin/../lib/gcc/arm-none-eabi/12.2.1/thumb/v7e-m+fp/hard/libgcc.a(unwind-arm.o)
__gnu_Unwind_ForcedUnwind                         /usr/bin/../lib/gcc/arm-none-eabi/12.2.1/thumb/v7e-m+fp/hard/libgcc.a(unwind-arm.o)
                                                  /usr/bin/../lib/gcc/arm-none-eabi/12.2.1/thumb/v7e-m+fp/hard/libgcc.a(libunwind.o)
__gnu_Unwind_RaiseException                       /usr/bin/../lib/gcc/arm-none-eabi/12.2.1/thumb/v7e-m+fp/hard/libgcc.a(unwind-arm.o)
                                                  /usr/bin/../lib/gcc/arm-none-eabi/12.2.1/thumb/v7e-m+fp/hard/libgcc.a(libunwind.o)
__gnu_Unwind_Restore_VFP                          /usr/bin/../lib/gcc/arm-none-eabi/12.2.1/thumb/v7e-m+fp/hard/libgcc.a(libunwind.o)
                                                  /usr/bin/../lib/gcc/arm-none-eabi/12.2.1/thumb/v7e-m+fp/hard/libgcc.a(unwind-arm.o)
__gnu_Unwind_Restore_VFP_D                        /usr/bin/../lib/gcc/arm-none-eabi/12.2.1/thumb/v7e-m+fp/hard/libgcc.a(libunwind.o)
                                                  /usr/bin/../lib/gcc/arm-none-eabi/12.2.1/thumb/v7e-m+fp/hard/libgcc.a(unwind-arm.o)
__gnu_Unwind_Restore_VFP_D_16_to_31               /usr/bin/../lib/gcc/arm-none-eabi/12.2.1/thumb/v7e-m+fp/hard/libgcc.a(libunwind.o)
                                                  /usr/bin/../lib/gcc/arm-none-eabi/12.2.1/thumb/v7e-m+fp/hard/libgcc.a(unwind-arm.o)
__gnu_Unwind_Restore_WMMXC                        /usr/bin/../lib/gcc/arm-none-eabi/12.2.1/thumb/v7e-m+fp/hard/libgcc.a(libunwind.o)
                                                  /usr/bin/../lib/gcc/arm-none-eabi/12.2.1/thumb/v7e-m+fp/hard/libgcc.a(unwind-arm.o)
__gnu_Unwind_Restore_WMMXD                        /usr/bin/../lib/gcc/arm-none-eabi/12.2.1/thumb/v7e-m+fp/hard/libgcc.a(libunwind.o)
                                                  /usr/bin/../lib/gcc/arm-none-eabi/12.2.1/thumb/v7e-m+fp/hard/libgcc.a(unwind-arm.o)
__gnu_Unwind_Resume                               /usr/bin/../lib/gcc/arm-none-eabi/12.2.1/thumb/v7e-m+fp/hard/libgcc.a(unwind-arm.o)
                                                  /usr/bin/../lib/gcc/arm-none-eabi/12.2.1/thumb/v7e-m+fp/hard/libgcc.a(libunwind.o)
__gnu_Unwind_Resume_or_Rethrow                    /usr/bin/../lib/gcc/arm-none-eabi/12.2.1/thumb/v7e-m+fp/hard/libgcc.a(unwind-arm.o)
                                                  /usr/bin/../lib/gcc/arm-none-eabi/12.2.1/thumb/v7e-m+fp/hard/libgcc.a(libunwind.o)
__gnu_Unwind_Save_VFP                             /usr/bin/../lib/gcc/arm-none-eabi/12.2.1/thumb/v7e-m+fp/hard/libgcc.a(libunwind.o)
                                                  /usr/bin/../lib/gcc/arm-none-eabi/12.2.1/thumb/v7e-m+fp/hard/libgcc.a(unwind-arm.o)
__gnu_Unwind_Save_VFP_D                           /usr/bin/../lib/gcc/arm-none-eabi/12.2.1/thumb/v7e-m+fp/hard/libgcc.a(libunwind.o)
                                                  /usr/bin/../lib/gcc/arm-none-eabi/12.2.1/thumb/v7e-m+fp/hard/libgcc.a(unwind-arm.o)
__gnu_Unwind_Save_VFP_D_16_to_31                  /usr/bin/../lib/gcc/arm-none-eabi/12.2.1/thumb/v7e-m+fp/hard/libgcc.a(libunwind.o)
                                                  /usr/bin/../lib/gcc/arm-none-eabi/12.2.1/thumb/v7e-m+fp/hard/libgcc.a(unwind-arm.o)
__gnu_Unwind_Save_WMMXC                           /usr/bin/../lib/gcc/arm-none-eabi/12.2.1/thumb/v7e-m+fp/hard/libgcc.a(libunwind.o)
                                                  /usr/bin/../lib/gcc/arm-none-eabi/12.2.1/thumb/v7e-m+fp/hard/libgcc.a(unwind-arm.o)
__gnu_Unwind_Save_WMMXD                           /usr/bin/../lib/gcc/arm-none-eabi/12.2.1/thumb/v7e-m+fp/hard/libgcc.a(libunwind.o)
                                                  /usr/bin/../lib/gcc/arm-none-eabi/12.2.1/thumb/v7e-m+fp/hard/libgcc.a(unwind-arm.o)
__gnu_end_cleanup                                 /usr/bin/../lib/gcc/arm-none-eabi/12.2.1/../../../../arm-none-eabi/lib/thumb/v7e-m+fp/hard/libstdc++_nano.a(eh_arm.o)
__gnu_unwind_execute                              /usr/bin/../lib/gcc/arm-none-eabi/12.2.1/thumb/v7e-m+fp/hard/libgcc.a(pr-support.o)
                                                  /usr/bin/../lib/gcc/arm-none-eabi/12.2.1/thumb/v7e-m+fp/hard/libgcc.a(unwind-arm.o)
__gnu_unwind_frame                                /usr/bin/../lib/gcc/arm-none-eabi/12.2.1/thumb/v7e-m+fp/hard/libgcc.a(pr-support.o)
                                                  /usr/bin/../lib/gcc/arm-none-eabi/12.2.1/../../../../arm-none-eabi/lib/thumb/v7e-m+fp/hard/libstdc++_nano.a(eh_personality.o)
__gxx_personality_v0                              /usr/bin/../lib/gcc/arm-none-eabi/12.2.1/../../../../arm-none-eabi/lib/thumb/v7e-m+fp/hard/libstdc++_nano.a(eh_personality.o)
                                                  Debug/Drivers/GPIO/IOPin.o
__init_array_end                                  /usr/bin/../lib/gcc/arm-none-eabi/12.2.1/../../../../arm-none-eabi/lib/thumb/v7e-m+fp/hard/libc_nano.a(libc_a-init.o)
__init_array_start                                /usr/bin/../lib/gcc/arm-none-eabi/12.2.1/../../../../arm-none-eabi/lib/thumb/v7e-m+fp/hard/libc_nano.a(libc_a-init.o)
__io_getchar                                      Debug/Src/syscalls.o
__io_putchar                                      Debug/Src/syscalls.o
__libc_fini_array                                 /usr/bin/../lib/gcc/arm-none-eabi/12.2.1/../../../../arm-none-eabi/lib/thumb/v7e-m+fp/hard/crt0.o
__libc_init_array                                 /usr/bin/../lib/gcc/arm-none-eabi/12.2.1/../../../../arm-none-eabi/lib/thumb/v7e-m+fp/hard/libc_nano.a(libc_a-init.o)
                                                  Debug/Startup/startup_stm32f411retx.o
                                                  /usr/bin/../lib/gcc/arm-none-eabi/12.2.1/../../../../arm-none-eabi/lib/thumb/v7e-m+fp/hard/crt0.o
__lock___arc4random_mutex                         /usr/bin/../lib/gcc/arm-none-eabi/12.2.1/../../../../arm-none-eabi/lib/thumb/v7e-m+fp/hard/libc_nano.a(libc_a-lock.o)
__lock___at_quick_exit_mutex                      /usr/bin/../lib/gcc/arm-none-eabi/12.2.1/../../../../arm-none-eabi/lib/thumb/v7e-m+fp/hard/libc_nano.a(libc_a-lock.o)
__lock___atexit_recursive_mutex                   /usr/bin/../lib/gcc/arm-none-eabi/12.2.1/../../../../arm-none-eabi/lib/thumb/v7e-m+fp/hard/libc_nano.a(libc_a-lock.o)
__lock___dd_hash_mutex                            /usr/bin/../lib/gcc/arm-none-eabi/12.2.1/../../../../arm-none-eabi/lib/thumb/v7e-m+fp/hard/libc_nano.a(libc_a-lock.o)
__lock___env_recursive_mutex                      /usr/bin/../lib/gcc/arm-none-eabi/12.2.1/../../../../arm-none-eabi/lib/thumb/v7e-m+fp/hard/libc_nano.a(libc_a-lock.o)
__lock___malloc_recursive_mutex                   /usr/bin/../lib/gcc/arm-none-eabi/12.2.1/../../../../arm-none-eabi/lib/thumb/v7e-m+fp/hard/libc_nano.a(libc_a-lock.o)
                                                  /usr/bin/../lib/gcc/arm-none-eabi/12.2.1/../../../../arm-none-eabi/lib/thumb/v7e-m+fp/hard/libc_nano.a(libc_a-mlock.o)
__lock___sfp_recursive_mutex                      /usr/bin/../lib/gcc/arm-none-eabi/12.2.1/../../../../arm-none-eabi/lib/thumb/v7e-m+fp/hard/libc_nano.a(libc_a-lock.o)
                                                  /usr/bin/../lib/gcc/arm-none-eabi/12.2.1/../../../../arm-none-eabi/lib/thumb/v7e-m+fp/hard/libc_nano.a(libc_a-findfp.o)
__lock___tz_mutex                                 /usr/bin/../lib/gcc/arm-none-eabi/12.2.1/../../../../arm-none-eabi/lib/thumb/v7e-m+fp/hard/libc_nano.a(libc_a-lock.o)
__malloc_free_list                                /usr/bin/../lib/gcc/arm-none-eabi/12.2.1/../../../../arm-none-eabi/lib/thumb/v7e-m+fp/hard/libc_nano.a(libc_a-mallocr.o)
                                                  /usr/bin/../lib/gcc/arm-none-eabi/12.2.1/../../../../arm-none-eabi/lib/thumb/v7e-m+fp/hard/libc_nano.a(libc_a-freer.o)
__malloc_lock                                     /usr/bin/../lib/gcc/arm-none-eabi/12.2.1/../../../../arm-none-eabi/lib/thumb/v7e-m+fp/hard/libc_nano.a(libc_a-mlock.o)
                                                  /usr/bin/../lib/gcc/arm-none-eabi/12.2.1/../../../../arm-none-eabi/lib/thumb/v7e-m+fp/hard/libc_nano.a(libc_a-freer.o)
                                                  /usr/bin/../lib/gcc/arm-none-eabi/12.2.1/../../../../arm-none-eabi/lib/thumb/v7e-m+fp/hard/libc_nano.a(libc_a-mallocr.o)
__malloc_sbrk_start                               /usr/bin/../lib/gcc/arm-none-eabi/12.2.1/../../../../arm-none-eabi/lib/thumb/v7e-m+fp/hard/libc_nano.a(libc_a-mallocr.o)
__malloc_unlock                                   /usr/bin/../lib/gcc/arm-none-eabi/12.2.1/../../../../arm-none-eabi/lib/thumb/v7e-m+fp/hard/libc_nano.a(libc_a-mlock.o)
                                                  /usr/bin/../lib/gcc/arm-none-eabi/12.2.1/../../../../arm-none-eabi/lib/thumb/v7e-m+fp/hard/libc_nano.a(libc_a-freer.o)
                                                  /usr/bin/../lib/gcc/arm-none-eabi/12.2.1/../../../../arm-none-eabi/lib/thumb/v7e-m+fp/hard/libc_nano.a(libc_a-mallocr.o)
__on_exit_args                                    /usr/bin/../lib/gcc/arm-none-eabi/12.2.1/../../../../arm-none-eabi/lib/thumb/v7e-m+fp/hard/libc_nano.a(libc_a-on_exit_args.o)
                                                  /usr/bin/../lib/gcc/arm-none-eabi/12.2.1/../../../../arm-none-eabi/lib/thumb/v7e-m+fp/hard/libc_nano.a(libc_a-cxa_atexit.o)
__preinit_array_end                               /usr/bin/../lib/gcc/arm-none-eabi/12.2.1/../../../../arm-none-eabi/lib/thumb/v7e-m+fp/hard/libc_nano.a(libc_a-init.o)
__preinit_array_start                             /usr/bin/../lib/gcc/arm-none-eabi/12.2.1/../../../../arm-none-eabi/lib/thumb/v7e-m+fp/hard/libc_nano.a(libc_a-init.o)
__register_exitproc                               /usr/bin/../lib/gcc/arm-none-eabi/12.2.1/../../../../arm-none-eabi/lib/thumb/v7e-m+fp/hard/libc_nano.a(libc_a-cxa_atexit.o)
__register_frame_info                             /usr/bin/../lib/gcc/arm-none-eabi/12.2.1/thumb/v7e-m+fp/hard/crtbegin.o
__restore_core_regs                               /usr/bin/../lib/gcc/arm-none-eabi/12.2.1/thumb/v7e-m+fp/hard/libgcc.a(libunwind.o)
__retarget_lock_acquire                           /usr/bin/../lib/gcc/arm-none-eabi/12.2.1/../../../../arm-none-eabi/lib/thumb/v7e-m+fp/hard/libc_nano.a(libc_a-lock.o)
__retarget_lock_acquire_recursive                 /usr/bin/../lib/gcc/arm-none-eabi/12.2.1/../../../../arm-none-eabi/lib/thumb/v7e-m+fp/hard/libc_nano.a(libc_a-lock.o)
                                                  /usr/bin/../lib/gcc/arm-none-eabi/12.2.1/../../../../arm-none-eabi/lib/thumb/v7e-m+fp/hard/libc_nano.a(libc_a-fflush.o)
                                                  /usr/bin/../lib/gcc/arm-none-eabi/12.2.1/../../../../arm-none-eabi/lib/thumb/v7e-m+fp/hard/libc_nano.a(libc_a-mlock.o)
                                                  /usr/bin/../lib/gcc/arm-none-eabi/12.2.1/../../../../arm-none-eabi/lib/thumb/v7e-m+fp/hard/libc_nano.a(libc_a-findfp.o)
__retarget_lock_close                             /usr/bin/../lib/gcc/arm-none-eabi/12.2.1/../../../../arm-none-eabi/lib/thumb/v7e-m+fp/hard/libc_nano.a(libc_a-lock.o)
__retarget_lock_close_recursive                   /usr/bin/../lib/gcc/arm-none-eabi/12.2.1/../../../../arm-none-eabi/lib/thumb/v7e-m+fp/hard/libc_nano.a(libc_a-lock.o)
__retarget_lock_init                              /usr/bin/../lib/gcc/arm-none-eabi/12.2.1/../../../../arm-none-eabi/lib/thumb/v7e-m+fp/hard/libc_nano.a(libc_a-lock.o)
__retarget_lock_init_recursive                    /usr/bin/../lib/gcc/arm-none-eabi/12.2.1/../../../../arm-none-eabi/lib/thumb/v7e-m+fp/hard/libc_nano.a(libc_a-lock.o)
                                                  /usr/bin/../lib/gcc/arm-none-eabi/12.2.1/../../../../arm-none-eabi/lib/thumb/v7e-m+fp/hard/libc_nano.a(libc_a-findfp.o)
__retarget_lock_release                           /usr/bin/../lib/gcc/arm-none-eabi/12.2.1/../../../../arm-none-eabi/lib/thumb/v7e-m+fp/hard/libc_nano.a(libc_a-lock.o)
__retarget_lock_release_recursive                 /usr/bin/../lib/gcc/arm-none-eabi/12.2.1/../../../../arm-none-eabi/lib/thumb/v7e-m+fp/hard/libc_nano.a(libc_a-lock.o)
                                                  /usr/bin/../lib/gcc/arm-none-eabi/12.2.1/../../../../arm-none-eabi/lib/thumb/v7e-m+fp/hard/libc_nano.a(libc_a-fflush.o)
                                                  /usr/bin/../lib/gcc/arm-none-eabi/12.2.1/../../../../arm-none-eabi/lib/thumb/v7e-m+fp/hard/libc_nano.a(libc_a-mlock.o)
                                                  /usr/bin/../lib/gcc/arm-none-eabi/12.2.1/../../../../arm-none-eabi/lib/thumb/v7e-m+fp/hard/libc_nano.a(libc_a-findfp.o)
__retarget_lock_try_acquire                       /usr/bin/../lib/gcc/arm-none-eabi/12.2.1/../../../../arm-none-eabi/lib/thumb/v7e-m+fp/hard/libc_nano.a(libc_a-lock.o)
__retarget_lock_try_acquire_recursive             /usr/bin/../lib/gcc/arm-none-eabi/12.2.1/../../../../arm-none-eabi/lib/thumb/v7e-m+fp/hard/libc_nano.a(libc_a-lock.o)
__sclose                                          /usr/bin/../lib/gcc/arm-none-eabi/12.2.1/../../../../arm-none-eabi/lib/thumb/v7e-m+fp/hard/libc_nano.a(libc_a-stdio.o)
                                                  /usr/bin/../lib/gcc/arm-none-eabi/12.2.1/../../../../arm-none-eabi/lib/thumb/v7e-m+fp/hard/libc_nano.a(libc_a-findfp.o)
__seofread                                        /usr/bin/../lib/gcc/arm-none-eabi/12.2.1/../../../../arm-none-eabi/lib/thumb/v7e-m+fp/hard/libc_nano.a(libc_a-stdio.o)
__sf                                              /usr/bin/../lib/gcc/arm-none-eabi/12.2.1/../../../../arm-none-eabi/lib/thumb/v7e-m+fp/hard/libc_nano.a(libc_a-findfp.o)
                                                  /usr/bin/../lib/gcc/arm-none-eabi/12.2.1/../../../../arm-none-eabi/lib/thumb/v7e-m+fp/hard/libc_nano.a(libc_a-impure.o)
__sflush_r                                        /usr/bin/../lib/gcc/arm-none-eabi/12.2.1/../../../../arm-none-eabi/lib/thumb/v7e-m+fp/hard/libc_nano.a(libc_a-fflush.o)
__sfp                                             /usr/bin/../lib/gcc/arm-none-eabi/12.2.1/../../../../arm-none-eabi/lib/thumb/v7e-m+fp/hard/libc_nano.a(libc_a-findfp.o)
__sfp_lock_acquire                                /usr/bin/../lib/gcc/arm-none-eabi/12.2.1/../../../../arm-none-eabi/lib/thumb/v7e-m+fp/hard/libc_nano.a(libc_a-findfp.o)
__sfp_lock_release                                /usr/bin/../lib/gcc/arm-none-eabi/12.2.1/../../../../arm-none-eabi/lib/thumb/v7e-m+fp/hard/libc_nano.a(libc_a-findfp.o)
__sglue                                           /usr/bin/../lib/gcc/arm-none-eabi/12.2.1/../../../../arm-none-eabi/lib/thumb/v7e-m+fp/hard/libc_nano.a(libc_a-findfp.o)
                                                  /usr/bin/../lib/gcc/arm-none-eabi/12.2.1/../../../../arm-none-eabi/lib/thumb/v7e-m+fp/hard/libc_nano.a(libc_a-fflush.o)
__sigtramp                                        /usr/bin/../lib/gcc/arm-none-eabi/12.2.1/../../../../arm-none-eabi/lib/thumb/v7e-m+fp/hard/libc_nano.a(libc_a-signal.o)
__sigtramp_r                                      /usr/bin/../lib/gcc/arm-none-eabi/12.2.1/../../../../arm-none-eabi/lib/thumb/v7e-m+fp/hard/libc_nano.a(libc_a-signal.o)
__sinit                                           /usr/bin/../lib/gcc/arm-none-eabi/12.2.1/../../../../arm-none-eabi/lib/thumb/v7e-m+fp/hard/libc_nano.a(libc_a-findfp.o)
                                                  /usr/bin/../lib/gcc/arm-none-eabi/12.2.1/../../../../arm-none-eabi/lib/thumb/v7e-m+fp/hard/libc_nano.a(libc_a-fflush.o)
__sread                                           /usr/bin/../lib/gcc/arm-none-eabi/12.2.1/../../../../arm-none-eabi/lib/thumb/v7e-m+fp/hard/libc_nano.a(libc_a-stdio.o)
                                                  /usr/bin/../lib/gcc/arm-none-eabi/12.2.1/../../../../arm-none-eabi/lib/thumb/v7e-m+fp/hard/libc_nano.a(libc_a-findfp.o)
__sseek                                           /usr/bin/../lib/gcc/arm-none-eabi/12.2.1/../../../../arm-none-eabi/lib/thumb/v7e-m+fp/hard/libc_nano.a(libc_a-stdio.o)
                                                  /usr/bin/../lib/gcc/arm-none-eabi/12.2.1/../../../../arm-none-eabi/lib/thumb/v7e-m+fp/hard/libc_nano.a(libc_a-findfp.o)
__stack                                           /usr/bin/../lib/gcc/arm-none-eabi/12.2.1/../../../../arm-none-eabi/lib/thumb/v7e-m+fp/hard/crt0.o
__stdio_exit_handler                              /usr/bin/../lib/gcc/arm-none-eabi/12.2.1/../../../../arm-none-eabi/lib/thumb/v7e-m+fp/hard/libc_nano.a(libc_a-findfp.o)
                                                  /usr/bin/../lib/gcc/arm-none-eabi/12.2.1/../../../../arm-none-eabi/lib/thumb/v7e-m+fp/hard/libc_nano.a(libc_a-exit.o)
__swrite                                          /usr/bin/../lib/gcc/arm-none-eabi/12.2.1/../../../../arm-none-eabi/lib/thumb/v7e-m+fp/hard/libc_nano.a(libc_a-stdio.o)
                                                  /usr/bin/../lib/gcc/arm-none-eabi/12.2.1/../../../../arm-none-eabi/lib/thumb/v7e-m+fp/hard/libc_nano.a(libc_a-findfp.o)
_close                                            Debug/Src/syscalls.o
                                                  /usr/bin/../lib/gcc/arm-none-eabi/12.2.1/../../../../arm-none-eabi/lib/thumb/v7e-m+fp/hard/libc_nano.a(libc_a-closer.o)
_close_r                                          /usr/bin/../lib/gcc/arm-none-eabi/12.2.1/../../../../arm-none-eabi/lib/thumb/v7e-m+fp/hard/libc_nano.a(libc_a-closer.o)
                                                  /usr/bin/../lib/gcc/arm-none-eabi/12.2.1/../../../../arm-none-eabi/lib/thumb/v7e-m+fp/hard/libc_nano.a(libc_a-stdio.o)
_ebss                                             Debug/Startup/startup_stm32f411retx.o
_edata                                            Debug/Startup/startup_stm32f411retx.o
_end                                              Debug/Src/sysmem.o
_estack                                           Debug/Startup/startup_stm32f411retx.o
                                                  Debug/Src/sysmem.o
_execve                                           Debug/Src/syscalls.o
_exit                                             Debug/Src/syscalls.o
                                                  /usr/bin/../lib/gcc/arm-none-eabi/12.2.1/../../../../arm-none-eabi/lib/thumb/v7e-m+fp/hard/libc_nano.a(libc_a-abort.o)
                                                  /usr/bin/../lib/gcc/arm-none-eabi/12.2.1/../../../../arm-none-eabi/lib/thumb/v7e-m+fp/hard/libc_nano.a(libc_a-exit.o)
_fflush_r                                         /usr/bin/../lib/gcc/arm-none-eabi/12.2.1/../../../../arm-none-eabi/lib/thumb/v7e-m+fp/hard/libc_nano.a(libc_a-fflush.o)
                                                  /usr/bin/../lib/gcc/arm-none-eabi/12.2.1/../../../../arm-none-eabi/lib/thumb/v7e-m+fp/hard/libc_nano.a(libc_a-findfp.o)
_fini                                             /usr/bin/../lib/gcc/arm-none-eabi/12.2.1/thumb/v7e-m+fp/hard/crti.o
_fork                                             Debug/Src/syscalls.o
_free_r                                           /usr/bin/../lib/gcc/arm-none-eabi/12.2.1/../../../../arm-none-eabi/lib/thumb/v7e-m+fp/hard/libc_nano.a(libc_a-freer.o)
                                                  /usr/bin/../lib/gcc/arm-none-eabi/12.2.1/../../../../arm-none-eabi/lib/thumb/v7e-m+fp/hard/libc_nano.a(libc_a-fflush.o)
                                                  /usr/bin/../lib/gcc/arm-none-eabi/12.2.1/../../../../arm-none-eabi/lib/thumb/v7e-m+fp/hard/libc_nano.a(libc_a-reent.o)
                                                  /usr/bin/../lib/gcc/arm-none-eabi/12.2.1/../../../../arm-none-eabi/lib/thumb/v7e-m+fp/hard/libc_nano.a(libc_a-malloc.o)
_fstat                                            Debug/Src/syscalls.o
_fwalk_sglue                                      /usr/bin/../lib/gcc/arm-none-eabi/12.2.1/../../../../arm-none-eabi/lib/thumb/v7e-m+fp/hard/libc_nano.a(libc_a-fwalk.o)
                                                  /usr/bin/../lib/gcc/arm-none-eabi/12.2.1/../../../../arm-none-eabi/lib/thumb/v7e-m+fp/hard/libc_nano.a(libc_a-fflush.o)
                                                  /usr/bin/../lib/gcc/arm-none-eabi/12.2.1/../../../../arm-none-eabi/lib/thumb/v7e-m+fp/hard/libc_nano.a(libc_a-findfp.o)
_getpid                                           Debug/Src/syscalls.o
                                                  /usr/bin/../lib/gcc/arm-none-eabi/12.2.1/../../../../arm-none-eabi/lib/thumb/v7e-m+fp/hard/libc_nano.a(libc_a-signalr.o)
_getpid_r                                         /usr/bin/../lib/gcc/arm-none-eabi/12.2.1/../../../../arm-none-eabi/lib/thumb/v7e-m+fp/hard/libc_nano.a(libc_a-signalr.o)
                                                  /usr/bin/../lib/gcc/arm-none-eabi/12.2.1/../../../../arm-none-eabi/lib/thumb/v7e-m+fp/hard/libc_nano.a(libc_a-signal.o)
_impure_data                                      /usr/bin/../lib/gcc/arm-none-eabi/12.2.1/../../../../arm-none-eabi/lib/thumb/v7e-m+fp/hard/libc_nano.a(libc_a-impure.o)
                                                  /usr/bin/../lib/gcc/arm-none-eabi/12.2.1/../../../../arm-none-eabi/lib/thumb/v7e-m+fp/hard/libc_nano.a(libc_a-fflush.o)
                                                  /usr/bin/../lib/gcc/arm-none-eabi/12.2.1/../../../../arm-none-eabi/lib/thumb/v7e-m+fp/hard/libc_nano.a(libc_a-findfp.o)
_impure_ptr                                       /usr/bin/../lib/gcc/arm-none-eabi/12.2.1/../../../../arm-none-eabi/lib/thumb/v7e-m+fp/hard/libc_nano.a(libc_a-impure.o)
                                                  /usr/bin/../lib/gcc/arm-none-eabi/12.2.1/../../../../arm-none-eabi/lib/thumb/v7e-m+fp/hard/libc_nano.a(libc_a-signal.o)
                                                  /usr/bin/../lib/gcc/arm-none-eabi/12.2.1/../../../../arm-none-eabi/lib/thumb/v7e-m+fp/hard/libc_nano.a(libc_a-fflush.o)
                                                  /usr/bin/../lib/gcc/arm-none-eabi/12.2.1/../../../../arm-none-eabi/lib/thumb/v7e-m+fp/hard/libc_nano.a(libc_a-reent.o)
                                                  /usr/bin/../lib/gcc/arm-none-eabi/12.2.1/../../../../arm-none-eabi/lib/thumb/v7e-m+fp/hard/libc_nano.a(libc_a-errno.o)
                                                  /usr/bin/../lib/gcc/arm-none-eabi/12.2.1/../../../../arm-none-eabi/lib/thumb/v7e-m+fp/hard/libc_nano.a(libc_a-malloc.o)
_init                                             /usr/bin/../lib/gcc/arm-none-eabi/12.2.1/thumb/v7e-m+fp/hard/crti.o
                                                  /usr/bin/../lib/gcc/arm-none-eabi/12.2.1/../../../../arm-none-eabi/lib/thumb/v7e-m+fp/hard/libc_nano.a(libc_a-init.o)
_init_signal                                      /usr/bin/../lib/gcc/arm-none-eabi/12.2.1/../../../../arm-none-eabi/lib/thumb/v7e-m+fp/hard/libc_nano.a(libc_a-signal.o)
_init_signal_r                                    /usr/bin/../lib/gcc/arm-none-eabi/12.2.1/../../../../arm-none-eabi/lib/thumb/v7e-m+fp/hard/libc_nano.a(libc_a-signal.o)
_isatty                                           Debug/Src/syscalls.o
_kill                                             Debug/Src/syscalls.o
                                                  /usr/bin/../lib/gcc/arm-none-eabi/12.2.1/../../../../arm-none-eabi/lib/thumb/v7e-m+fp/hard/libc_nano.a(libc_a-signalr.o)
_kill_r                                           /usr/bin/../lib/gcc/arm-none-eabi/12.2.1/../../../../arm-none-eabi/lib/thumb/v7e-m+fp/hard/libc_nano.a(libc_a-signalr.o)
                                                  /usr/bin/../lib/gcc/arm-none-eabi/12.2.1/../../../../arm-none-eabi/lib/thumb/v7e-m+fp/hard/libc_nano.a(libc_a-signal.o)
_link                                             Debug/Src/syscalls.o
_lseek                                            Debug/Src/syscalls.o
                                                  /usr/bin/../lib/gcc/arm-none-eabi/12.2.1/../../../../arm-none-eabi/lib/thumb/v7e-m+fp/hard/libc_nano.a(libc_a-lseekr.o)
_lseek_r                                          /usr/bin/../lib/gcc/arm-none-eabi/12.2.1/../../../../arm-none-eabi/lib/thumb/v7e-m+fp/hard/libc_nano.a(libc_a-lseekr.o)
                                                  /usr/bin/../lib/gcc/arm-none-eabi/12.2.1/../../../../arm-none-eabi/lib/thumb/v7e-m+fp/hard/libc_nano.a(libc_a-stdio.o)
_mainCRTStartup                                   /usr/bin/../lib/gcc/arm-none-eabi/12.2.1/../../../../arm-none-eabi/lib/thumb/v7e-m+fp/hard/crt0.o
_malloc_r                                         /usr/bin/../lib/gcc/arm-none-eabi/12.2.1/../../../../arm-none-eabi/lib/thumb/v7e-m+fp/hard/libc_nano.a(libc_a-mallocr.o)
                                                  /usr/bin/../lib/gcc/arm-none-eabi/12.2.1/../../../../arm-none-eabi/lib/thumb/v7e-m+fp/hard/libc_nano.a(libc_a-signal.o)
                                                  /usr/bin/../lib/gcc/arm-none-eabi/12.2.1/../../../../arm-none-eabi/lib/thumb/v7e-m+fp/hard/libc_nano.a(libc_a-findfp.o)
                                                  /usr/bin/../lib/gcc/arm-none-eabi/12.2.1/../../../../arm-none-eabi/lib/thumb/v7e-m+fp/hard/libc_nano.a(libc_a-malloc.o)
_open                                             Debug/Src/syscalls.o
_raise_r                                          /usr/bin/../lib/gcc/arm-none-eabi/12.2.1/../../../../arm-none-eabi/lib/thumb/v7e-m+fp/hard/libc_nano.a(libc_a-signal.o)
_read                                             Debug/Src/syscalls.o
                                                  /usr/bin/../lib/gcc/arm-none-eabi/12.2.1/../../../../arm-none-eabi/lib/thumb/v7e-m+fp/hard/libc_nano.a(libc_a-readr.o)
_read_r                                           /usr/bin/../lib/gcc/arm-none-eabi/12.2.1/../../../../arm-none-eabi/lib/thumb/v7e-m+fp/hard/libc_nano.a(libc_a-readr.o)
                                                  /usr/bin/../lib/gcc/arm-none-eabi/12.2.1/../../../../arm-none-eabi/lib/thumb/v7e-m+fp/hard/libc_nano.a(libc_a-stdio.o)
_reclaim_reent                                    /usr/bin/../lib/gcc/arm-none-eabi/12.2.1/../../../../arm-none-eabi/lib/thumb/v7e-m+fp/hard/libc_nano.a(libc_a-reent.o)
_sbrk                                             Debug/Src/sysmem.o
                                                  /usr/bin/../lib/gcc/arm-none-eabi/12.2.1/../../../../arm-none-eabi/lib/thumb/v7e-m+fp/hard/libc_nano.a(libc_a-sbrkr.o)
_sbrk_r                                           /usr/bin/../lib/gcc/arm-none-eabi/12.2.1/../../../../arm-none-eabi/lib/thumb/v7e-m+fp/hard/libc_nano.a(libc_a-sbrkr.o)
                                                  /usr/bin/../lib/gcc/arm-none-eabi/12.2.1/../../../../arm-none-eabi/lib/thumb/v7e-m+fp/hard/libc_nano.a(libc_a-mallocr.o)
_sbss                                             Debug/Startup/startup_stm32f411retx.o
_sdata                                            Debug/Startup/startup_stm32f411retx.o
_sidata                                           Debug/Startup/startup_stm32f411retx.o
_signal_r                                         /usr/bin/../lib/gcc/arm-none-eabi/12.2.1/../../../../arm-none-eabi/lib/thumb/v7e-m+fp/hard/libc_nano.a(libc_a-signal.o)
_stack_init                                       /usr/bin/../lib/gcc/arm-none-eabi/12.2.1/../../../../arm-none-eabi/lib/thumb/v7e-m+fp/hard/crt0.o
_start                                            /usr/bin/../lib/gcc/arm-none-eabi/12.2.1/../../../../arm-none-eabi/lib/thumb/v7e-m+fp/hard/crt0.o
_stat                                             Debug/Src/syscalls.o
_times                                            Debug/Src/syscalls.o
_unlink                                           Debug/Src/syscalls.o
_wait                                             Debug/Src/syscalls.o
_write                                            Debug/Src/syscalls.o
                                                  /usr/bin/../lib/gcc/arm-none-eabi/12.2.1/../../../../arm-none-eabi/lib/thumb/v7e-m+fp/hard/libc_nano.a(libc_a-writer.o)
_write_r                                          /usr/bin/../lib/gcc/arm-none-eabi/12.2.1/../../../../arm-none-eabi/lib/thumb/v7e-m+fp/hard/libc_nano.a(libc_a-writer.o)
                                                  /usr/bin/../lib/gcc/arm-none-eabi/12.2.1/../../../../arm-none-eabi/lib/thumb/v7e-m+fp/hard/libc_nano.a(libc_a-stdio.o)
abort                                             /usr/bin/../lib/gcc/arm-none-eabi/12.2.1/../../../../arm-none-eabi/lib/thumb/v7e-m+fp/hard/libc_nano.a(libc_a-abort.o)
                                                  /usr/bin/../lib/gcc/arm-none-eabi/12.2.1/thumb/v7e-m+fp/hard/libgcc.a(pr-support.o)
                                                  /usr/bin/../lib/gcc/arm-none-eabi/12.2.1/../../../../arm-none-eabi/lib/thumb/v7e-m+fp/hard/libstdc++_nano.a(eh_term_handler.o)
                                                  /usr/bin/../lib/gcc/arm-none-eabi/12.2.1/../../../../arm-none-eabi/lib/thumb/v7e-m+fp/hard/libstdc++_nano.a(new_op.o)
                                                  /usr/bin/../lib/gcc/arm-none-eabi/12.2.1/../../../../arm-none-eabi/lib/thumb/v7e-m+fp/hard/libstdc++_nano.a(eh_terminate.o)
                                                  /usr/bin/../lib/gcc/arm-none-eabi/12.2.1/../../../../arm-none-eabi/lib/thumb/v7e-m+fp/hard/libstdc++_nano.a(eh_personality.o)
atexit                                            /usr/bin/../lib/gcc/arm-none-eabi/12.2.1/../../../../arm-none-eabi/lib/thumb/v7e-m+fp/hard/crt0.o
environ                                           Debug/Src/syscalls.o
errno                                             /usr/bin/../lib/gcc/arm-none-eabi/12.2.1/../../../../arm-none-eabi/lib/thumb/v7e-m+fp/hard/libc_nano.a(libc_a-reent.o)
                                                  /usr/bin/../lib/gcc/arm-none-eabi/12.2.1/../../../../arm-none-eabi/lib/thumb/v7e-m+fp/hard/libc_nano.a(libc_a-signalr.o)
                                                  /usr/bin/../lib/gcc/arm-none-eabi/12.2.1/../../../../arm-none-eabi/lib/thumb/v7e-m+fp/hard/libc_nano.a(libc_a-readr.o)
                                                  /usr/bin/../lib/gcc/arm-none-eabi/12.2.1/../../../../arm-none-eabi/lib/thumb/v7e-m+fp/hard/libc_nano.a(libc_a-lseekr.o)
                                                  /usr/bin/../lib/gcc/arm-none-eabi/12.2.1/../../../../arm-none-eabi/lib/thumb/v7e-m+fp/hard/libc_nano.a(libc_a-closer.o)
                                                  /usr/bin/../lib/gcc/arm-none-eabi/12.2.1/../../../../arm-none-eabi/lib/thumb/v7e-m+fp/hard/libc_nano.a(libc_a-writer.o)
                                                  /usr/bin/../lib/gcc/arm-none-eabi/12.2.1/../../../../arm-none-eabi/lib/thumb/v7e-m+fp/hard/libc_nano.a(libc_a-sbrkr.o)
exit                                              /usr/bin/../lib/gcc/arm-none-eabi/12.2.1/../../../../arm-none-eabi/lib/thumb/v7e-m+fp/hard/libc_nano.a(libc_a-exit.o)
                                                  /usr/bin/../lib/gcc/arm-none-eabi/12.2.1/../../../../arm-none-eabi/lib/thumb/v7e-m+fp/hard/crt0.o
fflush                                            /usr/bin/../lib/gcc/arm-none-eabi/12.2.1/../../../../arm-none-eabi/lib/thumb/v7e-m+fp/hard/libc_nano.a(libc_a-fflush.o)
free                                              /usr/bin/../lib/gcc/arm-none-eabi/12.2.1/../../../../arm-none-eabi/lib/thumb/v7e-m+fp/hard/libc_nano.a(libc_a-malloc.o)
                                                  /usr/bin/../lib/gcc/arm-none-eabi/12.2.1/../../../../arm-none-eabi/lib/thumb/v7e-m+fp/hard/libstdc++_nano.a(del_op.o)
g_pfnVectors                                      Debug/Startup/startup_stm32f411retx.o
guard variable for PeripheralBase<IOPinStatusCodes, 1u, Container<IOPinProperties, GpioPort, GpioPin, GpioMode, GpioState>>::functions Debug/Drivers/GPIO/IOPin.o
hardware_init_hook                                /usr/bin/../lib/gcc/arm-none-eabi/12.2.1/../../../../arm-none-eabi/lib/thumb/v7e-m+fp/hard/crt0.o
initialise_monitor_handles                        Debug/Src/syscalls.o
main                                              Debug/Src/main.o
                                                  Debug/Startup/startup_stm32f411retx.o
                                                  /usr/bin/../lib/gcc/arm-none-eabi/12.2.1/../../../../arm-none-eabi/lib/thumb/v7e-m+fp/hard/crt0.o
malloc                                            /usr/bin/../lib/gcc/arm-none-eabi/12.2.1/../../../../arm-none-eabi/lib/thumb/v7e-m+fp/hard/libc_nano.a(libc_a-malloc.o)
                                                  /usr/bin/../lib/gcc/arm-none-eabi/12.2.1/../../../../arm-none-eabi/lib/thumb/v7e-m+fp/hard/libstdc++_nano.a(new_op.o)
memcpy                                            /usr/bin/../lib/gcc/arm-none-eabi/12.2.1/../../../../arm-none-eabi/lib/thumb/v7e-m+fp/hard/libc_nano.a(libc_a-memcpy-stub.o)
                                                  /usr/bin/../lib/gcc/arm-none-eabi/12.2.1/thumb/v7e-m+fp/hard/libgcc.a(unwind-arm.o)
memset                                            /usr/bin/../lib/gcc/arm-none-eabi/12.2.1/../../../../arm-none-eabi/lib/thumb/v7e-m+fp/hard/libc_nano.a(libc_a-memset.o)
                                                  /usr/bin/../lib/gcc/arm-none-eabi/12.2.1/../../../../arm-none-eabi/lib/thumb/v7e-m+fp/hard/libc_nano.a(libc_a-findfp.o)
                                                  /usr/bin/../lib/gcc/arm-none-eabi/12.2.1/../../../../arm-none-eabi/lib/thumb/v7e-m+fp/hard/crt0.o
operator delete(void*)                            /usr/bin/../lib/gcc/arm-none-eabi/12.2.1/../../../../arm-none-eabi/lib/thumb/v7e-m+fp/hard/libstdc++_nano.a(del_op.o)
                                                  /usr/bin/../lib/gcc/arm-none-eabi/12.2.1/../../../../arm-none-eabi/lib/thumb/v7e-m+fp/hard/libstdc++_nano.a(del_ops.o)
operator delete(void*, unsigned int)              /usr/bin/../lib/gcc/arm-none-eabi/12.2.1/../../../../arm-none-eabi/lib/thumb/v7e-m+fp/hard/libstdc++_nano.a(del_ops.o)
                                                  /usr/bin/../lib/gcc/arm-none-eabi/12.2.1/../../../../arm-none-eabi/lib/thumb/v7e-m+fp/hard/libstdc++_nano.a(class_type_info.o)
                                                  /usr/bin/../lib/gcc/arm-none-eabi/12.2.1/../../../../arm-none-eabi/lib/thumb/v7e-m+fp/hard/libstdc++_nano.a(tinfo.o)
                                                  /usr/bin/../lib/gcc/arm-none-eabi/12.2.1/../../../../arm-none-eabi/lib/thumb/v7e-m+fp/hard/libstdc++_nano.a(si_class_type_info.o)
                                                  /usr/bin/../lib/gcc/arm-none-eabi/12.2.1/../../../../arm-none-eabi/lib/thumb/v7e-m+fp/hard/libstdc++_nano.a(eh_exception.o)
                                                  Debug/Drivers/GPIO/IOPin.o
operator new(unsigned int)                        /usr/bin/../lib/gcc/arm-none-eabi/12.2.1/../../../../arm-none-eabi/lib/thumb/v7e-m+fp/hard/libstdc++_nano.a(new_op.o)
                                                  Debug/Drivers/GPIO/IOPin.o
raise                                             /usr/bin/../lib/gcc/arm-none-eabi/12.2.1/../../../../arm-none-eabi/lib/thumb/v7e-m+fp/hard/libc_nano.a(libc_a-signal.o)
                                                  /usr/bin/../lib/gcc/arm-none-eabi/12.2.1/../../../../arm-none-eabi/lib/thumb/v7e-m+fp/hard/libc_nano.a(libc_a-abort.o)
restore_core_regs                                 /usr/bin/../lib/gcc/arm-none-eabi/12.2.1/thumb/v7e-m+fp/hard/libgcc.a(libunwind.o)
                                                  /usr/bin/../lib/gcc/arm-none-eabi/12.2.1/thumb/v7e-m+fp/hard/libgcc.a(unwind-arm.o)
signal                                            /usr/bin/../lib/gcc/arm-none-eabi/12.2.1/../../../../arm-none-eabi/lib/thumb/v7e-m+fp/hard/libc_nano.a(libc_a-signal.o)
software_init_hook                                /usr/bin/../lib/gcc/arm-none-eabi/12.2.1/../../../../arm-none-eabi/lib/thumb/v7e-m+fp/hard/crt0.o
std::_Head_base<0u, GpioPort, false>::_Head_base() Debug/Drivers/GPIO/IOPin.o
std::_Head_base<0u, GpioPort, false>::_Head_base() Debug/Drivers/GPIO/IOPin.o
std::_Head_base<0u, IOPinStatusCodes (*)(GpioPort const&, PeripheralBase<IOPinStatusCodes, 1u, Container<IOPinProperties, GpioPort, GpioPin, GpioMode, GpioState>>*), false>::_Head_base() Debug/Drivers/GPIO/IOPin.o
std::_Head_base<0u, IOPinStatusCodes (*)(GpioPort const&, PeripheralBase<IOPinStatusCodes, 1u, Container<IOPinProperties, GpioPort, GpioPin, GpioMode, GpioState>>*), false>::_Head_base() Debug/Drivers/GPIO/IOPin.o
std::_Head_base<0u, IOPinStatusCodes (*)(GpioPort const&, PeripheralBase<IOPinStatusCodes, 1u, Container<IOPinProperties, GpioPort, GpioPin, GpioMode, GpioState>>*), false>::_Head_base<IOPinStatusCodes (*)(GpioPort const&, PeripheralBase<IOPinStatusCodes, 1u, Container<IOPinProperties, GpioPort, GpioPin, GpioMode, GpioState>>*)>(IOPinStatusCodes (*&&)(GpioPort const&, PeripheralBase<IOPinStatusCodes, 1u, Container<IOPinProperties, GpioPort, GpioPin, GpioMode, GpioState>>*)) Debug/Drivers/GPIO/IOPin.o
std::_Head_base<0u, IOPinStatusCodes (*)(GpioPort const&, PeripheralBase<IOPinStatusCodes, 1u, Container<IOPinProperties, GpioPort, GpioPin, GpioMode, GpioState>>*), false>::_Head_base<IOPinStatusCodes (*)(GpioPort const&, PeripheralBase<IOPinStatusCodes, 1u, Container<IOPinProperties, GpioPort, GpioPin, GpioMode, GpioState>>*)>(IOPinStatusCodes (*&&)(GpioPort const&, PeripheralBase<IOPinStatusCodes, 1u, Container<IOPinProperties, GpioPort, GpioPin, GpioMode, GpioState>>*)) Debug/Drivers/GPIO/IOPin.o
std::_Head_base<0u, IOPinStatusCodes (*)(GpioPort const&, PeripheralBase<IOPinStatusCodes, 1u, Container<IOPinProperties, GpioPort, GpioPin, GpioMode, GpioState>>*), false>::_M_head(std::_Head_base<0u, IOPinStatusCodes (*)(GpioPort const&, PeripheralBase<IOPinStatusCodes, 1u, Container<IOPinProperties, GpioPort, GpioPin, GpioMode, GpioState>>*), false> const&) Debug/Drivers/GPIO/IOPin.o
std::_Head_base<0u, IOPinStatusCodes (*)(GpioPort const&, PeripheralBase<IOPinStatusCodes, 1u, Container<IOPinProperties, GpioPort, GpioPin, GpioMode, GpioState>>*), false>::_M_head(std::_Head_base<0u, IOPinStatusCodes (*)(GpioPort const&, PeripheralBase<IOPinStatusCodes, 1u, Container<IOPinProperties, GpioPort, GpioPin, GpioMode, GpioState>>*), false>&) Debug/Drivers/GPIO/IOPin.o
std::_Head_base<1u, GpioPin, false>::_Head_base() Debug/Drivers/GPIO/IOPin.o
std::_Head_base<1u, GpioPin, false>::_Head_base() Debug/Drivers/GPIO/IOPin.o
std::_Head_base<1u, IOPinStatusCodes (*)(GpioPin const&, PeripheralBase<IOPinStatusCodes, 1u, Container<IOPinProperties, GpioPort, GpioPin, GpioMode, GpioState>>*), false>::_Head_base() Debug/Drivers/GPIO/IOPin.o
std::_Head_base<1u, IOPinStatusCodes (*)(GpioPin const&, PeripheralBase<IOPinStatusCodes, 1u, Container<IOPinProperties, GpioPort, GpioPin, GpioMode, GpioState>>*), false>::_Head_base() Debug/Drivers/GPIO/IOPin.o
std::_Head_base<1u, IOPinStatusCodes (*)(GpioPin const&, PeripheralBase<IOPinStatusCodes, 1u, Container<IOPinProperties, GpioPort, GpioPin, GpioMode, GpioState>>*), false>::_Head_base<IOPinStatusCodes (*)(GpioPin const&, PeripheralBase<IOPinStatusCodes, 1u, Container<IOPinProperties, GpioPort, GpioPin, GpioMode, GpioState>>*)>(IOPinStatusCodes (*&&)(GpioPin const&, PeripheralBase<IOPinStatusCodes, 1u, Container<IOPinProperties, GpioPort, GpioPin, GpioMode, GpioState>>*)) Debug/Drivers/GPIO/IOPin.o
std::_Head_base<1u, IOPinStatusCodes (*)(GpioPin const&, PeripheralBase<IOPinStatusCodes, 1u, Container<IOPinProperties, GpioPort, GpioPin, GpioMode, GpioState>>*), false>::_Head_base<IOPinStatusCodes (*)(GpioPin const&, PeripheralBase<IOPinStatusCodes, 1u, Container<IOPinProperties, GpioPort, GpioPin, GpioMode, GpioState>>*)>(IOPinStatusCodes (*&&)(GpioPin const&, PeripheralBase<IOPinStatusCodes, 1u, Container<IOPinProperties, GpioPort, GpioPin, GpioMode, GpioState>>*)) Debug/Drivers/GPIO/IOPin.o
std::_Head_base<1u, IOPinStatusCodes (*)(GpioPin const&, PeripheralBase<IOPinStatusCodes, 1u, Container<IOPinProperties, GpioPort, GpioPin, GpioMode, GpioState>>*), false>::_M_head(std::_Head_base<1u, IOPinStatusCodes (*)(GpioPin const&, PeripheralBase<IOPinStatusCodes, 1u, Container<IOPinProperties, GpioPort, GpioPin, GpioMode, GpioState>>*), false> const&) Debug/Drivers/GPIO/IOPin.o
std::_Head_base<1u, IOPinStatusCodes (*)(GpioPin const&, PeripheralBase<IOPinStatusCodes, 1u, Container<IOPinProperties, GpioPort, GpioPin, GpioMode, GpioState>>*), false>::_M_head(std::_Head_base<1u, IOPinStatusCodes (*)(GpioPin const&, PeripheralBase<IOPinStatusCodes, 1u, Container<IOPinProperties, GpioPort, GpioPin, GpioMode, GpioState>>*), false>&) Debug/Drivers/GPIO/IOPin.o
std::_Head_base<2u, GpioMode, false>::_Head_base() Debug/Drivers/GPIO/IOPin.o
std::_Head_base<2u, GpioMode, false>::_Head_base() Debug/Drivers/GPIO/IOPin.o
std::_Head_base<2u, IOPinStatusCodes (*)(GpioMode const&, PeripheralBase<IOPinStatusCodes, 1u, Container<IOPinProperties, GpioPort, GpioPin, GpioMode, GpioState>>*), false>::_Head_base() Debug/Drivers/GPIO/IOPin.o
std::_Head_base<2u, IOPinStatusCodes (*)(GpioMode const&, PeripheralBase<IOPinStatusCodes, 1u, Container<IOPinProperties, GpioPort, GpioPin, GpioMode, GpioState>>*), false>::_Head_base() Debug/Drivers/GPIO/IOPin.o
std::_Head_base<2u, IOPinStatusCodes (*)(GpioMode const&, PeripheralBase<IOPinStatusCodes, 1u, Container<IOPinProperties, GpioPort, GpioPin, GpioMode, GpioState>>*), false>::_Head_base<IOPinStatusCodes (*)(GpioMode const&, PeripheralBase<IOPinStatusCodes, 1u, Container<IOPinProperties, GpioPort, GpioPin, GpioMode, GpioState>>*)>(IOPinStatusCodes (*&&)(GpioMode const&, PeripheralBase<IOPinStatusCodes, 1u, Container<IOPinProperties, GpioPort, GpioPin, GpioMode, GpioState>>*)) Debug/Drivers/GPIO/IOPin.o
std::_Head_base<2u, IOPinStatusCodes (*)(GpioMode const&, PeripheralBase<IOPinStatusCodes, 1u, Container<IOPinProperties, GpioPort, GpioPin, GpioMode, GpioState>>*), false>::_Head_base<IOPinStatusCodes (*)(GpioMode const&, PeripheralBase<IOPinStatusCodes, 1u, Container<IOPinProperties, GpioPort, GpioPin, GpioMode, GpioState>>*)>(IOPinStatusCodes (*&&)(GpioMode const&, PeripheralBase<IOPinStatusCodes, 1u, Container<IOPinProperties, GpioPort, GpioPin, GpioMode, GpioState>>*)) Debug/Drivers/GPIO/IOPin.o
std::_Head_base<2u, IOPinStatusCodes (*)(GpioMode const&, PeripheralBase<IOPinStatusCodes, 1u, Container<IOPinProperties, GpioPort, GpioPin, GpioMode, GpioState>>*), false>::_M_head(std::_Head_base<2u, IOPinStatusCodes (*)(GpioMode const&, PeripheralBase<IOPinStatusCodes, 1u, Container<IOPinProperties, GpioPort, GpioPin, GpioMode, GpioState>>*), false> const&) Debug/Drivers/GPIO/IOPin.o
std::_Head_base<2u, IOPinStatusCodes (*)(GpioMode const&, PeripheralBase<IOPinStatusCodes, 1u, Container<IOPinProperties, GpioPort, GpioPin, GpioMode, GpioState>>*), false>::_M_head(std::_Head_base<2u, IOPinStatusCodes (*)(GpioMode const&, PeripheralBase<IOPinStatusCodes, 1u, Container<IOPinProperties, GpioPort, GpioPin, GpioMode, GpioState>>*), false>&) Debug/Drivers/GPIO/IOPin.o
std::_Head_base<3u, GpioState, false>::_Head_base() Debug/Drivers/GPIO/IOPin.o
std::_Head_base<3u, GpioState, false>::_Head_base() Debug/Drivers/GPIO/IOPin.o
std::_Head_base<3u, IOPinStatusCodes (*)(GpioState const&, PeripheralBase<IOPinStatusCodes, 1u, Container<IOPinProperties, GpioPort, GpioPin, GpioMode, GpioState>>*), false>::_Head_base() Debug/Drivers/GPIO/IOPin.o
std::_Head_base<3u, IOPinStatusCodes (*)(GpioState const&, PeripheralBase<IOPinStatusCodes, 1u, Container<IOPinProperties, GpioPort, GpioPin, GpioMode, GpioState>>*), false>::_Head_base() Debug/Drivers/GPIO/IOPin.o
std::_Head_base<3u, IOPinStatusCodes (*)(GpioState const&, PeripheralBase<IOPinStatusCodes, 1u, Container<IOPinProperties, GpioPort, GpioPin, GpioMode, GpioState>>*), false>::_Head_base<IOPinStatusCodes (*)(GpioState const&, PeripheralBase<IOPinStatusCodes, 1u, Container<IOPinProperties, GpioPort, GpioPin, GpioMode, GpioState>>*)>(IOPinStatusCodes (*&&)(GpioState const&, PeripheralBase<IOPinStatusCodes, 1u, Container<IOPinProperties, GpioPort, GpioPin, GpioMode, GpioState>>*)) Debug/Drivers/GPIO/IOPin.o
std::_Head_base<3u, IOPinStatusCodes (*)(GpioState const&, PeripheralBase<IOPinStatusCodes, 1u, Container<IOPinProperties, GpioPort, GpioPin, GpioMode, GpioState>>*), false>::_Head_base<IOPinStatusCodes (*)(GpioState const&, PeripheralBase<IOPinStatusCodes, 1u, Container<IOPinProperties, GpioPort, GpioPin, GpioMode, GpioState>>*)>(IOPinStatusCodes (*&&)(GpioState const&, PeripheralBase<IOPinStatusCodes, 1u, Container<IOPinProperties, GpioPort, GpioPin, GpioMode, GpioState>>*)) Debug/Drivers/GPIO/IOPin.o
std::_Head_base<3u, IOPinStatusCodes (*)(GpioState const&, PeripheralBase<IOPinStatusCodes, 1u, Container<IOPinProperties, GpioPort, GpioPin, GpioMode, GpioState>>*), false>::_M_head(std::_Head_base<3u, IOPinStatusCodes (*)(GpioState const&, PeripheralBase<IOPinStatusCodes, 1u, Container<IOPinProperties, GpioPort, GpioPin, GpioMode, GpioState>>*), false> const&) Debug/Drivers/GPIO/IOPin.o
std::_Head_base<3u, IOPinStatusCodes (*)(GpioState const&, PeripheralBase<IOPinStatusCodes, 1u, Container<IOPinProperties, GpioPort, GpioPin, GpioMode, GpioState>>*), false>::_M_head(std::_Head_base<3u, IOPinStatusCodes (*)(GpioState const&, PeripheralBase<IOPinStatusCodes, 1u, Container<IOPinProperties, GpioPort, GpioPin, GpioMode, GpioState>>*), false>&) Debug/Drivers/GPIO/IOPin.o
std::_Tuple_impl<0u, GpioPort, GpioPin, GpioMode, GpioState>::_Tuple_impl() Debug/Drivers/GPIO/IOPin.o
std::_Tuple_impl<0u, GpioPort, GpioPin, GpioMode, GpioState>::_Tuple_impl() Debug/Drivers/GPIO/IOPin.o
std::_Tuple_impl<0u, IOPinStatusCodes (*)(GpioPort const&, PeripheralBase<IOPinStatusCodes, 1u, Container<IOPinProperties, GpioPort, GpioPin, GpioMode, GpioState>>*), IOPinStatusCodes (*)(GpioPin const&, PeripheralBase<IOPinStatusCodes, 1u, Container<IOPinProperties, GpioPort, GpioPin, GpioMode, GpioState>>*), IOPinStatusCodes (*)(GpioMode const&, PeripheralBase<IOPinStatusCodes, 1u, Container<IOPinProperties, GpioPort, GpioPin, GpioMode, GpioState>>*), IOPinStatusCodes (*)(GpioState const&, PeripheralBase<IOPinStatusCodes, 1u, Container<IOPinProperties, GpioPort, GpioPin, GpioMode, GpioState>>*)>::_M_head(std::_Tuple_impl<0u, IOPinStatusCodes (*)(GpioPort const&, PeripheralBase<IOPinStatusCodes, 1u, Container<IOPinProperties, GpioPort, GpioPin, GpioMode, GpioState>>*), IOPinStatusCodes (*)(GpioPin const&, PeripheralBase<IOPinStatusCodes, 1u, Container<IOPinProperties, GpioPort, GpioPin, GpioMode, GpioState>>*), IOPinStatusCodes (*)(GpioMode const&, PeripheralBase<IOPinStatusCodes, 1u, Container<IOPinProperties, GpioPort, GpioPin, GpioMode, GpioState>>*), IOPinStatusCodes (*)(GpioState const&, PeripheralBase<IOPinStatusCodes, 1u, Container<IOPinProperties, GpioPort, GpioPin, GpioMode, GpioState>>*)> const&) Debug/Drivers/GPIO/IOPin.o
std::_Tuple_impl<0u, IOPinStatusCodes (*)(GpioPort const&, PeripheralBase<IOPinStatusCodes, 1u, Container<IOPinProperties, GpioPort, GpioPin, GpioMode, GpioState>>*), IOPinStatusCodes (*)(GpioPin const&, PeripheralBase<IOPinStatusCodes, 1u, Container<IOPinProperties, GpioPort, GpioPin, GpioMode, GpioState>>*), IOPinStatusCodes (*)(GpioMode const&, PeripheralBase<IOPinStatusCodes, 1u, Container<IOPinProperties, GpioPort, GpioPin, GpioMode, GpioState>>*), IOPinStatusCodes (*)(GpioState const&, PeripheralBase<IOPinStatusCodes, 1u, Container<IOPinProperties, GpioPort, GpioPin, GpioMode, GpioState>>*)>::_M_head(std::_Tuple_impl<0u, IOPinStatusCodes (*)(GpioPort const&, PeripheralBase<IOPinStatusCodes, 1u, Container<IOPinProperties, GpioPort, GpioPin, GpioMode, GpioState>>*), IOPinStatusCodes (*)(GpioPin const&, PeripheralBase<IOPinStatusCodes, 1u, Container<IOPinProperties, GpioPort, GpioPin, GpioMode, GpioState>>*), IOPinStatusCodes (*)(GpioMode const&, PeripheralBase<IOPinStatusCodes, 1u, Container<IOPinProperties, GpioPort, GpioPin, GpioMode, GpioState>>*), IOPinStatusCodes (*)(GpioState const&, PeripheralBase<IOPinStatusCodes, 1u, Container<IOPinProperties, GpioPort, GpioPin, GpioMode, GpioState>>*)>&) Debug/Drivers/GPIO/IOPin.o
std::_Tuple_impl<0u, IOPinStatusCodes (*)(GpioPort const&, PeripheralBase<IOPinStatusCodes, 1u, Container<IOPinProperties, GpioPort, GpioPin, GpioMode, GpioState>>*), IOPinStatusCodes (*)(GpioPin const&, PeripheralBase<IOPinStatusCodes, 1u, Container<IOPinProperties, GpioPort, GpioPin, GpioMode, GpioState>>*), IOPinStatusCodes (*)(GpioMode const&, PeripheralBase<IOPinStatusCodes, 1u, Container<IOPinProperties, GpioPort, GpioPin, GpioMode, GpioState>>*), IOPinStatusCodes (*)(GpioState const&, PeripheralBase<IOPinStatusCodes, 1u, Container<IOPinProperties, GpioPort, GpioPin, GpioMode, GpioState>>*)>::_M_tail(std::_Tuple_impl<0u, IOPinStatusCodes (*)(GpioPort const&, PeripheralBase<IOPinStatusCodes, 1u, Container<IOPinProperties, GpioPort, GpioPin, GpioMode, GpioState>>*), IOPinStatusCodes (*)(GpioPin const&, PeripheralBase<IOPinStatusCodes, 1u, Container<IOPinProperties, GpioPort, GpioPin, GpioMode, GpioState>>*), IOPinStatusCodes (*)(GpioMode const&, PeripheralBase<IOPinStatusCodes, 1u, Container<IOPinProperties, GpioPort, GpioPin, GpioMode, GpioState>>*), IOPinStatusCodes (*)(GpioState const&, PeripheralBase<IOPinStatusCodes, 1u, Container<IOPinProperties, GpioPort, GpioPin, GpioMode, GpioState>>*)> const&) Debug/Drivers/GPIO/IOPin.o
std::_Tuple_impl<0u, IOPinStatusCodes (*)(GpioPort const&, PeripheralBase<IOPinStatusCodes, 1u, Container<IOPinProperties, GpioPort, GpioPin, GpioMode, GpioState>>*), IOPinStatusCodes (*)(GpioPin const&, PeripheralBase<IOPinStatusCodes, 1u, Container<IOPinProperties, GpioPort, GpioPin, GpioMode, GpioState>>*), IOPinStatusCodes (*)(GpioMode const&, PeripheralBase<IOPinStatusCodes, 1u, Container<IOPinProperties, GpioPort, GpioPin, GpioMode, GpioState>>*), IOPinStatusCodes (*)(GpioState const&, PeripheralBase<IOPinStatusCodes, 1u, Container<IOPinProperties, GpioPort, GpioPin, GpioMode, GpioState>>*)>::_M_tail(std::_Tuple_impl<0u, IOPinStatusCodes (*)(GpioPort const&, PeripheralBase<IOPinStatusCodes, 1u, Container<IOPinProperties, GpioPort, GpioPin, GpioMode, GpioState>>*), IOPinStatusCodes (*)(GpioPin const&, PeripheralBase<IOPinStatusCodes, 1u, Container<IOPinProperties, GpioPort, GpioPin, GpioMode, GpioState>>*), IOPinStatusCodes (*)(GpioMode const&, PeripheralBase<IOPinStatusCodes, 1u, Container<IOPinProperties, GpioPort, GpioPin, GpioMode, GpioState>>*), IOPinStatusCodes (*)(GpioState const&, PeripheralBase<IOPinStatusCodes, 1u, Container<IOPinProperties, GpioPort, GpioPin, GpioMode, GpioState>>*)>&) Debug/Drivers/GPIO/IOPin.o
std::_Tuple_impl<0u, IOPinStatusCodes (*)(GpioPort const&, PeripheralBase<IOPinStatusCodes, 1u, Container<IOPinProperties, GpioPort, GpioPin, GpioMode, GpioState>>*), IOPinStatusCodes (*)(GpioPin const&, PeripheralBase<IOPinStatusCodes, 1u, Container<IOPinProperties, GpioPort, GpioPin, GpioMode, GpioState>>*), IOPinStatusCodes (*)(GpioMode const&, PeripheralBase<IOPinStatusCodes, 1u, Container<IOPinProperties, GpioPort, GpioPin, GpioMode, GpioState>>*), IOPinStatusCodes (*)(GpioState const&, PeripheralBase<IOPinStatusCodes, 1u, Container<IOPinProperties, GpioPort, GpioPin, GpioMode, GpioState>>*)>::_Tuple_impl() Debug/Drivers/GPIO/IOPin.o
std::_Tuple_impl<0u, IOPinStatusCodes (*)(GpioPort const&, PeripheralBase<IOPinStatusCodes, 1u, Container<IOPinProperties, GpioPort, GpioPin, GpioMode, GpioState>>*), IOPinStatusCodes (*)(GpioPin const&, PeripheralBase<IOPinStatusCodes, 1u, Container<IOPinProperties, GpioPort, GpioPin, GpioMode, GpioState>>*), IOPinStatusCodes (*)(GpioMode const&, PeripheralBase<IOPinStatusCodes, 1u, Container<IOPinProperties, GpioPort, GpioPin, GpioMode, GpioState>>*), IOPinStatusCodes (*)(GpioState const&, PeripheralBase<IOPinStatusCodes, 1u, Container<IOPinProperties, GpioPort, GpioPin, GpioMode, GpioState>>*)>::_Tuple_impl() Debug/Drivers/GPIO/IOPin.o
std::_Tuple_impl<0u, IOPinStatusCodes (*)(GpioPort const&, PeripheralBase<IOPinStatusCodes, 1u, Container<IOPinProperties, GpioPort, GpioPin, GpioMode, GpioState>>*), IOPinStatusCodes (*)(GpioPin const&, PeripheralBase<IOPinStatusCodes, 1u, Container<IOPinProperties, GpioPort, GpioPin, GpioMode, GpioState>>*), IOPinStatusCodes (*)(GpioMode const&, PeripheralBase<IOPinStatusCodes, 1u, Container<IOPinProperties, GpioPort, GpioPin, GpioMode, GpioState>>*), IOPinStatusCodes (*)(GpioState const&, PeripheralBase<IOPinStatusCodes, 1u, Container<IOPinProperties, GpioPort, GpioPin, GpioMode, GpioState>>*)>::_Tuple_impl<IOPinStatusCodes (*)(GpioPort const&, PeripheralBase<IOPinStatusCodes, 1u, Container<IOPinProperties, GpioPort, GpioPin, GpioMode, GpioState>>*), IOPinStatusCodes (*)(GpioPin const&, PeripheralBase<IOPinStatusCodes, 1u, Container<IOPinProperties, GpioPort, GpioPin, GpioMode, GpioState>>*), IOPinStatusCodes (*)(GpioMode const&, PeripheralBase<IOPinStatusCodes, 1u, Container<IOPinProperties, GpioPort, GpioPin, GpioMode, GpioState>>*), IOPinStatusCodes (*)(GpioState const&, PeripheralBase<IOPinStatusCodes, 1u, Container<IOPinProperties, GpioPort, GpioPin, GpioMode, GpioState>>*), void>(IOPinStatusCodes (*&&)(GpioPort const&, PeripheralBase<IOPinStatusCodes, 1u, Container<IOPinProperties, GpioPort, GpioPin, GpioMode, GpioState>>*), IOPinStatusCodes (*&&)(GpioPin const&, PeripheralBase<IOPinStatusCodes, 1u, Container<IOPinProperties, GpioPort, GpioPin, GpioMode, GpioState>>*), IOPinStatusCodes (*&&)(GpioMode const&, PeripheralBase<IOPinStatusCodes, 1u, Container<IOPinProperties, GpioPort, GpioPin, GpioMode, GpioState>>*), IOPinStatusCodes (*&&)(GpioState const&, PeripheralBase<IOPinStatusCodes, 1u, Container<IOPinProperties, GpioPort, GpioPin, GpioMode, GpioState>>*)) Debug/Drivers/GPIO/IOPin.o
std::_Tuple_impl<0u, IOPinStatusCodes (*)(GpioPort const&, PeripheralBase<IOPinStatusCodes, 1u, Container<IOPinProperties, GpioPort, GpioPin, GpioMode, GpioState>>*), IOPinStatusCodes (*)(GpioPin const&, PeripheralBase<IOPinStatusCodes, 1u, Container<IOPinProperties, GpioPort, GpioPin, GpioMode, GpioState>>*), IOPinStatusCodes (*)(GpioMode const&, PeripheralBase<IOPinStatusCodes, 1u, Container<IOPinProperties, GpioPort, GpioPin, GpioMode, GpioState>>*), IOPinStatusCodes (*)(GpioState const&, PeripheralBase<IOPinStatusCodes, 1u, Container<IOPinProperties, GpioPort, GpioPin, GpioMode, GpioState>>*)>::_Tuple_impl<IOPinStatusCodes (*)(GpioPort const&, PeripheralBase<IOPinStatusCodes, 1u, Container<IOPinProperties, GpioPort, GpioPin, GpioMode, GpioState>>*), IOPinStatusCodes (*)(GpioPin const&, PeripheralBase<IOPinStatusCodes, 1u, Container<IOPinProperties, GpioPort, GpioPin, GpioMode, GpioState>>*), IOPinStatusCodes (*)(GpioMode const&, PeripheralBase<IOPinStatusCodes, 1u, Container<IOPinProperties, GpioPort, GpioPin, GpioMode, GpioState>>*), IOPinStatusCodes (*)(GpioState const&, PeripheralBase<IOPinStatusCodes, 1u, Container<IOPinProperties, GpioPort, GpioPin, GpioMode, GpioState>>*), void>(IOPinStatusCodes (*&&)(GpioPort const&, PeripheralBase<IOPinStatusCodes, 1u, Container<IOPinProperties, GpioPort, GpioPin, GpioMode, GpioState>>*), IOPinStatusCodes (*&&)(GpioPin const&, PeripheralBase<IOPinStatusCodes, 1u, Container<IOPinProperties, GpioPort, GpioPin, GpioMode, GpioState>>*), IOPinStatusCodes (*&&)(GpioMode const&, PeripheralBase<IOPinStatusCodes, 1u, Container<IOPinProperties, GpioPort, GpioPin, GpioMode, GpioState>>*), IOPinStatusCodes (*&&)(GpioState const&, PeripheralBase<IOPinStatusCodes, 1u, Container<IOPinProperties, GpioPort, GpioPin, GpioMode, GpioState>>*)) Debug/Drivers/GPIO/IOPin.o
std::_Tuple_impl<1u, GpioPin, GpioMode, GpioState>::_Tuple_impl() Debug/Drivers/GPIO/IOPin.o
std::_Tuple_impl<1u, GpioPin, GpioMode, GpioState>::_Tuple_impl() Debug/Drivers/GPIO/IOPin.o
std::_Tuple_impl<1u, IOPinStatusCodes (*)(GpioPin const&, PeripheralBase<IOPinStatusCodes, 1u, Container<IOPinProperties, GpioPort, GpioPin, GpioMode, GpioState>>*), IOPinStatusCodes (*)(GpioMode const&, PeripheralBase<IOPinStatusCodes, 1u, Container<IOPinProperties, GpioPort, GpioPin, GpioMode, GpioState>>*), IOPinStatusCodes (*)(GpioState const&, PeripheralBase<IOPinStatusCodes, 1u, Container<IOPinProperties, GpioPort, GpioPin, GpioMode, GpioState>>*)>::_M_head(std::_Tuple_impl<1u, IOPinStatusCodes (*)(GpioPin const&, PeripheralBase<IOPinStatusCodes, 1u, Container<IOPinProperties, GpioPort, GpioPin, GpioMode, GpioState>>*), IOPinStatusCodes (*)(GpioMode const&, PeripheralBase<IOPinStatusCodes, 1u, Container<IOPinProperties, GpioPort, GpioPin, GpioMode, GpioState>>*), IOPinStatusCodes (*)(GpioState const&, PeripheralBase<IOPinStatusCodes, 1u, Container<IOPinProperties, GpioPort, GpioPin, GpioMode, GpioState>>*)> const&) Debug/Drivers/GPIO/IOPin.o
std::_Tuple_impl<1u, IOPinStatusCodes (*)(GpioPin const&, PeripheralBase<IOPinStatusCodes, 1u, Container<IOPinProperties, GpioPort, GpioPin, GpioMode, GpioState>>*), IOPinStatusCodes (*)(GpioMode const&, PeripheralBase<IOPinStatusCodes, 1u, Container<IOPinProperties, GpioPort, GpioPin, GpioMode, GpioState>>*), IOPinStatusCodes (*)(GpioState const&, PeripheralBase<IOPinStatusCodes, 1u, Container<IOPinProperties, GpioPort, GpioPin, GpioMode, GpioState>>*)>::_M_head(std::_Tuple_impl<1u, IOPinStatusCodes (*)(GpioPin const&, PeripheralBase<IOPinStatusCodes, 1u, Container<IOPinProperties, GpioPort, GpioPin, GpioMode, GpioState>>*), IOPinStatusCodes (*)(GpioMode const&, PeripheralBase<IOPinStatusCodes, 1u, Container<IOPinProperties, GpioPort, GpioPin, GpioMode, GpioState>>*), IOPinStatusCodes (*)(GpioState const&, PeripheralBase<IOPinStatusCodes, 1u, Container<IOPinProperties, GpioPort, GpioPin, GpioMode, GpioState>>*)>&) Debug/Drivers/GPIO/IOPin.o
std::_Tuple_impl<1u, IOPinStatusCodes (*)(GpioPin const&, PeripheralBase<IOPinStatusCodes, 1u, Container<IOPinProperties, GpioPort, GpioPin, GpioMode, GpioState>>*), IOPinStatusCodes (*)(GpioMode const&, PeripheralBase<IOPinStatusCodes, 1u, Container<IOPinProperties, GpioPort, GpioPin, GpioMode, GpioState>>*), IOPinStatusCodes (*)(GpioState const&, PeripheralBase<IOPinStatusCodes, 1u, Container<IOPinProperties, GpioPort, GpioPin, GpioMode, GpioState>>*)>::_M_tail(std::_Tuple_impl<1u, IOPinStatusCodes (*)(GpioPin const&, PeripheralBase<IOPinStatusCodes, 1u, Container<IOPinProperties, GpioPort, GpioPin, GpioMode, GpioState>>*), IOPinStatusCodes (*)(GpioMode const&, PeripheralBase<IOPinStatusCodes, 1u, Container<IOPinProperties, GpioPort, GpioPin, GpioMode, GpioState>>*), IOPinStatusCodes (*)(GpioState const&, PeripheralBase<IOPinStatusCodes, 1u, Container<IOPinProperties, GpioPort, GpioPin, GpioMode, GpioState>>*)> const&) Debug/Drivers/GPIO/IOPin.o
std::_Tuple_impl<1u, IOPinStatusCodes (*)(GpioPin const&, PeripheralBase<IOPinStatusCodes, 1u, Container<IOPinProperties, GpioPort, GpioPin, GpioMode, GpioState>>*), IOPinStatusCodes (*)(GpioMode const&, PeripheralBase<IOPinStatusCodes, 1u, Container<IOPinProperties, GpioPort, GpioPin, GpioMode, GpioState>>*), IOPinStatusCodes (*)(GpioState const&, PeripheralBase<IOPinStatusCodes, 1u, Container<IOPinProperties, GpioPort, GpioPin, GpioMode, GpioState>>*)>::_M_tail(std::_Tuple_impl<1u, IOPinStatusCodes (*)(GpioPin const&, PeripheralBase<IOPinStatusCodes, 1u, Container<IOPinProperties, GpioPort, GpioPin, GpioMode, GpioState>>*), IOPinStatusCodes (*)(GpioMode const&, PeripheralBase<IOPinStatusCodes, 1u, Container<IOPinProperties, GpioPort, GpioPin, GpioMode, GpioState>>*), IOPinStatusCodes (*)(GpioState const&, PeripheralBase<IOPinStatusCodes, 1u, Container<IOPinProperties, GpioPort, GpioPin, GpioMode, GpioState>>*)>&) Debug/Drivers/GPIO/IOPin.o
std::_Tuple_impl<1u, IOPinStatusCodes (*)(GpioPin const&, PeripheralBase<IOPinStatusCodes, 1u, Container<IOPinProperties, GpioPort, GpioPin, GpioMode, GpioState>>*), IOPinStatusCodes (*)(GpioMode const&, PeripheralBase<IOPinStatusCodes, 1u, Container<IOPinProperties, GpioPort, GpioPin, GpioMode, GpioState>>*), IOPinStatusCodes (*)(GpioState const&, PeripheralBase<IOPinStatusCodes, 1u, Container<IOPinProperties, GpioPort, GpioPin, GpioMode, GpioState>>*)>::_Tuple_impl() Debug/Drivers/GPIO/IOPin.o
std::_Tuple_impl<1u, IOPinStatusCodes (*)(GpioPin const&, PeripheralBase<IOPinStatusCodes, 1u, Container<IOPinProperties, GpioPort, GpioPin, GpioMode, GpioState>>*), IOPinStatusCodes (*)(GpioMode const&, PeripheralBase<IOPinStatusCodes, 1u, Container<IOPinProperties, GpioPort, GpioPin, GpioMode, GpioState>>*), IOPinStatusCodes (*)(GpioState const&, PeripheralBase<IOPinStatusCodes, 1u, Container<IOPinProperties, GpioPort, GpioPin, GpioMode, GpioState>>*)>::_Tuple_impl() Debug/Drivers/GPIO/IOPin.o
std::_Tuple_impl<1u, IOPinStatusCodes (*)(GpioPin const&, PeripheralBase<IOPinStatusCodes, 1u, Container<IOPinProperties, GpioPort, GpioPin, GpioMode, GpioState>>*), IOPinStatusCodes (*)(GpioMode const&, PeripheralBase<IOPinStatusCodes, 1u, Container<IOPinProperties, GpioPort, GpioPin, GpioMode, GpioState>>*), IOPinStatusCodes (*)(GpioState const&, PeripheralBase<IOPinStatusCodes, 1u, Container<IOPinProperties, GpioPort, GpioPin, GpioMode, GpioState>>*)>::_Tuple_impl<IOPinStatusCodes (*)(GpioPin const&, PeripheralBase<IOPinStatusCodes, 1u, Container<IOPinProperties, GpioPort, GpioPin, GpioMode, GpioState>>*), IOPinStatusCodes (*)(GpioMode const&, PeripheralBase<IOPinStatusCodes, 1u, Container<IOPinProperties, GpioPort, GpioPin, GpioMode, GpioState>>*), IOPinStatusCodes (*)(GpioState const&, PeripheralBase<IOPinStatusCodes, 1u, Container<IOPinProperties, GpioPort, GpioPin, GpioMode, GpioState>>*), void>(IOPinStatusCodes (*&&)(GpioPin const&, PeripheralBase<IOPinStatusCodes, 1u, Container<IOPinProperties, GpioPort, GpioPin, GpioMode, GpioState>>*), IOPinStatusCodes (*&&)(GpioMode const&, PeripheralBase<IOPinStatusCodes, 1u, Container<IOPinProperties, GpioPort, GpioPin, GpioMode, GpioState>>*), IOPinStatusCodes (*&&)(GpioState const&, PeripheralBase<IOPinStatusCodes, 1u, Container<IOPinProperties, GpioPort, GpioPin, GpioMode, GpioState>>*)) Debug/Drivers/GPIO/IOPin.o
std::_Tuple_impl<1u, IOPinStatusCodes (*)(GpioPin const&, PeripheralBase<IOPinStatusCodes, 1u, Container<IOPinProperties, GpioPort, GpioPin, GpioMode, GpioState>>*), IOPinStatusCodes (*)(GpioMode const&, PeripheralBase<IOPinStatusCodes, 1u, Container<IOPinProperties, GpioPort, GpioPin, GpioMode, GpioState>>*), IOPinStatusCodes (*)(GpioState const&, PeripheralBase<IOPinStatusCodes, 1u, Container<IOPinProperties, GpioPort, GpioPin, GpioMode, GpioState>>*)>::_Tuple_impl<IOPinStatusCodes (*)(GpioPin const&, PeripheralBase<IOPinStatusCodes, 1u, Container<IOPinProperties, GpioPort, GpioPin, GpioMode, GpioState>>*), IOPinStatusCodes (*)(GpioMode const&, PeripheralBase<IOPinStatusCodes, 1u, Container<IOPinProperties, GpioPort, GpioPin, GpioMode, GpioState>>*), IOPinStatusCodes (*)(GpioState const&, PeripheralBase<IOPinStatusCodes, 1u, Container<IOPinProperties, GpioPort, GpioPin, GpioMode, GpioState>>*), void>(IOPinStatusCodes (*&&)(GpioPin const&, PeripheralBase<IOPinStatusCodes, 1u, Container<IOPinProperties, GpioPort, GpioPin, GpioMode, GpioState>>*), IOPinStatusCodes (*&&)(GpioMode const&, PeripheralBase<IOPinStatusCodes, 1u, Container<IOPinProperties, GpioPort, GpioPin, GpioMode, GpioState>>*), IOPinStatusCodes (*&&)(GpioState const&, PeripheralBase<IOPinStatusCodes, 1u, Container<IOPinProperties, GpioPort, GpioPin, GpioMode, GpioState>>*)) Debug/Drivers/GPIO/IOPin.o
std::_Tuple_impl<2u, GpioMode, GpioState>::_Tuple_impl() Debug/Drivers/GPIO/IOPin.o
std::_Tuple_impl<2u, GpioMode, GpioState>::_Tuple_impl() Debug/Drivers/GPIO/IOPin.o
std::_Tuple_impl<2u, IOPinStatusCodes (*)(GpioMode const&, PeripheralBase<IOPinStatusCodes, 1u, Container<IOPinProperties, GpioPort, GpioPin, GpioMode, GpioState>>*), IOPinStatusCodes (*)(GpioState const&, PeripheralBase<IOPinStatusCodes, 1u, Container<IOPinProperties, GpioPort, GpioPin, GpioMode, GpioState>>*)>::_M_head(std::_Tuple_impl<2u, IOPinStatusCodes (*)(GpioMode const&, PeripheralBase<IOPinStatusCodes, 1u, Container<IOPinProperties, GpioPort, GpioPin, GpioMode, GpioState>>*), IOPinStatusCodes (*)(GpioState const&, PeripheralBase<IOPinStatusCodes, 1u, Container<IOPinProperties, GpioPort, GpioPin, GpioMode, GpioState>>*)> const&) Debug/Drivers/GPIO/IOPin.o
std::_Tuple_impl<2u, IOPinStatusCodes (*)(GpioMode const&, PeripheralBase<IOPinStatusCodes, 1u, Container<IOPinProperties, GpioPort, GpioPin, GpioMode, GpioState>>*), IOPinStatusCodes (*)(GpioState const&, PeripheralBase<IOPinStatusCodes, 1u, Container<IOPinProperties, GpioPort, GpioPin, GpioMode, GpioState>>*)>::_M_head(std::_Tuple_impl<2u, IOPinStatusCodes (*)(GpioMode const&, PeripheralBase<IOPinStatusCodes, 1u, Container<IOPinProperties, GpioPort, GpioPin, GpioMode, GpioState>>*), IOPinStatusCodes (*)(GpioState const&, PeripheralBase<IOPinStatusCodes, 1u, Container<IOPinProperties, GpioPort, GpioPin, GpioMode, GpioState>>*)>&) Debug/Drivers/GPIO/IOPin.o
std::_Tuple_impl<2u, IOPinStatusCodes (*)(GpioMode const&, PeripheralBase<IOPinStatusCodes, 1u, Container<IOPinProperties, GpioPort, GpioPin, GpioMode, GpioState>>*), IOPinStatusCodes (*)(GpioState const&, PeripheralBase<IOPinStatusCodes, 1u, Container<IOPinProperties, GpioPort, GpioPin, GpioMode, GpioState>>*)>::_M_tail(std::_Tuple_impl<2u, IOPinStatusCodes (*)(GpioMode const&, PeripheralBase<IOPinStatusCodes, 1u, Container<IOPinProperties, GpioPort, GpioPin, GpioMode, GpioState>>*), IOPinStatusCodes (*)(GpioState const&, PeripheralBase<IOPinStatusCodes, 1u, Container<IOPinProperties, GpioPort, GpioPin, GpioMode, GpioState>>*)> const&) Debug/Drivers/GPIO/IOPin.o
std::_Tuple_impl<2u, IOPinStatusCodes (*)(GpioMode const&, PeripheralBase<IOPinStatusCodes, 1u, Container<IOPinProperties, GpioPort, GpioPin, GpioMode, GpioState>>*), IOPinStatusCodes (*)(GpioState const&, PeripheralBase<IOPinStatusCodes, 1u, Container<IOPinProperties, GpioPort, GpioPin, GpioMode, GpioState>>*)>::_M_tail(std::_Tuple_impl<2u, IOPinStatusCodes (*)(GpioMode const&, PeripheralBase<IOPinStatusCodes, 1u, Container<IOPinProperties, GpioPort, GpioPin, GpioMode, GpioState>>*), IOPinStatusCodes (*)(GpioState const&, PeripheralBase<IOPinStatusCodes, 1u, Container<IOPinProperties, GpioPort, GpioPin, GpioMode, GpioState>>*)>&) Debug/Drivers/GPIO/IOPin.o
std::_Tuple_impl<2u, IOPinStatusCodes (*)(GpioMode const&, PeripheralBase<IOPinStatusCodes, 1u, Container<IOPinProperties, GpioPort, GpioPin, GpioMode, GpioState>>*), IOPinStatusCodes (*)(GpioState const&, PeripheralBase<IOPinStatusCodes, 1u, Container<IOPinProperties, GpioPort, GpioPin, GpioMode, GpioState>>*)>::_Tuple_impl() Debug/Drivers/GPIO/IOPin.o
std::_Tuple_impl<2u, IOPinStatusCodes (*)(GpioMode const&, PeripheralBase<IOPinStatusCodes, 1u, Container<IOPinProperties, GpioPort, GpioPin, GpioMode, GpioState>>*), IOPinStatusCodes (*)(GpioState const&, PeripheralBase<IOPinStatusCodes, 1u, Container<IOPinProperties, GpioPort, GpioPin, GpioMode, GpioState>>*)>::_Tuple_impl() Debug/Drivers/GPIO/IOPin.o
std::_Tuple_impl<2u, IOPinStatusCodes (*)(GpioMode const&, PeripheralBase<IOPinStatusCodes, 1u, Container<IOPinProperties, GpioPort, GpioPin, GpioMode, GpioState>>*), IOPinStatusCodes (*)(GpioState const&, PeripheralBase<IOPinStatusCodes, 1u, Container<IOPinProperties, GpioPort, GpioPin, GpioMode, GpioState>>*)>::_Tuple_impl<IOPinStatusCodes (*)(GpioMode const&, PeripheralBase<IOPinStatusCodes, 1u, Container<IOPinProperties, GpioPort, GpioPin, GpioMode, GpioState>>*), IOPinStatusCodes (*)(GpioState const&, PeripheralBase<IOPinStatusCodes, 1u, Container<IOPinProperties, GpioPort, GpioPin, GpioMode, GpioState>>*), void>(IOPinStatusCodes (*&&)(GpioMode const&, PeripheralBase<IOPinStatusCodes, 1u, Container<IOPinProperties, GpioPort, GpioPin, GpioMode, GpioState>>*), IOPinStatusCodes (*&&)(GpioState const&, PeripheralBase<IOPinStatusCodes, 1u, Container<IOPinProperties, GpioPort, GpioPin, GpioMode, GpioState>>*)) Debug/Drivers/GPIO/IOPin.o
std::_Tuple_impl<2u, IOPinStatusCodes (*)(GpioMode const&, PeripheralBase<IOPinStatusCodes, 1u, Container<IOPinProperties, GpioPort, GpioPin, GpioMode, GpioState>>*), IOPinStatusCodes (*)(GpioState const&, PeripheralBase<IOPinStatusCodes, 1u, Container<IOPinProperties, GpioPort, GpioPin, GpioMode, GpioState>>*)>::_Tuple_impl<IOPinStatusCodes (*)(GpioMode const&, PeripheralBase<IOPinStatusCodes, 1u, Container<IOPinProperties, GpioPort, GpioPin, GpioMode, GpioState>>*), IOPinStatusCodes (*)(GpioState const&, PeripheralBase<IOPinStatusCodes, 1u, Container<IOPinProperties, GpioPort, GpioPin, GpioMode, GpioState>>*), void>(IOPinStatusCodes (*&&)(GpioMode const&, PeripheralBase<IOPinStatusCodes, 1u, Container<IOPinProperties, GpioPort, GpioPin, GpioMode, GpioState>>*), IOPinStatusCodes (*&&)(GpioState const&, PeripheralBase<IOPinStatusCodes, 1u, Container<IOPinProperties, GpioPort, GpioPin, GpioMode, GpioState>>*)) Debug/Drivers/GPIO/IOPin.o
std::_Tuple_impl<3u, GpioState>::_Tuple_impl()    Debug/Drivers/GPIO/IOPin.o
std::_Tuple_impl<3u, GpioState>::_Tuple_impl()    Debug/Drivers/GPIO/IOPin.o
std::_Tuple_impl<3u, IOPinStatusCodes (*)(GpioState const&, PeripheralBase<IOPinStatusCodes, 1u, Container<IOPinProperties, GpioPort, GpioPin, GpioMode, GpioState>>*)>::_M_head(std::_Tuple_impl<3u, IOPinStatusCodes (*)(GpioState const&, PeripheralBase<IOPinStatusCodes, 1u, Container<IOPinProperties, GpioPort, GpioPin, GpioMode, GpioState>>*)> const&) Debug/Drivers/GPIO/IOPin.o
std::_Tuple_impl<3u, IOPinStatusCodes (*)(GpioState const&, PeripheralBase<IOPinStatusCodes, 1u, Container<IOPinProperties, GpioPort, GpioPin, GpioMode, GpioState>>*)>::_M_head(std::_Tuple_impl<3u, IOPinStatusCodes (*)(GpioState const&, PeripheralBase<IOPinStatusCodes, 1u, Container<IOPinProperties, GpioPort, GpioPin, GpioMode, GpioState>>*)>&) Debug/Drivers/GPIO/IOPin.o
std::_Tuple_impl<3u, IOPinStatusCodes (*)(GpioState const&, PeripheralBase<IOPinStatusCodes, 1u, Container<IOPinProperties, GpioPort, GpioPin, GpioMode, GpioState>>*)>::_Tuple_impl() Debug/Drivers/GPIO/IOPin.o
std::_Tuple_impl<3u, IOPinStatusCodes (*)(GpioState const&, PeripheralBase<IOPinStatusCodes, 1u, Container<IOPinProperties, GpioPort, GpioPin, GpioMode, GpioState>>*)>::_Tuple_impl() Debug/Drivers/GPIO/IOPin.o
std::_Tuple_impl<3u, IOPinStatusCodes (*)(GpioState const&, PeripheralBase<IOPinStatusCodes, 1u, Container<IOPinProperties, GpioPort, GpioPin, GpioMode, GpioState>>*)>::_Tuple_impl<IOPinStatusCodes (*)(GpioState const&, PeripheralBase<IOPinStatusCodes, 1u, Container<IOPinProperties, GpioPort, GpioPin, GpioMode, GpioState>>*)>(IOPinStatusCodes (*&&)(GpioState const&, PeripheralBase<IOPinStatusCodes, 1u, Container<IOPinProperties, GpioPort, GpioPin, GpioMode, GpioState>>*)) Debug/Drivers/GPIO/IOPin.o
std::_Tuple_impl<3u, IOPinStatusCodes (*)(GpioState const&, PeripheralBase<IOPinStatusCodes, 1u, Container<IOPinProperties, GpioPort, GpioPin, GpioMode, GpioState>>*)>::_Tuple_impl<IOPinStatusCodes (*)(GpioState const&, PeripheralBase<IOPinStatusCodes, 1u, Container<IOPinProperties, GpioPort, GpioPin, GpioMode, GpioState>>*)>(IOPinStatusCodes (*&&)(GpioState const&, PeripheralBase<IOPinStatusCodes, 1u, Container<IOPinProperties, GpioPort, GpioPin, GpioMode, GpioState>>*)) Debug/Drivers/GPIO/IOPin.o
std::bad_exception::what() const                  /usr/bin/../lib/gcc/arm-none-eabi/12.2.1/../../../../arm-none-eabi/lib/thumb/v7e-m+fp/hard/libstdc++_nano.a(eh_exception.o)
std::bad_exception::~bad_exception()              /usr/bin/../lib/gcc/arm-none-eabi/12.2.1/../../../../arm-none-eabi/lib/thumb/v7e-m+fp/hard/libstdc++_nano.a(eh_exception.o)
std::bad_exception::~bad_exception()              /usr/bin/../lib/gcc/arm-none-eabi/12.2.1/../../../../arm-none-eabi/lib/thumb/v7e-m+fp/hard/libstdc++_nano.a(eh_exception.o)
std::bad_exception::~bad_exception()              /usr/bin/../lib/gcc/arm-none-eabi/12.2.1/../../../../arm-none-eabi/lib/thumb/v7e-m+fp/hard/libstdc++_nano.a(eh_exception.o)
std::exception::what() const                      /usr/bin/../lib/gcc/arm-none-eabi/12.2.1/../../../../arm-none-eabi/lib/thumb/v7e-m+fp/hard/libstdc++_nano.a(eh_exception.o)
std::exception::~exception()                      /usr/bin/../lib/gcc/arm-none-eabi/12.2.1/../../../../arm-none-eabi/lib/thumb/v7e-m+fp/hard/libstdc++_nano.a(eh_exception.o)
std::exception::~exception()                      /usr/bin/../lib/gcc/arm-none-eabi/12.2.1/../../../../arm-none-eabi/lib/thumb/v7e-m+fp/hard/libstdc++_nano.a(eh_exception.o)
std::exception::~exception()                      /usr/bin/../lib/gcc/arm-none-eabi/12.2.1/../../../../arm-none-eabi/lib/thumb/v7e-m+fp/hard/libstdc++_nano.a(eh_exception.o)
std::get_new_handler()                            /usr/bin/../lib/gcc/arm-none-eabi/12.2.1/../../../../arm-none-eabi/lib/thumb/v7e-m+fp/hard/libstdc++_nano.a(new_handler.o)
                                                  /usr/bin/../lib/gcc/arm-none-eabi/12.2.1/../../../../arm-none-eabi/lib/thumb/v7e-m+fp/hard/libstdc++_nano.a(new_op.o)
std::get_terminate()                              /usr/bin/../lib/gcc/arm-none-eabi/12.2.1/../../../../arm-none-eabi/lib/thumb/v7e-m+fp/hard/libstdc++_nano.a(eh_terminate.o)
std::get_unexpected()                             /usr/bin/../lib/gcc/arm-none-eabi/12.2.1/../../../../arm-none-eabi/lib/thumb/v7e-m+fp/hard/libstdc++_nano.a(eh_terminate.o)
std::nothrow                                      /usr/bin/../lib/gcc/arm-none-eabi/12.2.1/../../../../arm-none-eabi/lib/thumb/v7e-m+fp/hard/libstdc++_nano.a(new_handler.o)
std::set_new_handler(void (*)())                  /usr/bin/../lib/gcc/arm-none-eabi/12.2.1/../../../../arm-none-eabi/lib/thumb/v7e-m+fp/hard/libstdc++_nano.a(new_handler.o)
std::set_terminate(void (*)())                    /usr/bin/../lib/gcc/arm-none-eabi/12.2.1/../../../../arm-none-eabi/lib/thumb/v7e-m+fp/hard/libstdc++_nano.a(eh_terminate.o)
std::set_unexpected(void (*)())                   /usr/bin/../lib/gcc/arm-none-eabi/12.2.1/../../../../arm-none-eabi/lib/thumb/v7e-m+fp/hard/libstdc++_nano.a(eh_terminate.o)
std::terminate()                                  /usr/bin/../lib/gcc/arm-none-eabi/12.2.1/../../../../arm-none-eabi/lib/thumb/v7e-m+fp/hard/libstdc++_nano.a(eh_terminate.o)
                                                  /usr/bin/../lib/gcc/arm-none-eabi/12.2.1/../../../../arm-none-eabi/lib/thumb/v7e-m+fp/hard/libstdc++_nano.a(eh_catch.o)
                                                  /usr/bin/../lib/gcc/arm-none-eabi/12.2.1/../../../../arm-none-eabi/lib/thumb/v7e-m+fp/hard/libstdc++_nano.a(eh_call.o)
                                                  /usr/bin/../lib/gcc/arm-none-eabi/12.2.1/../../../../arm-none-eabi/lib/thumb/v7e-m+fp/hard/libstdc++_nano.a(eh_unex_handler.o)
                                                  /usr/bin/../lib/gcc/arm-none-eabi/12.2.1/../../../../arm-none-eabi/lib/thumb/v7e-m+fp/hard/libstdc++_nano.a(eh_personality.o)
                                                  /usr/bin/../lib/gcc/arm-none-eabi/12.2.1/../../../../arm-none-eabi/lib/thumb/v7e-m+fp/hard/libstdc++_nano.a(eh_arm.o)
std::tuple<GpioPort, GpioPin, GpioMode, GpioState>::tuple<void, true>() Debug/Drivers/GPIO/IOPin.o
std::tuple<GpioPort, GpioPin, GpioMode, GpioState>::tuple<void, true>() Debug/Drivers/GPIO/IOPin.o
std::tuple<IOPinStatusCodes (*)(GpioPort const&, PeripheralBase<IOPinStatusCodes, 1u, Container<IOPinProperties, GpioPort, GpioPin, GpioMode, GpioState>>*), IOPinStatusCodes (*)(GpioPin const&, PeripheralBase<IOPinStatusCodes, 1u, Container<IOPinProperties, GpioPort, GpioPin, GpioMode, GpioState>>*), IOPinStatusCodes (*)(GpioMode const&, PeripheralBase<IOPinStatusCodes, 1u, Container<IOPinProperties, GpioPort, GpioPin, GpioMode, GpioState>>*), IOPinStatusCodes (*)(GpioState const&, PeripheralBase<IOPinStatusCodes, 1u, Container<IOPinProperties, GpioPort, GpioPin, GpioMode, GpioState>>*)>::operator=(std::tuple<IOPinStatusCodes (*)(GpioPort const&, PeripheralBase<IOPinStatusCodes, 1u, Container<IOPinProperties, GpioPort, GpioPin, GpioMode, GpioState>>*), IOPinStatusCodes (*)(GpioPin const&, PeripheralBase<IOPinStatusCodes, 1u, Container<IOPinProperties, GpioPort, GpioPin, GpioMode, GpioState>>*), IOPinStatusCodes (*)(GpioMode const&, PeripheralBase<IOPinStatusCodes, 1u, Container<IOPinProperties, GpioPort, GpioPin, GpioMode, GpioState>>*), IOPinStatusCodes (*)(GpioState const&, PeripheralBase<IOPinStatusCodes, 1u, Container<IOPinProperties, GpioPort, GpioPin, GpioMode, GpioState>>*)> const&) Debug/Drivers/GPIO/IOPin.o
std::tuple<IOPinStatusCodes (*)(GpioPort const&, PeripheralBase<IOPinStatusCodes, 1u, Container<IOPinProperties, GpioPort, GpioPin, GpioMode, GpioState>>*), IOPinStatusCodes (*)(GpioPin const&, PeripheralBase<IOPinStatusCodes, 1u, Container<IOPinProperties, GpioPort, GpioPin, GpioMode, GpioState>>*), IOPinStatusCodes (*)(GpioMode const&, PeripheralBase<IOPinStatusCodes, 1u, Container<IOPinProperties, GpioPort, GpioPin, GpioMode, GpioState>>*), IOPinStatusCodes (*)(GpioState const&, PeripheralBase<IOPinStatusCodes, 1u, Container<IOPinProperties, GpioPort, GpioPin, GpioMode, GpioState>>*)>::tuple<IOPinStatusCodes (*)(GpioPort const&, PeripheralBase<IOPinStatusCodes, 1u, Container<IOPinProperties, GpioPort, GpioPin, GpioMode, GpioState>>*), IOPinStatusCodes (*)(GpioPin const&, PeripheralBase<IOPinStatusCodes, 1u, Container<IOPinProperties, GpioPort, GpioPin, GpioMode, GpioState>>*), IOPinStatusCodes (*)(GpioMode const&, PeripheralBase<IOPinStatusCodes, 1u, Container<IOPinProperties, GpioPort, GpioPin, GpioMode, GpioState>>*), IOPinStatusCodes (*)(GpioState const&, PeripheralBase<IOPinStatusCodes, 1u, Container<IOPinProperties, GpioPort, GpioPin, GpioMode, GpioState>>*), true, true>(IOPinStatusCodes (*&&)(GpioPort const&, PeripheralBase<IOPinStatusCodes, 1u, Container<IOPinProperties, GpioPort, GpioPin, GpioMode, GpioState>>*), IOPinStatusCodes (*&&)(GpioPin const&, PeripheralBase<IOPinStatusCodes, 1u, Container<IOPinProperties, GpioPort, GpioPin, GpioMode, GpioState>>*), IOPinStatusCodes (*&&)(GpioMode const&, PeripheralBase<IOPinStatusCodes, 1u, Container<IOPinProperties, GpioPort, GpioPin, GpioMode, GpioState>>*), IOPinStatusCodes (*&&)(GpioState const&, PeripheralBase<IOPinStatusCodes, 1u, Container<IOPinProperties, GpioPort, GpioPin, GpioMode, GpioState>>*)) Debug/Drivers/GPIO/IOPin.o
std::tuple<IOPinStatusCodes (*)(GpioPort const&, PeripheralBase<IOPinStatusCodes, 1u, Container<IOPinProperties, GpioPort, GpioPin, GpioMode, GpioState>>*), IOPinStatusCodes (*)(GpioPin const&, PeripheralBase<IOPinStatusCodes, 1u, Container<IOPinProperties, GpioPort, GpioPin, GpioMode, GpioState>>*), IOPinStatusCodes (*)(GpioMode const&, PeripheralBase<IOPinStatusCodes, 1u, Container<IOPinProperties, GpioPort, GpioPin, GpioMode, GpioState>>*), IOPinStatusCodes (*)(GpioState const&, PeripheralBase<IOPinStatusCodes, 1u, Container<IOPinProperties, GpioPort, GpioPin, GpioMode, GpioState>>*)>::tuple<IOPinStatusCodes (*)(GpioPort const&, PeripheralBase<IOPinStatusCodes, 1u, Container<IOPinProperties, GpioPort, GpioPin, GpioMode, GpioState>>*), IOPinStatusCodes (*)(GpioPin const&, PeripheralBase<IOPinStatusCodes, 1u, Container<IOPinProperties, GpioPort, GpioPin, GpioMode, GpioState>>*), IOPinStatusCodes (*)(GpioMode const&, PeripheralBase<IOPinStatusCodes, 1u, Container<IOPinProperties, GpioPort, GpioPin, GpioMode, GpioState>>*), IOPinStatusCodes (*)(GpioState const&, PeripheralBase<IOPinStatusCodes, 1u, Container<IOPinProperties, GpioPort, GpioPin, GpioMode, GpioState>>*), true, true>(IOPinStatusCodes (*&&)(GpioPort const&, PeripheralBase<IOPinStatusCodes, 1u, Container<IOPinProperties, GpioPort, GpioPin, GpioMode, GpioState>>*), IOPinStatusCodes (*&&)(GpioPin const&, PeripheralBase<IOPinStatusCodes, 1u, Container<IOPinProperties, GpioPort, GpioPin, GpioMode, GpioState>>*), IOPinStatusCodes (*&&)(GpioMode const&, PeripheralBase<IOPinStatusCodes, 1u, Container<IOPinProperties, GpioPort, GpioPin, GpioMode, GpioState>>*), IOPinStatusCodes (*&&)(GpioState const&, PeripheralBase<IOPinStatusCodes, 1u, Container<IOPinProperties, GpioPort, GpioPin, GpioMode, GpioState>>*)) Debug/Drivers/GPIO/IOPin.o
std::tuple<IOPinStatusCodes (*)(GpioPort const&, PeripheralBase<IOPinStatusCodes, 1u, Container<IOPinProperties, GpioPort, GpioPin, GpioMode, GpioState>>*), IOPinStatusCodes (*)(GpioPin const&, PeripheralBase<IOPinStatusCodes, 1u, Container<IOPinProperties, GpioPort, GpioPin, GpioMode, GpioState>>*), IOPinStatusCodes (*)(GpioMode const&, PeripheralBase<IOPinStatusCodes, 1u, Container<IOPinProperties, GpioPort, GpioPin, GpioMode, GpioState>>*), IOPinStatusCodes (*)(GpioState const&, PeripheralBase<IOPinStatusCodes, 1u, Container<IOPinProperties, GpioPort, GpioPin, GpioMode, GpioState>>*)>::tuple<void, true>() Debug/Drivers/GPIO/IOPin.o
std::tuple<IOPinStatusCodes (*)(GpioPort const&, PeripheralBase<IOPinStatusCodes, 1u, Container<IOPinProperties, GpioPort, GpioPin, GpioMode, GpioState>>*), IOPinStatusCodes (*)(GpioPin const&, PeripheralBase<IOPinStatusCodes, 1u, Container<IOPinProperties, GpioPort, GpioPin, GpioMode, GpioState>>*), IOPinStatusCodes (*)(GpioMode const&, PeripheralBase<IOPinStatusCodes, 1u, Container<IOPinProperties, GpioPort, GpioPin, GpioMode, GpioState>>*), IOPinStatusCodes (*)(GpioState const&, PeripheralBase<IOPinStatusCodes, 1u, Container<IOPinProperties, GpioPort, GpioPin, GpioMode, GpioState>>*)>::tuple<void, true>() Debug/Drivers/GPIO/IOPin.o
std::type_info::__do_catch(std::type_info const*, void**, unsigned int) const /usr/bin/../lib/gcc/arm-none-eabi/12.2.1/../../../../arm-none-eabi/lib/thumb/v7e-m+fp/hard/libstdc++_nano.a(tinfo.o)
std::type_info::__do_upcast(__cxxabiv1::__class_type_info const*, void**) const /usr/bin/../lib/gcc/arm-none-eabi/12.2.1/../../../../arm-none-eabi/lib/thumb/v7e-m+fp/hard/libstdc++_nano.a(tinfo.o)
std::type_info::__equal(std::type_info const&) const /usr/bin/../lib/gcc/arm-none-eabi/12.2.1/../../../../arm-none-eabi/lib/thumb/v7e-m+fp/hard/libstdc++_nano.a(tinfo.o)
std::type_info::__is_function_p() const           /usr/bin/../lib/gcc/arm-none-eabi/12.2.1/../../../../arm-none-eabi/lib/thumb/v7e-m+fp/hard/libstdc++_nano.a(tinfo.o)
                                                  /usr/bin/../lib/gcc/arm-none-eabi/12.2.1/../../../../arm-none-eabi/lib/thumb/v7e-m+fp/hard/libstdc++_nano.a(class_type_info.o)
                                                  /usr/bin/../lib/gcc/arm-none-eabi/12.2.1/../../../../arm-none-eabi/lib/thumb/v7e-m+fp/hard/libstdc++_nano.a(si_class_type_info.o)
std::type_info::__is_pointer_p() const            /usr/bin/../lib/gcc/arm-none-eabi/12.2.1/../../../../arm-none-eabi/lib/thumb/v7e-m+fp/hard/libstdc++_nano.a(tinfo.o)
                                                  /usr/bin/../lib/gcc/arm-none-eabi/12.2.1/../../../../arm-none-eabi/lib/thumb/v7e-m+fp/hard/libstdc++_nano.a(class_type_info.o)
                                                  /usr/bin/../lib/gcc/arm-none-eabi/12.2.1/../../../../arm-none-eabi/lib/thumb/v7e-m+fp/hard/libstdc++_nano.a(si_class_type_info.o)
std::type_info::operator==(std::type_info const&) const /usr/bin/../lib/gcc/arm-none-eabi/12.2.1/../../../../arm-none-eabi/lib/thumb/v7e-m+fp/hard/libstdc++_nano.a(tinfo.o)
                                                  /usr/bin/../lib/gcc/arm-none-eabi/12.2.1/../../../../arm-none-eabi/lib/thumb/v7e-m+fp/hard/libstdc++_nano.a(class_type_info.o)
                                                  /usr/bin/../lib/gcc/arm-none-eabi/12.2.1/../../../../arm-none-eabi/lib/thumb/v7e-m+fp/hard/libstdc++_nano.a(si_class_type_info.o)
std::type_info::~type_info()                      /usr/bin/../lib/gcc/arm-none-eabi/12.2.1/../../../../arm-none-eabi/lib/thumb/v7e-m+fp/hard/libstdc++_nano.a(tinfo.o)
std::type_info::~type_info()                      /usr/bin/../lib/gcc/arm-none-eabi/12.2.1/../../../../arm-none-eabi/lib/thumb/v7e-m+fp/hard/libstdc++_nano.a(tinfo.o)
std::type_info::~type_info()                      /usr/bin/../lib/gcc/arm-none-eabi/12.2.1/../../../../arm-none-eabi/lib/thumb/v7e-m+fp/hard/libstdc++_nano.a(tinfo.o)
                                                  /usr/bin/../lib/gcc/arm-none-eabi/12.2.1/../../../../arm-none-eabi/lib/thumb/v7e-m+fp/hard/libstdc++_nano.a(class_type_info.o)
std::uncaught_exception()                         /usr/bin/../lib/gcc/arm-none-eabi/12.2.1/../../../../arm-none-eabi/lib/thumb/v7e-m+fp/hard/libstdc++_nano.a(eh_catch.o)
std::uncaught_exceptions()                        /usr/bin/../lib/gcc/arm-none-eabi/12.2.1/../../../../arm-none-eabi/lib/thumb/v7e-m+fp/hard/libstdc++_nano.a(eh_catch.o)
std::unexpected()                                 /usr/bin/../lib/gcc/arm-none-eabi/12.2.1/../../../../arm-none-eabi/lib/thumb/v7e-m+fp/hard/libstdc++_nano.a(eh_terminate.o)
                                                  /usr/bin/../lib/gcc/arm-none-eabi/12.2.1/../../../../arm-none-eabi/lib/thumb/v7e-m+fp/hard/libstdc++_nano.a(eh_call.o)
                                                  /usr/bin/../lib/gcc/arm-none-eabi/12.2.1/../../../../arm-none-eabi/lib/thumb/v7e-m+fp/hard/libstdc++_nano.a(eh_personality.o)
strcmp                                            /usr/bin/../lib/gcc/arm-none-eabi/12.2.1/../../../../arm-none-eabi/lib/thumb/v7e-m+fp/hard/libc_nano.a(libc_a-strcmp.o)
                                                  /usr/bin/../lib/gcc/arm-none-eabi/12.2.1/../../../../arm-none-eabi/lib/thumb/v7e-m+fp/hard/libstdc++_nano.a(tinfo.o)
transaction clone for std::bad_exception::what() const /usr/bin/../lib/gcc/arm-none-eabi/12.2.1/../../../../arm-none-eabi/lib/thumb/v7e-m+fp/hard/libstdc++_nano.a(eh_exception.o)
transaction clone for std::bad_exception::~bad_exception() const /usr/bin/../lib/gcc/arm-none-eabi/12.2.1/../../../../arm-none-eabi/lib/thumb/v7e-m+fp/hard/libstdc++_nano.a(eh_exception.o)
transaction clone for std::exception::what() const /usr/bin/../lib/gcc/arm-none-eabi/12.2.1/../../../../arm-none-eabi/lib/thumb/v7e-m+fp/hard/libstdc++_nano.a(eh_exception.o)
transaction clone for std::exception::~exception() const /usr/bin/../lib/gcc/arm-none-eabi/12.2.1/../../../../arm-none-eabi/lib/thumb/v7e-m+fp/hard/libstdc++_nano.a(eh_exception.o)
typeinfo for __cxxabiv1::__class_type_info        /usr/bin/../lib/gcc/arm-none-eabi/12.2.1/../../../../arm-none-eabi/lib/thumb/v7e-m+fp/hard/libstdc++_nano.a(class_type_info.o)
                                                  /usr/bin/../lib/gcc/arm-none-eabi/12.2.1/../../../../arm-none-eabi/lib/thumb/v7e-m+fp/hard/libstdc++_nano.a(si_class_type_info.o)
typeinfo for __cxxabiv1::__forced_unwind          /usr/bin/../lib/gcc/arm-none-eabi/12.2.1/../../../../arm-none-eabi/lib/thumb/v7e-m+fp/hard/libstdc++_nano.a(eh_exception.o)
                                                  /usr/bin/../lib/gcc/arm-none-eabi/12.2.1/../../../../arm-none-eabi/lib/thumb/v7e-m+fp/hard/libstdc++_nano.a(eh_arm.o)
typeinfo for __cxxabiv1::__foreign_exception      /usr/bin/../lib/gcc/arm-none-eabi/12.2.1/../../../../arm-none-eabi/lib/thumb/v7e-m+fp/hard/libstdc++_nano.a(eh_exception.o)
                                                  /usr/bin/../lib/gcc/arm-none-eabi/12.2.1/../../../../arm-none-eabi/lib/thumb/v7e-m+fp/hard/libstdc++_nano.a(eh_arm.o)
typeinfo for __cxxabiv1::__si_class_type_info     /usr/bin/../lib/gcc/arm-none-eabi/12.2.1/../../../../arm-none-eabi/lib/thumb/v7e-m+fp/hard/libstdc++_nano.a(si_class_type_info.o)
typeinfo for std::bad_exception                   /usr/bin/../lib/gcc/arm-none-eabi/12.2.1/../../../../arm-none-eabi/lib/thumb/v7e-m+fp/hard/libstdc++_nano.a(eh_exception.o)
typeinfo for std::exception                       /usr/bin/../lib/gcc/arm-none-eabi/12.2.1/../../../../arm-none-eabi/lib/thumb/v7e-m+fp/hard/libstdc++_nano.a(eh_exception.o)
typeinfo for std::type_info                       /usr/bin/../lib/gcc/arm-none-eabi/12.2.1/../../../../arm-none-eabi/lib/thumb/v7e-m+fp/hard/libstdc++_nano.a(tinfo.o)
                                                  /usr/bin/../lib/gcc/arm-none-eabi/12.2.1/../../../../arm-none-eabi/lib/thumb/v7e-m+fp/hard/libstdc++_nano.a(class_type_info.o)
typeinfo name for __cxxabiv1::__class_type_info   /usr/bin/../lib/gcc/arm-none-eabi/12.2.1/../../../../arm-none-eabi/lib/thumb/v7e-m+fp/hard/libstdc++_nano.a(class_type_info.o)
typeinfo name for __cxxabiv1::__forced_unwind     /usr/bin/../lib/gcc/arm-none-eabi/12.2.1/../../../../arm-none-eabi/lib/thumb/v7e-m+fp/hard/libstdc++_nano.a(eh_exception.o)
typeinfo name for __cxxabiv1::__foreign_exception /usr/bin/../lib/gcc/arm-none-eabi/12.2.1/../../../../arm-none-eabi/lib/thumb/v7e-m+fp/hard/libstdc++_nano.a(eh_exception.o)
typeinfo name for __cxxabiv1::__si_class_type_info /usr/bin/../lib/gcc/arm-none-eabi/12.2.1/../../../../arm-none-eabi/lib/thumb/v7e-m+fp/hard/libstdc++_nano.a(si_class_type_info.o)
typeinfo name for std::bad_exception              /usr/bin/../lib/gcc/arm-none-eabi/12.2.1/../../../../arm-none-eabi/lib/thumb/v7e-m+fp/hard/libstdc++_nano.a(eh_exception.o)
typeinfo name for std::exception                  /usr/bin/../lib/gcc/arm-none-eabi/12.2.1/../../../../arm-none-eabi/lib/thumb/v7e-m+fp/hard/libstdc++_nano.a(eh_exception.o)
typeinfo name for std::type_info                  /usr/bin/../lib/gcc/arm-none-eabi/12.2.1/../../../../arm-none-eabi/lib/thumb/v7e-m+fp/hard/libstdc++_nano.a(tinfo.o)
void PeripheralBase<IOPinStatusCodes, 1u, Container<IOPinProperties, GpioPort, GpioPin, GpioMode, GpioState>>::setFunctionsPtr<IOPinStatusCodes (*)(GpioPort const&, PeripheralBase<IOPinStatusCodes, 1u, Container<IOPinProperties, GpioPort, GpioPin, GpioMode, GpioState>>*), IOPinStatusCodes (*)(GpioPin const&, PeripheralBase<IOPinStatusCodes, 1u, Container<IOPinProperties, GpioPort, GpioPin, GpioMode, GpioState>>*), IOPinStatusCodes (*)(GpioMode const&, PeripheralBase<IOPinStatusCodes, 1u, Container<IOPinProperties, GpioPort, GpioPin, GpioMode, GpioState>>*), IOPinStatusCodes (*)(GpioState const&, PeripheralBase<IOPinStatusCodes, 1u, Container<IOPinProperties, GpioPort, GpioPin, GpioMode, GpioState>>*)>(Container<IOPinProperties, IOPinStatusCodes (*)(GpioPort const&, PeripheralBase<IOPinStatusCodes, 1u, Container<IOPinProperties, GpioPort, GpioPin, GpioMode, GpioState>>*), IOPinStatusCodes (*)(GpioPin const&, PeripheralBase<IOPinStatusCodes, 1u, Container<IOPinProperties, GpioPort, GpioPin, GpioMode, GpioState>>*), IOPinStatusCodes (*)(GpioMode const&, PeripheralBase<IOPinStatusCodes, 1u, Container<IOPinProperties, GpioPort, GpioPin, GpioMode, GpioState>>*), IOPinStatusCodes (*)(GpioState const&, PeripheralBase<IOPinStatusCodes, 1u, Container<IOPinProperties, GpioPort, GpioPin, GpioMode, GpioState>>*)> const&) Debug/Drivers/GPIO/IOPin.o
void std::_Tuple_impl<0u, IOPinStatusCodes (*)(GpioPort const&, PeripheralBase<IOPinStatusCodes, 1u, Container<IOPinProperties, GpioPort, GpioPin, GpioMode, GpioState>>*), IOPinStatusCodes (*)(GpioPin const&, PeripheralBase<IOPinStatusCodes, 1u, Container<IOPinProperties, GpioPort, GpioPin, GpioMode, GpioState>>*), IOPinStatusCodes (*)(GpioMode const&, PeripheralBase<IOPinStatusCodes, 1u, Container<IOPinProperties, GpioPort, GpioPin, GpioMode, GpioState>>*), IOPinStatusCodes (*)(GpioState const&, PeripheralBase<IOPinStatusCodes, 1u, Container<IOPinProperties, GpioPort, GpioPin, GpioMode, GpioState>>*)>::_M_assign<IOPinStatusCodes (*)(GpioPort const&, PeripheralBase<IOPinStatusCodes, 1u, Container<IOPinProperties, GpioPort, GpioPin, GpioMode, GpioState>>*), IOPinStatusCodes (*)(GpioPin const&, PeripheralBase<IOPinStatusCodes, 1u, Container<IOPinProperties, GpioPort, GpioPin, GpioMode, GpioState>>*), IOPinStatusCodes (*)(GpioMode const&, PeripheralBase<IOPinStatusCodes, 1u, Container<IOPinProperties, GpioPort, GpioPin, GpioMode, GpioState>>*), IOPinStatusCodes (*)(GpioState const&, PeripheralBase<IOPinStatusCodes, 1u, Container<IOPinProperties, GpioPort, GpioPin, GpioMode, GpioState>>*)>(std::_Tuple_impl<0u, IOPinStatusCodes (*)(GpioPort const&, PeripheralBase<IOPinStatusCodes, 1u, Container<IOPinProperties, GpioPort, GpioPin, GpioMode, GpioState>>*), IOPinStatusCodes (*)(GpioPin const&, PeripheralBase<IOPinStatusCodes, 1u, Container<IOPinProperties, GpioPort, GpioPin, GpioMode, GpioState>>*), IOPinStatusCodes (*)(GpioMode const&, PeripheralBase<IOPinStatusCodes, 1u, Container<IOPinProperties, GpioPort, GpioPin, GpioMode, GpioState>>*), IOPinStatusCodes (*)(GpioState const&, PeripheralBase<IOPinStatusCodes, 1u, Container<IOPinProperties, GpioPort, GpioPin, GpioMode, GpioState>>*)> const&) Debug/Drivers/GPIO/IOPin.o
void std::_Tuple_impl<1u, IOPinStatusCodes (*)(GpioPin const&, PeripheralBase<IOPinStatusCodes, 1u, Container<IOPinProperties, GpioPort, GpioPin, GpioMode, GpioState>>*), IOPinStatusCodes (*)(GpioMode const&, PeripheralBase<IOPinStatusCodes, 1u, Container<IOPinProperties, GpioPort, GpioPin, GpioMode, GpioState>>*), IOPinStatusCodes (*)(GpioState const&, PeripheralBase<IOPinStatusCodes, 1u, Container<IOPinProperties, GpioPort, GpioPin, GpioMode, GpioState>>*)>::_M_assign<IOPinStatusCodes (*)(GpioPin const&, PeripheralBase<IOPinStatusCodes, 1u, Container<IOPinProperties, GpioPort, GpioPin, GpioMode, GpioState>>*), IOPinStatusCodes (*)(GpioMode const&, PeripheralBase<IOPinStatusCodes, 1u, Container<IOPinProperties, GpioPort, GpioPin, GpioMode, GpioState>>*), IOPinStatusCodes (*)(GpioState const&, PeripheralBase<IOPinStatusCodes, 1u, Container<IOPinProperties, GpioPort, GpioPin, GpioMode, GpioState>>*)>(std::_Tuple_impl<1u, IOPinStatusCodes (*)(GpioPin const&, PeripheralBase<IOPinStatusCodes, 1u, Container<IOPinProperties, GpioPort, GpioPin, GpioMode, GpioState>>*), IOPinStatusCodes (*)(GpioMode const&, PeripheralBase<IOPinStatusCodes, 1u, Container<IOPinProperties, GpioPort, GpioPin, GpioMode, GpioState>>*), IOPinStatusCodes (*)(GpioState const&, PeripheralBase<IOPinStatusCodes, 1u, Container<IOPinProperties, GpioPort, GpioPin, GpioMode, GpioState>>*)> const&) Debug/Drivers/GPIO/IOPin.o
void std::_Tuple_impl<2u, IOPinStatusCodes (*)(GpioMode const&, PeripheralBase<IOPinStatusCodes, 1u, Container<IOPinProperties, GpioPort, GpioPin, GpioMode, GpioState>>*), IOPinStatusCodes (*)(GpioState const&, PeripheralBase<IOPinStatusCodes, 1u, Container<IOPinProperties, GpioPort, GpioPin, GpioMode, GpioState>>*)>::_M_assign<IOPinStatusCodes (*)(GpioMode const&, PeripheralBase<IOPinStatusCodes, 1u, Container<IOPinProperties, GpioPort, GpioPin, GpioMode, GpioState>>*), IOPinStatusCodes (*)(GpioState const&, PeripheralBase<IOPinStatusCodes, 1u, Container<IOPinProperties, GpioPort, GpioPin, GpioMode, GpioState>>*)>(std::_Tuple_impl<2u, IOPinStatusCodes (*)(GpioMode const&, PeripheralBase<IOPinStatusCodes, 1u, Container<IOPinProperties, GpioPort, GpioPin, GpioMode, GpioState>>*), IOPinStatusCodes (*)(GpioState const&, PeripheralBase<IOPinStatusCodes, 1u, Container<IOPinProperties, GpioPort, GpioPin, GpioMode, GpioState>>*)> const&) Debug/Drivers/GPIO/IOPin.o
void std::_Tuple_impl<3u, IOPinStatusCodes (*)(GpioState const&, PeripheralBase<IOPinStatusCodes, 1u, Container<IOPinProperties, GpioPort, GpioPin, GpioMode, GpioState>>*)>::_M_assign<IOPinStatusCodes (*)(GpioState const&, PeripheralBase<IOPinStatusCodes, 1u, Container<IOPinProperties, GpioPort, GpioPin, GpioMode, GpioState>>*)>(std::_Tuple_impl<3u, IOPinStatusCodes (*)(GpioState const&, PeripheralBase<IOPinStatusCodes, 1u, Container<IOPinProperties, GpioPort, GpioPin, GpioMode, GpioState>>*)> const&) Debug/Drivers/GPIO/IOPin.o
vtable for Container<IOPinProperties, GpioPort, GpioPin, GpioMode, GpioState> Debug/Drivers/GPIO/IOPin.o
vtable for Container<IOPinProperties, IOPinStatusCodes (*)(GpioPort const&, PeripheralBase<IOPinStatusCodes, 1u, Container<IOPinProperties, GpioPort, GpioPin, GpioMode, GpioState>>*), IOPinStatusCodes (*)(GpioPin const&, PeripheralBase<IOPinStatusCodes, 1u, Container<IOPinProperties, GpioPort, GpioPin, GpioMode, GpioState>>*), IOPinStatusCodes (*)(GpioMode const&, PeripheralBase<IOPinStatusCodes, 1u, Container<IOPinProperties, GpioPort, GpioPin, GpioMode, GpioState>>*), IOPinStatusCodes (*)(GpioState const&, PeripheralBase<IOPinStatusCodes, 1u, Container<IOPinProperties, GpioPort, GpioPin, GpioMode, GpioState>>*)> Debug/Drivers/GPIO/IOPin.o
vtable for ContainerBase<GpioPort, GpioPin, GpioMode, GpioState> Debug/Drivers/GPIO/IOPin.o
vtable for ContainerBase<IOPinStatusCodes (*)(GpioPort const&, PeripheralBase<IOPinStatusCodes, 1u, Container<IOPinProperties, GpioPort, GpioPin, GpioMode, GpioState>>*), IOPinStatusCodes (*)(GpioPin const&, PeripheralBase<IOPinStatusCodes, 1u, Container<IOPinProperties, GpioPort, GpioPin, GpioMode, GpioState>>*), IOPinStatusCodes (*)(GpioMode const&, PeripheralBase<IOPinStatusCodes, 1u, Container<IOPinProperties, GpioPort, GpioPin, GpioMode, GpioState>>*), IOPinStatusCodes (*)(GpioState const&, PeripheralBase<IOPinStatusCodes, 1u, Container<IOPinProperties, GpioPort, GpioPin, GpioMode, GpioState>>*)> Debug/Drivers/GPIO/IOPin.o
vtable for IOPin                                  Debug/Drivers/GPIO/IOPin.o
vtable for PeripheralBase<IOPinStatusCodes, 1u, Container<IOPinProperties, GpioPort, GpioPin, GpioMode, GpioState>> Debug/Drivers/GPIO/IOPin.o
vtable for STM32PeripheralBase<GPIO_TypeDef, PeripheralBase<IOPinStatusCodes, 1u, Container<IOPinProperties, GpioPort, GpioPin, GpioMode, GpioState>> > Debug/Drivers/GPIO/IOPin.o
vtable for __cxxabiv1::__class_type_info          /usr/bin/../lib/gcc/arm-none-eabi/12.2.1/../../../../arm-none-eabi/lib/thumb/v7e-m+fp/hard/libstdc++_nano.a(class_type_info.o)
                                                  /usr/bin/../lib/gcc/arm-none-eabi/12.2.1/../../../../arm-none-eabi/lib/thumb/v7e-m+fp/hard/libstdc++_nano.a(tinfo.o)
                                                  /usr/bin/../lib/gcc/arm-none-eabi/12.2.1/../../../../arm-none-eabi/lib/thumb/v7e-m+fp/hard/libstdc++_nano.a(eh_exception.o)
vtable for __cxxabiv1::__forced_unwind            /usr/bin/../lib/gcc/arm-none-eabi/12.2.1/../../../../arm-none-eabi/lib/thumb/v7e-m+fp/hard/libstdc++_nano.a(eh_exception.o)
vtable for __cxxabiv1::__foreign_exception        /usr/bin/../lib/gcc/arm-none-eabi/12.2.1/../../../../arm-none-eabi/lib/thumb/v7e-m+fp/hard/libstdc++_nano.a(eh_exception.o)
vtable for __cxxabiv1::__si_class_type_info       /usr/bin/../lib/gcc/arm-none-eabi/12.2.1/../../../../arm-none-eabi/lib/thumb/v7e-m+fp/hard/libstdc++_nano.a(si_class_type_info.o)
                                                  /usr/bin/../lib/gcc/arm-none-eabi/12.2.1/../../../../arm-none-eabi/lib/thumb/v7e-m+fp/hard/libstdc++_nano.a(class_type_info.o)
                                                  /usr/bin/../lib/gcc/arm-none-eabi/12.2.1/../../../../arm-none-eabi/lib/thumb/v7e-m+fp/hard/libstdc++_nano.a(eh_exception.o)
vtable for std::bad_exception                     /usr/bin/../lib/gcc/arm-none-eabi/12.2.1/../../../../arm-none-eabi/lib/thumb/v7e-m+fp/hard/libstdc++_nano.a(eh_exception.o)
vtable for std::exception                         /usr/bin/../lib/gcc/arm-none-eabi/12.2.1/../../../../arm-none-eabi/lib/thumb/v7e-m+fp/hard/libstdc++_nano.a(eh_exception.o)
vtable for std::type_info                         /usr/bin/../lib/gcc/arm-none-eabi/12.2.1/../../../../arm-none-eabi/lib/thumb/v7e-m+fp/hard/libstdc++_nano.a(tinfo.o)
